	.text
	.file	"main.7rcbfp3g-cgu.0"
	.section	".text._ZN100_$LT$core..slice..Iter$LT$T$GT$$u20$as$u20$core..iter..traits..double_ended..DoubleEndedIterator$GT$9next_back17h75ab70b66b86447eE","ax",@progbits
	.p2align	4, 0x90
	.type	_ZN100_$LT$core..slice..Iter$LT$T$GT$$u20$as$u20$core..iter..traits..double_ended..DoubleEndedIterator$GT$9next_back17h75ab70b66b86447eE,@function
_ZN100_$LT$core..slice..Iter$LT$T$GT$$u20$as$u20$core..iter..traits..double_ended..DoubleEndedIterator$GT$9next_back17h75ab70b66b86447eE:
	.cfi_startproc
	subq	$56, %rsp
	.cfi_def_cfa_offset 64
	movq	(%rdi), %rax
	movq	%rdi, 32(%rsp)
	movq	%rax, %rdi
	callq	_ZN4core3ptr33_$LT$impl$u20$$BP$const$u20$T$GT$7is_null17h4e8ac3715e01649dE
	movb	%al, 31(%rsp)
	callq	_ZN4core3mem7size_of17h592060904b8a69ffE
	movq	%rax, 16(%rsp)
	movq	16(%rsp), %rax
	cmpq	$0, %rax
	je	.LBB0_7
	movq	32(%rsp), %rax
	movq	8(%rax), %rdi
	callq	_ZN4core3ptr33_$LT$impl$u20$$BP$const$u20$T$GT$7is_null17h4e8ac3715e01649dE
	movb	%al, 15(%rsp)
	jmp	.LBB0_7
.LBB0_7:
	movq	32(%rsp), %rax
	movq	(%rax), %rcx
	cmpq	8(%rax), %rcx
	jne	.LBB0_9
	movq	$0, 40(%rsp)
	jmp	.LBB0_14
.LBB0_9:
	callq	_ZN4core3mem7size_of17h592060904b8a69ffE
	cmpq	$0, %rax
	jne	.LBB0_11
	movq	32(%rsp), %rax
	movq	8(%rax), %rdi
	movq	$-1, %rsi
	callq	_ZN4core3ptr33_$LT$impl$u20$$BP$const$u20$T$GT$15wrapping_offset17h3e4cb31731a67fbbE
	movq	32(%rsp), %rsi
	movq	%rax, 8(%rsi)
	movq	(%rsi), %rax
	movq	%rax, 48(%rsp)
	jmp	.LBB0_12
.LBB0_11:
	movq	32(%rsp), %rax
	movq	8(%rax), %rdi
	movq	$-1, %rsi
	callq	_ZN4core3ptr33_$LT$impl$u20$$BP$const$u20$T$GT$6offset17h7335ff09340acbc6E
	movq	32(%rsp), %rsi
	movq	%rax, 8(%rsi)
	movq	8(%rsi), %rax
	movq	%rax, 48(%rsp)
.LBB0_12:
	movq	48(%rsp), %rax
	movq	%rax, (%rsp)
	movq	(%rsp), %rax
	movq	%rax, 40(%rsp)
.LBB0_14:
	movq	40(%rsp), %rax
	addq	$56, %rsp
	.cfi_def_cfa_offset 8
	retq
.Lfunc_end0:
	.size	_ZN100_$LT$core..slice..Iter$LT$T$GT$$u20$as$u20$core..iter..traits..double_ended..DoubleEndedIterator$GT$9next_back17h75ab70b66b86447eE, .Lfunc_end0-_ZN100_$LT$core..slice..Iter$LT$T$GT$$u20$as$u20$core..iter..traits..double_ended..DoubleEndedIterator$GT$9next_back17h75ab70b66b86447eE
	.cfi_endproc

	.section	".text._ZN101_$LT$core..ptr..NonNull$LT$T$GT$$u20$as$u20$core..convert..From$LT$core..ptr..Unique$LT$T$GT$$GT$$GT$4from17h0826ac918d326c57E","ax",@progbits
	.p2align	4, 0x90
	.type	_ZN101_$LT$core..ptr..NonNull$LT$T$GT$$u20$as$u20$core..convert..From$LT$core..ptr..Unique$LT$T$GT$$GT$$GT$4from17h0826ac918d326c57E,@function
_ZN101_$LT$core..ptr..NonNull$LT$T$GT$$u20$as$u20$core..convert..From$LT$core..ptr..Unique$LT$T$GT$$GT$$GT$4from17h0826ac918d326c57E:
	.cfi_startproc
	pushq	%rax
	.cfi_def_cfa_offset 16
	movq	%rdi, (%rsp)
	movq	(%rsp), %rax
	popq	%rcx
	.cfi_def_cfa_offset 8
	retq
.Lfunc_end1:
	.size	_ZN101_$LT$core..ptr..NonNull$LT$T$GT$$u20$as$u20$core..convert..From$LT$core..ptr..Unique$LT$T$GT$$GT$$GT$4from17h0826ac918d326c57E, .Lfunc_end1-_ZN101_$LT$core..ptr..NonNull$LT$T$GT$$u20$as$u20$core..convert..From$LT$core..ptr..Unique$LT$T$GT$$GT$$GT$4from17h0826ac918d326c57E
	.cfi_endproc

	.section	".text._ZN101_$LT$core..ptr..NonNull$LT$T$GT$$u20$as$u20$core..convert..From$LT$core..ptr..Unique$LT$T$GT$$GT$$GT$4from17hbd7255b0bfb05237E","ax",@progbits
	.p2align	4, 0x90
	.type	_ZN101_$LT$core..ptr..NonNull$LT$T$GT$$u20$as$u20$core..convert..From$LT$core..ptr..Unique$LT$T$GT$$GT$$GT$4from17hbd7255b0bfb05237E,@function
_ZN101_$LT$core..ptr..NonNull$LT$T$GT$$u20$as$u20$core..convert..From$LT$core..ptr..Unique$LT$T$GT$$GT$$GT$4from17hbd7255b0bfb05237E:
	.cfi_startproc
	pushq	%rax
	.cfi_def_cfa_offset 16
	movq	%rdi, (%rsp)
	movq	(%rsp), %rax
	popq	%rcx
	.cfi_def_cfa_offset 8
	retq
.Lfunc_end2:
	.size	_ZN101_$LT$core..ptr..NonNull$LT$T$GT$$u20$as$u20$core..convert..From$LT$core..ptr..Unique$LT$T$GT$$GT$$GT$4from17hbd7255b0bfb05237E, .Lfunc_end2-_ZN101_$LT$core..ptr..NonNull$LT$T$GT$$u20$as$u20$core..convert..From$LT$core..ptr..Unique$LT$T$GT$$GT$$GT$4from17hbd7255b0bfb05237E
	.cfi_endproc

	.section	".text._ZN101_$LT$core..ptr..NonNull$LT$T$GT$$u20$as$u20$core..convert..From$LT$core..ptr..Unique$LT$T$GT$$GT$$GT$4from17hdbf0254b1c09d1e4E","ax",@progbits
	.p2align	4, 0x90
	.type	_ZN101_$LT$core..ptr..NonNull$LT$T$GT$$u20$as$u20$core..convert..From$LT$core..ptr..Unique$LT$T$GT$$GT$$GT$4from17hdbf0254b1c09d1e4E,@function
_ZN101_$LT$core..ptr..NonNull$LT$T$GT$$u20$as$u20$core..convert..From$LT$core..ptr..Unique$LT$T$GT$$GT$$GT$4from17hdbf0254b1c09d1e4E:
	.cfi_startproc
	subq	$16, %rsp
	.cfi_def_cfa_offset 24
	movq	%rdi, (%rsp)
	movq	%rsi, 8(%rsp)
	movq	(%rsp), %rax
	movq	8(%rsp), %rdx
	addq	$16, %rsp
	.cfi_def_cfa_offset 8
	retq
.Lfunc_end3:
	.size	_ZN101_$LT$core..ptr..NonNull$LT$T$GT$$u20$as$u20$core..convert..From$LT$core..ptr..Unique$LT$T$GT$$GT$$GT$4from17hdbf0254b1c09d1e4E, .Lfunc_end3-_ZN101_$LT$core..ptr..NonNull$LT$T$GT$$u20$as$u20$core..convert..From$LT$core..ptr..Unique$LT$T$GT$$GT$$GT$4from17hdbf0254b1c09d1e4E
	.cfi_endproc

	.section	".text._ZN101_$LT$core..ptr..Unique$LT$T$GT$$u20$as$u20$core..convert..From$LT$core..ptr..NonNull$LT$T$GT$$GT$$GT$4from17h2df52738ef45a3c5E","ax",@progbits
	.p2align	4, 0x90
	.type	_ZN101_$LT$core..ptr..Unique$LT$T$GT$$u20$as$u20$core..convert..From$LT$core..ptr..NonNull$LT$T$GT$$GT$$GT$4from17h2df52738ef45a3c5E,@function
_ZN101_$LT$core..ptr..Unique$LT$T$GT$$u20$as$u20$core..convert..From$LT$core..ptr..NonNull$LT$T$GT$$GT$$GT$4from17h2df52738ef45a3c5E:
	.cfi_startproc
	subq	$16, %rsp
	.cfi_def_cfa_offset 24
	movq	%rdi, (%rsp)
	movq	(%rsp), %rax
	addq	$16, %rsp
	.cfi_def_cfa_offset 8
	retq
.Lfunc_end4:
	.size	_ZN101_$LT$core..ptr..Unique$LT$T$GT$$u20$as$u20$core..convert..From$LT$core..ptr..NonNull$LT$T$GT$$GT$$GT$4from17h2df52738ef45a3c5E, .Lfunc_end4-_ZN101_$LT$core..ptr..Unique$LT$T$GT$$u20$as$u20$core..convert..From$LT$core..ptr..NonNull$LT$T$GT$$GT$$GT$4from17h2df52738ef45a3c5E
	.cfi_endproc

	.section	".text._ZN101_$LT$core..ptr..Unique$LT$T$GT$$u20$as$u20$core..convert..From$LT$core..ptr..NonNull$LT$T$GT$$GT$$GT$4from17h3c96e64036848989E","ax",@progbits
	.p2align	4, 0x90
	.type	_ZN101_$LT$core..ptr..Unique$LT$T$GT$$u20$as$u20$core..convert..From$LT$core..ptr..NonNull$LT$T$GT$$GT$$GT$4from17h3c96e64036848989E,@function
_ZN101_$LT$core..ptr..Unique$LT$T$GT$$u20$as$u20$core..convert..From$LT$core..ptr..NonNull$LT$T$GT$$GT$$GT$4from17h3c96e64036848989E:
	.cfi_startproc
	subq	$16, %rsp
	.cfi_def_cfa_offset 24
	movq	%rdi, (%rsp)
	movq	(%rsp), %rax
	addq	$16, %rsp
	.cfi_def_cfa_offset 8
	retq
.Lfunc_end5:
	.size	_ZN101_$LT$core..ptr..Unique$LT$T$GT$$u20$as$u20$core..convert..From$LT$core..ptr..NonNull$LT$T$GT$$GT$$GT$4from17h3c96e64036848989E, .Lfunc_end5-_ZN101_$LT$core..ptr..Unique$LT$T$GT$$u20$as$u20$core..convert..From$LT$core..ptr..NonNull$LT$T$GT$$GT$$GT$4from17h3c96e64036848989E
	.cfi_endproc

	.section	".text._ZN103_$LT$core..ops..range..RangeFrom$LT$usize$GT$$u20$as$u20$core..slice..SliceIndex$LT$$u5b$T$u5d$$GT$$GT$17get_unchecked_mut17heee8884c5eb0e636E","ax",@progbits
	.p2align	4, 0x90
	.type	_ZN103_$LT$core..ops..range..RangeFrom$LT$usize$GT$$u20$as$u20$core..slice..SliceIndex$LT$$u5b$T$u5d$$GT$$GT$17get_unchecked_mut17heee8884c5eb0e636E,@function
_ZN103_$LT$core..ops..range..RangeFrom$LT$usize$GT$$u20$as$u20$core..slice..SliceIndex$LT$$u5b$T$u5d$$GT$$GT$17get_unchecked_mut17heee8884c5eb0e636E:
	.cfi_startproc
	subq	$72, %rsp
	.cfi_def_cfa_offset 80
	movq	%rdi, 48(%rsp)
	movq	%rsi, %rdi
	movq	%rsi, 40(%rsp)
	movq	%rdx, %rsi
	movq	%rdx, 32(%rsp)
	callq	_ZN4core5slice29_$LT$impl$u20$$u5b$T$u5d$$GT$3len17h4ded11694fc2c466E
	movq	%rax, 24(%rsp)
	movq	48(%rsp), %rax
	movq	%rax, 56(%rsp)
	movq	24(%rsp), %rcx
	movq	%rcx, 64(%rsp)
	movq	56(%rsp), %rdi
	movq	64(%rsp), %rsi
	movq	40(%rsp), %rdx
	movq	32(%rsp), %rcx
	callq	_ZN99_$LT$core..ops..range..Range$LT$usize$GT$$u20$as$u20$core..slice..SliceIndex$LT$$u5b$T$u5d$$GT$$GT$17get_unchecked_mut17h66728948fc4911e3E
	movq	%rax, 16(%rsp)
	movq	%rdx, 8(%rsp)
	movq	16(%rsp), %rax
	movq	8(%rsp), %rdx
	addq	$72, %rsp
	.cfi_def_cfa_offset 8
	retq
.Lfunc_end6:
	.size	_ZN103_$LT$core..ops..range..RangeFrom$LT$usize$GT$$u20$as$u20$core..slice..SliceIndex$LT$$u5b$T$u5d$$GT$$GT$17get_unchecked_mut17heee8884c5eb0e636E, .Lfunc_end6-_ZN103_$LT$core..ops..range..RangeFrom$LT$usize$GT$$u20$as$u20$core..slice..SliceIndex$LT$$u5b$T$u5d$$GT$$GT$17get_unchecked_mut17heee8884c5eb0e636E
	.cfi_endproc

	.section	".text._ZN103_$LT$core..ops..range..RangeFrom$LT$usize$GT$$u20$as$u20$core..slice..SliceIndex$LT$$u5b$T$u5d$$GT$$GT$5index17hd3e7c413aabc6513E","ax",@progbits
	.p2align	4, 0x90
	.type	_ZN103_$LT$core..ops..range..RangeFrom$LT$usize$GT$$u20$as$u20$core..slice..SliceIndex$LT$$u5b$T$u5d$$GT$$GT$5index17hd3e7c413aabc6513E,@function
_ZN103_$LT$core..ops..range..RangeFrom$LT$usize$GT$$u20$as$u20$core..slice..SliceIndex$LT$$u5b$T$u5d$$GT$$GT$5index17hd3e7c413aabc6513E:
	.cfi_startproc
	subq	$72, %rsp
	.cfi_def_cfa_offset 80
	movq	%rdi, 48(%rsp)
	movq	%rsi, %rdi
	movq	%rsi, 40(%rsp)
	movq	%rdx, %rsi
	movq	%rdx, 32(%rsp)
	callq	_ZN4core5slice29_$LT$impl$u20$$u5b$T$u5d$$GT$3len17h4ded11694fc2c466E
	movq	%rax, 24(%rsp)
	movq	48(%rsp), %rax
	movq	%rax, 56(%rsp)
	movq	24(%rsp), %rcx
	movq	%rcx, 64(%rsp)
	movq	56(%rsp), %rdi
	movq	64(%rsp), %rsi
	movq	40(%rsp), %rdx
	movq	32(%rsp), %rcx
	callq	_ZN99_$LT$core..ops..range..Range$LT$usize$GT$$u20$as$u20$core..slice..SliceIndex$LT$$u5b$T$u5d$$GT$$GT$5index17hb5c6615cd8cb2325E
	movq	%rax, 16(%rsp)
	movq	%rdx, 8(%rsp)
	movq	16(%rsp), %rax
	movq	8(%rsp), %rdx
	addq	$72, %rsp
	.cfi_def_cfa_offset 8
	retq
.Lfunc_end7:
	.size	_ZN103_$LT$core..ops..range..RangeFrom$LT$usize$GT$$u20$as$u20$core..slice..SliceIndex$LT$$u5b$T$u5d$$GT$$GT$5index17hd3e7c413aabc6513E, .Lfunc_end7-_ZN103_$LT$core..ops..range..RangeFrom$LT$usize$GT$$u20$as$u20$core..slice..SliceIndex$LT$$u5b$T$u5d$$GT$$GT$5index17hd3e7c413aabc6513E
	.cfi_endproc

	.section	".text._ZN107_$LT$alloc..collections..CollectionAllocErr$u20$as$u20$core..convert..From$LT$core..alloc..AllocErr$GT$$GT$4from17h3f18c0e854ca29a2E","ax",@progbits
	.p2align	4, 0x90
	.type	_ZN107_$LT$alloc..collections..CollectionAllocErr$u20$as$u20$core..convert..From$LT$core..alloc..AllocErr$GT$$GT$4from17h3f18c0e854ca29a2E,@function
_ZN107_$LT$alloc..collections..CollectionAllocErr$u20$as$u20$core..convert..From$LT$core..alloc..AllocErr$GT$$GT$4from17h3f18c0e854ca29a2E:
	.cfi_startproc
	subq	$1, %rsp
	.cfi_def_cfa_offset 9
	movb	$1, (%rsp)
	movb	(%rsp), %al
	andb	$1, %al
	movzbl	%al, %eax
	addq	$1, %rsp
	.cfi_def_cfa_offset 8
	retq
.Lfunc_end8:
	.size	_ZN107_$LT$alloc..collections..CollectionAllocErr$u20$as$u20$core..convert..From$LT$core..alloc..AllocErr$GT$$GT$4from17h3f18c0e854ca29a2E, .Lfunc_end8-_ZN107_$LT$alloc..collections..CollectionAllocErr$u20$as$u20$core..convert..From$LT$core..alloc..AllocErr$GT$$GT$4from17h3f18c0e854ca29a2E
	.cfi_endproc

	.section	".text._ZN108_$LT$core..ops..range..RangeInclusive$LT$usize$GT$$u20$as$u20$core..slice..SliceIndex$LT$$u5b$T$u5d$$GT$$GT$5index17h997707a779265761E","ax",@progbits
	.p2align	4, 0x90
	.type	_ZN108_$LT$core..ops..range..RangeInclusive$LT$usize$GT$$u20$as$u20$core..slice..SliceIndex$LT$$u5b$T$u5d$$GT$$GT$5index17h997707a779265761E,@function
_ZN108_$LT$core..ops..range..RangeInclusive$LT$usize$GT$$u20$as$u20$core..slice..SliceIndex$LT$$u5b$T$u5d$$GT$$GT$5index17h997707a779265761E:
	.cfi_startproc
	subq	$120, %rsp
	.cfi_def_cfa_offset 128
	movq	%rdi, 96(%rsp)
	movq	%rsi, 88(%rsp)
	movq	%rdx, 80(%rsp)
	callq	_ZN4core3ops5range25RangeInclusive$LT$Idx$GT$3end17hea3f1cac3f2441e2E
	movq	%rax, 72(%rsp)
	movq	72(%rsp), %rax
	movq	(%rax), %rcx
	movq	%rcx, 64(%rsp)
	callq	_ZN4core3num23_$LT$impl$u20$usize$GT$9max_value17h099bf99af4ab8d76E
	movq	%rax, 56(%rsp)
	movq	64(%rsp), %rax
	movq	56(%rsp), %rcx
	cmpq	%rcx, %rax
	jne	.LBB9_4
	movq	_ZN4core5slice25slice_index_overflow_fail17h47e2c0d97a57b1aeE@GOTPCREL(%rip), %rax
	callq	*%rax
	ud2
.LBB9_4:
	movq	96(%rsp), %rdi
	callq	_ZN4core3ops5range25RangeInclusive$LT$Idx$GT$5start17h5c37d85b7fea163dE
	movq	%rax, 48(%rsp)
	movq	48(%rsp), %rax
	movq	(%rax), %rcx
	movq	96(%rsp), %rdi
	movq	%rcx, 40(%rsp)
	callq	_ZN4core3ops5range25RangeInclusive$LT$Idx$GT$3end17hea3f1cac3f2441e2E
	movq	%rax, 32(%rsp)
	movq	32(%rsp), %rdi
	movl	$1, %esi
	callq	_ZN64_$LT$$RF$usize$u20$as$u20$core..ops..arith..Add$LT$usize$GT$$GT$3add17hae16d86e316054a7E
	movq	%rax, 24(%rsp)
	movq	40(%rsp), %rax
	movq	%rax, 104(%rsp)
	movq	24(%rsp), %rcx
	movq	%rcx, 112(%rsp)
	movq	104(%rsp), %rdi
	movq	112(%rsp), %rsi
	movq	88(%rsp), %rdx
	movq	80(%rsp), %rcx
	callq	_ZN99_$LT$core..ops..range..Range$LT$usize$GT$$u20$as$u20$core..slice..SliceIndex$LT$$u5b$T$u5d$$GT$$GT$5index17hb5c6615cd8cb2325E
	movq	%rax, 16(%rsp)
	movq	%rdx, 8(%rsp)
	movq	16(%rsp), %rax
	movq	8(%rsp), %rdx
	addq	$120, %rsp
	.cfi_def_cfa_offset 8
	retq
.Lfunc_end9:
	.size	_ZN108_$LT$core..ops..range..RangeInclusive$LT$usize$GT$$u20$as$u20$core..slice..SliceIndex$LT$$u5b$T$u5d$$GT$$GT$5index17h997707a779265761E, .Lfunc_end9-_ZN108_$LT$core..ops..range..RangeInclusive$LT$usize$GT$$u20$as$u20$core..slice..SliceIndex$LT$$u5b$T$u5d$$GT$$GT$5index17h997707a779265761E
	.cfi_endproc

	.section	".text._ZN109_$LT$alloc..vec..Vec$LT$T$GT$$u20$as$u20$alloc..vec..SpecExtend$LT$$RF$T$C$core..slice..Iter$LT$T$GT$$GT$$GT$11spec_extend17hb85c7b77fafe4003E","ax",@progbits
	.p2align	4, 0x90
	.type	_ZN109_$LT$alloc..vec..Vec$LT$T$GT$$u20$as$u20$alloc..vec..SpecExtend$LT$$RF$T$C$core..slice..Iter$LT$T$GT$$GT$$GT$11spec_extend17hb85c7b77fafe4003E,@function
_ZN109_$LT$alloc..vec..Vec$LT$T$GT$$u20$as$u20$alloc..vec..SpecExtend$LT$$RF$T$C$core..slice..Iter$LT$T$GT$$GT$$GT$11spec_extend17hb85c7b77fafe4003E:
	.cfi_startproc
	subq	$104, %rsp
	.cfi_def_cfa_offset 112
	movq	%rsi, 80(%rsp)
	movq	%rdx, 88(%rsp)
	leaq	80(%rsp), %rdx
	movq	%rdi, 72(%rsp)
	movq	%rdx, %rdi
	callq	_ZN4core5slice13Iter$LT$T$GT$8as_slice17h19819ef1a03a152dE
	movq	%rax, 64(%rsp)
	movq	%rdx, 56(%rsp)
	movq	64(%rsp), %rdi
	movq	56(%rsp), %rsi
	callq	_ZN4core5slice29_$LT$impl$u20$$u5b$T$u5d$$GT$3len17h4ded11694fc2c466E
	movq	%rax, 48(%rsp)
	movq	72(%rsp), %rdi
	movq	48(%rsp), %rsi
	callq	_ZN5alloc3vec12Vec$LT$T$GT$7reserve17had008904b3efcb65E
	movq	72(%rsp), %rdi
	callq	_ZN5alloc3vec12Vec$LT$T$GT$3len17h751dc25b11efb097E
	movq	%rax, 40(%rsp)
	movq	64(%rsp), %rdi
	movq	56(%rsp), %rsi
	callq	_ZN4core5slice29_$LT$impl$u20$$u5b$T$u5d$$GT$3len17h4ded11694fc2c466E
	movq	%rax, 32(%rsp)
	movq	40(%rsp), %rax
	movq	32(%rsp), %rcx
	addq	%rcx, %rax
	movq	72(%rsp), %rdi
	movq	%rax, %rsi
	callq	_ZN5alloc3vec12Vec$LT$T$GT$7set_len17hae9f683f451614ffE
	movq	72(%rsp), %rdi
	callq	_ZN71_$LT$alloc..vec..Vec$LT$T$GT$$u20$as$u20$core..ops..deref..DerefMut$GT$9deref_mut17h97ea3c9aa1c6148dE
	movq	%rax, 24(%rsp)
	movq	%rdx, 16(%rsp)
	movq	40(%rsp), %rax
	movq	%rax, 96(%rsp)
	movq	96(%rsp), %rdx
	movq	24(%rsp), %rdi
	movq	16(%rsp), %rsi
	callq	_ZN4core5slice29_$LT$impl$u20$$u5b$T$u5d$$GT$17get_unchecked_mut17hbe8447c9e7683e88E
	movq	%rax, 8(%rsp)
	movq	%rdx, (%rsp)
	movq	8(%rsp), %rdi
	movq	(%rsp), %rsi
	movq	64(%rsp), %rdx
	movq	56(%rsp), %rcx
	callq	_ZN4core5slice29_$LT$impl$u20$$u5b$T$u5d$$GT$15copy_from_slice17h8464ab3c04eea6adE
	addq	$104, %rsp
	.cfi_def_cfa_offset 8
	retq
.Lfunc_end10:
	.size	_ZN109_$LT$alloc..vec..Vec$LT$T$GT$$u20$as$u20$alloc..vec..SpecExtend$LT$$RF$T$C$core..slice..Iter$LT$T$GT$$GT$$GT$11spec_extend17hb85c7b77fafe4003E, .Lfunc_end10-_ZN109_$LT$alloc..vec..Vec$LT$T$GT$$u20$as$u20$alloc..vec..SpecExtend$LT$$RF$T$C$core..slice..Iter$LT$T$GT$$GT$$GT$11spec_extend17hb85c7b77fafe4003E
	.cfi_endproc

	.section	".text._ZN110_$LT$core..ops..range..RangeToInclusive$LT$usize$GT$$u20$as$u20$core..slice..SliceIndex$LT$$u5b$T$u5d$$GT$$GT$5index17h8a2895c165f83406E","ax",@progbits
	.p2align	4, 0x90
	.type	_ZN110_$LT$core..ops..range..RangeToInclusive$LT$usize$GT$$u20$as$u20$core..slice..SliceIndex$LT$$u5b$T$u5d$$GT$$GT$5index17h8a2895c165f83406E,@function
_ZN110_$LT$core..ops..range..RangeToInclusive$LT$usize$GT$$u20$as$u20$core..slice..SliceIndex$LT$$u5b$T$u5d$$GT$$GT$5index17h8a2895c165f83406E:
	.cfi_startproc
	subq	$72, %rsp
	.cfi_def_cfa_offset 80
	xorl	%eax, %eax
	movl	%eax, %ecx
	leaq	48(%rsp), %r8
	movq	%rdi, 40(%rsp)
	movq	%r8, %rdi
	movq	%rsi, 32(%rsp)
	movq	%rcx, %rsi
	movq	40(%rsp), %rcx
	movq	%rdx, 24(%rsp)
	movq	%rcx, %rdx
	callq	_ZN4core3ops5range25RangeInclusive$LT$Idx$GT$3new17h5eff3040b4fbc566E
	leaq	48(%rsp), %rdi
	movq	32(%rsp), %rsi
	movq	24(%rsp), %rdx
	callq	_ZN108_$LT$core..ops..range..RangeInclusive$LT$usize$GT$$u20$as$u20$core..slice..SliceIndex$LT$$u5b$T$u5d$$GT$$GT$5index17h997707a779265761E
	movq	%rax, 16(%rsp)
	movq	%rdx, 8(%rsp)
	movq	16(%rsp), %rax
	movq	8(%rsp), %rdx
	addq	$72, %rsp
	.cfi_def_cfa_offset 8
	retq
.Lfunc_end11:
	.size	_ZN110_$LT$core..ops..range..RangeToInclusive$LT$usize$GT$$u20$as$u20$core..slice..SliceIndex$LT$$u5b$T$u5d$$GT$$GT$5index17h8a2895c165f83406E, .Lfunc_end11-_ZN110_$LT$core..ops..range..RangeToInclusive$LT$usize$GT$$u20$as$u20$core..slice..SliceIndex$LT$$u5b$T$u5d$$GT$$GT$5index17h8a2895c165f83406E
	.cfi_endproc

	.section	".text._ZN36_$LT$T$u20$as$u20$core..any..Any$GT$7type_id17h5a19295821b6a5eeE","ax",@progbits
	.p2align	4, 0x90
	.type	_ZN36_$LT$T$u20$as$u20$core..any..Any$GT$7type_id17h5a19295821b6a5eeE,@function
_ZN36_$LT$T$u20$as$u20$core..any..Any$GT$7type_id17h5a19295821b6a5eeE:
	.cfi_startproc
	subq	$24, %rsp
	.cfi_def_cfa_offset 32
	movq	%rdi, 16(%rsp)
	callq	_ZN4core3any6TypeId2of17h302339bb857f123bE
	movq	%rax, 8(%rsp)
	movq	8(%rsp), %rax
	addq	$24, %rsp
	.cfi_def_cfa_offset 8
	retq
.Lfunc_end12:
	.size	_ZN36_$LT$T$u20$as$u20$core..any..Any$GT$7type_id17h5a19295821b6a5eeE, .Lfunc_end12-_ZN36_$LT$T$u20$as$u20$core..any..Any$GT$7type_id17h5a19295821b6a5eeE
	.cfi_endproc

	.section	".text._ZN36_$LT$T$u20$as$u20$core..any..Any$GT$7type_id17h9dcc0a35da4df93dE","ax",@progbits
	.p2align	4, 0x90
	.type	_ZN36_$LT$T$u20$as$u20$core..any..Any$GT$7type_id17h9dcc0a35da4df93dE,@function
_ZN36_$LT$T$u20$as$u20$core..any..Any$GT$7type_id17h9dcc0a35da4df93dE:
	.cfi_startproc
	subq	$24, %rsp
	.cfi_def_cfa_offset 32
	movq	%rdi, 16(%rsp)
	callq	_ZN4core3any6TypeId2of17ha33c34132dfab004E
	movq	%rax, 8(%rsp)
	movq	8(%rsp), %rax
	addq	$24, %rsp
	.cfi_def_cfa_offset 8
	retq
.Lfunc_end13:
	.size	_ZN36_$LT$T$u20$as$u20$core..any..Any$GT$7type_id17h9dcc0a35da4df93dE, .Lfunc_end13-_ZN36_$LT$T$u20$as$u20$core..any..Any$GT$7type_id17h9dcc0a35da4df93dE
	.cfi_endproc

	.section	.text._ZN3std2fs11OpenOptions4open17hc93f529ccf9f9cdfE,"ax",@progbits
	.p2align	4, 0x90
	.type	_ZN3std2fs11OpenOptions4open17hc93f529ccf9f9cdfE,@function
_ZN3std2fs11OpenOptions4open17hc93f529ccf9f9cdfE:
.Lfunc_begin0:
	.cfi_startproc
	.cfi_personality 155, DW.ref.rust_eh_personality
	.cfi_lsda 27, .Lexception0
	subq	$72, %rsp
	.cfi_def_cfa_offset 80
	movq	%rdi, %rax
	movq	%rdx, 40(%rsp)
	movq	%rcx, 48(%rsp)
.Ltmp0:
	leaq	40(%rsp), %rcx
	movq	%rdi, 32(%rsp)
	movq	%rcx, %rdi
	movq	%rax, 24(%rsp)
	movq	%rsi, 16(%rsp)
	callq	_ZN55_$LT$$RF$T$u20$as$u20$core..convert..AsRef$LT$U$GT$$GT$6as_ref17h8f919fdacbd1a827E
.Ltmp1:
	movq	%rdx, 8(%rsp)
	movq	%rax, (%rsp)
	jmp	.LBB14_2
.LBB14_1:
	movq	56(%rsp), %rdi
	callq	_Unwind_Resume@PLT
	ud2
.LBB14_2:
.Ltmp2:
	movq	_ZN3std2fs11OpenOptions5_open17h65996290dbdd0304E@GOTPCREL(%rip), %rax
	movq	32(%rsp), %rdi
	movq	16(%rsp), %rsi
	movq	(%rsp), %rdx
	movq	8(%rsp), %rcx
	callq	*%rax
.Ltmp3:
	jmp	.LBB14_4
.LBB14_3:
	jmp	.LBB14_1
.LBB14_4:
	jmp	.LBB14_5
.LBB14_5:
	movq	24(%rsp), %rax
	addq	$72, %rsp
	.cfi_def_cfa_offset 8
	retq
.LBB14_6:
	.cfi_def_cfa_offset 80
.Ltmp4:
	movl	%edx, %ecx
	movq	%rax, 56(%rsp)
	movl	%ecx, 64(%rsp)
	jmp	.LBB14_3
.Lfunc_end14:
	.size	_ZN3std2fs11OpenOptions4open17hc93f529ccf9f9cdfE, .Lfunc_end14-_ZN3std2fs11OpenOptions4open17hc93f529ccf9f9cdfE
	.cfi_endproc
	.section	.gcc_except_table,"a",@progbits
	.p2align	2
GCC_except_table14:
.Lexception0:
	.byte	255
	.byte	255
	.byte	1
	.uleb128 .Lcst_end0-.Lcst_begin0
.Lcst_begin0:
	.uleb128 .Ltmp0-.Lfunc_begin0
	.uleb128 .Ltmp1-.Ltmp0
	.uleb128 .Ltmp4-.Lfunc_begin0
	.byte	0
	.uleb128 .Ltmp1-.Lfunc_begin0
	.uleb128 .Ltmp2-.Ltmp1
	.byte	0
	.byte	0
	.uleb128 .Ltmp2-.Lfunc_begin0
	.uleb128 .Ltmp3-.Ltmp2
	.uleb128 .Ltmp4-.Lfunc_begin0
	.byte	0
.Lcst_end0:
	.p2align	2

	.section	.text._ZN3std2fs4File4open17h6d437a006f2c1e5aE,"ax",@progbits
	.p2align	4, 0x90
	.type	_ZN3std2fs4File4open17h6d437a006f2c1e5aE,@function
_ZN3std2fs4File4open17h6d437a006f2c1e5aE:
.Lfunc_begin1:
	.cfi_startproc
	.cfi_personality 155, DW.ref.rust_eh_personality
	.cfi_lsda 27, .Lexception1
	subq	$88, %rsp
	.cfi_def_cfa_offset 96
	movq	%rdi, %rax
	movq	%rsi, 48(%rsp)
.Ltmp5:
	movq	_ZN3std2fs11OpenOptions3new17hbba6b28e76992d75E@GOTPCREL(%rip), %rsi
	leaq	56(%rsp), %rcx
	movq	%rdi, 40(%rsp)
	movq	%rcx, %rdi
	movq	%rax, 32(%rsp)
	callq	*%rsi
.Ltmp6:
	jmp	.LBB15_2
.LBB15_1:
	movq	72(%rsp), %rdi
	callq	_Unwind_Resume@PLT
	ud2
.LBB15_2:
.Ltmp7:
	movq	_ZN3std2fs11OpenOptions4read17h401e9f795c3884e9E@GOTPCREL(%rip), %rax
	leaq	56(%rsp), %rdi
	movl	$1, %esi
	callq	*%rax
.Ltmp8:
	movq	%rax, 24(%rsp)
	jmp	.LBB15_4
.LBB15_3:
	jmp	.LBB15_1
.LBB15_4:
.Ltmp9:
	leaq	48(%rsp), %rdi
	callq	_ZN55_$LT$$RF$T$u20$as$u20$core..convert..AsRef$LT$U$GT$$GT$6as_ref17h9a9dd7c95ceee6a4E
.Ltmp10:
	movq	%rdx, 16(%rsp)
	movq	%rax, 8(%rsp)
	jmp	.LBB15_5
.LBB15_5:
.Ltmp11:
	movq	40(%rsp), %rdi
	movq	24(%rsp), %rsi
	movq	8(%rsp), %rdx
	movq	16(%rsp), %rcx
	callq	_ZN3std2fs11OpenOptions4open17hc93f529ccf9f9cdfE
.Ltmp12:
	jmp	.LBB15_6
.LBB15_6:
	jmp	.LBB15_7
.LBB15_7:
	movq	32(%rsp), %rax
	addq	$88, %rsp
	.cfi_def_cfa_offset 8
	retq
.LBB15_8:
	.cfi_def_cfa_offset 96
.Ltmp13:
	movl	%edx, %ecx
	movq	%rax, 72(%rsp)
	movl	%ecx, 80(%rsp)
	jmp	.LBB15_3
.Lfunc_end15:
	.size	_ZN3std2fs4File4open17h6d437a006f2c1e5aE, .Lfunc_end15-_ZN3std2fs4File4open17h6d437a006f2c1e5aE
	.cfi_endproc
	.section	.gcc_except_table,"a",@progbits
	.p2align	2
GCC_except_table15:
.Lexception1:
	.byte	255
	.byte	255
	.byte	1
	.uleb128 .Lcst_end1-.Lcst_begin1
.Lcst_begin1:
	.uleb128 .Ltmp5-.Lfunc_begin1
	.uleb128 .Ltmp6-.Ltmp5
	.uleb128 .Ltmp13-.Lfunc_begin1
	.byte	0
	.uleb128 .Ltmp6-.Lfunc_begin1
	.uleb128 .Ltmp7-.Ltmp6
	.byte	0
	.byte	0
	.uleb128 .Ltmp7-.Lfunc_begin1
	.uleb128 .Ltmp12-.Ltmp7
	.uleb128 .Ltmp13-.Lfunc_begin1
	.byte	0
.Lcst_end1:
	.p2align	2

	.section	.text._ZN3std2io10read_until17h472b46f7df9cea60E,"ax",@progbits
	.p2align	4, 0x90
	.type	_ZN3std2io10read_until17h472b46f7df9cea60E,@function
_ZN3std2io10read_until17h472b46f7df9cea60E:
.Lfunc_begin2:
	.cfi_startproc
	.cfi_personality 155, DW.ref.rust_eh_personality
	.cfi_lsda 27, .Lexception2
	subq	$296, %rsp
	.cfi_def_cfa_offset 304
	movb	%dl, %al
	movq	%rdi, %r8
	movq	$0, 152(%rsp)
	movb	%al, 151(%rsp)
	movq	%r8, 136(%rsp)
	movq	%rcx, 128(%rsp)
	movq	%rsi, 120(%rsp)
	movq	%rdi, 112(%rsp)
	jmp	.LBB16_2
.LBB16_1:
	movq	280(%rsp), %rdi
	callq	_Unwind_Resume@PLT
	ud2
.LBB16_2:
	leaq	176(%rsp), %rdi
	movq	120(%rsp), %rsi
	callq	_ZN74_$LT$std..io..buffered..BufReader$LT$R$GT$$u20$as$u20$std..io..BufRead$GT$8fill_buf17hd75ac46b593c6f92E
	movq	176(%rsp), %rax
	testq	%rax, %rax
	movq	%rax, 104(%rsp)
	je	.LBB16_6
	jmp	.LBB16_32
.LBB16_32:
	movq	104(%rsp), %rax
	subq	$1, %rax
	movq	%rax, 96(%rsp)
	je	.LBB16_8
	jmp	.LBB16_5
.LBB16_4:
	movq	184(%rsp), %rax
	movq	%rax, 216(%rsp)
	movq	192(%rsp), %rax
	movq	%rax, 224(%rsp)
	movq	216(%rsp), %rax
	movq	%rax, 232(%rsp)
	movq	224(%rsp), %rax
	movq	%rax, 240(%rsp)
	movq	232(%rsp), %rax
	movq	112(%rsp), %rcx
	movq	%rax, 8(%rcx)
	movq	240(%rsp), %rax
	movq	%rax, 16(%rcx)
	movq	$1, (%rcx)
	cmpq	$1, 176(%rsp)
	je	.LBB16_29
	jmp	.LBB16_30
.LBB16_5:
	ud2
.LBB16_6:
	movq	184(%rsp), %rax
	movq	192(%rsp), %rcx
	leaq	176(%rsp), %rdi
	movq	%rax, 88(%rsp)
	movq	%rcx, 80(%rsp)
	callq	_ZN4core3ptr18real_drop_in_place17h195fb2a9f44cf582E
	jmp	.LBB16_14
.LBB16_7:
	leaq	176(%rsp), %rdi
	callq	_ZN4core3ptr18real_drop_in_place17h195fb2a9f44cf582E
	jmp	.LBB16_12
.LBB16_8:
	leaq	184(%rsp), %rax
	movq	%rax, 200(%rsp)
	movq	200(%rsp), %rdi
.Ltmp14:
	movq	_ZN3std2io5error5Error4kind17hd7469582a743f280E@GOTPCREL(%rip), %rax
	callq	*%rax
.Ltmp15:
	movb	%al, 79(%rsp)
	jmp	.LBB16_9
.LBB16_9:
	movb	79(%rsp), %al
	movb	%al, 215(%rsp)
.Ltmp16:
	leaq	.L__unnamed_1(%rip), %rsi
	leaq	215(%rsp), %rdi
	callq	_ZN66_$LT$std..io..error..ErrorKind$u20$as$u20$core..cmp..PartialEq$GT$2eq17h82255b684a237d85E
.Ltmp17:
	movb	%al, 78(%rsp)
	jmp	.LBB16_11
.LBB16_10:
	leaq	176(%rsp), %rdi
	callq	_ZN4core3ptr18real_drop_in_place17h195fb2a9f44cf582E
	jmp	.LBB16_1
.LBB16_11:
	movb	78(%rsp), %al
	testb	$1, %al
	jne	.LBB16_7
	jmp	.LBB16_4
.LBB16_12:
	jmp	.LBB16_2
.LBB16_13:
	movq	136(%rsp), %rax
	addq	$296, %rsp
	.cfi_def_cfa_offset 8
	retq
.LBB16_14:
	.cfi_def_cfa_offset 304
	movb	151(%rsp), %al
	movzbl	%al, %edi
	movq	88(%rsp), %rsi
	movq	80(%rsp), %rdx
	callq	_ZN3std6memchr6memchr17h3239efdc91a30e91E
	movq	%rdx, 256(%rsp)
	movq	%rax, 248(%rsp)
	movq	248(%rsp), %rax
	testq	%rax, %rax
	movq	%rax, 64(%rsp)
	je	.LBB16_19
	jmp	.LBB16_33
.LBB16_33:
	movq	64(%rsp), %rax
	subq	$1, %rax
	movq	%rax, 56(%rsp)
	jne	.LBB16_5
	jmp	.LBB16_16
.LBB16_16:
	movq	256(%rsp), %rax
	movq	%rax, 264(%rsp)
	movq	264(%rsp), %rdx
	movq	88(%rsp), %rdi
	movq	80(%rsp), %rsi
	movq	%rax, 48(%rsp)
	callq	_ZN4core5slice74_$LT$impl$u20$core..ops..index..Index$LT$I$GT$$u20$for$u20$$u5b$T$u5d$$GT$5index17h633111c86077452eE
	movq	%rax, 40(%rsp)
	movq	%rdx, 32(%rsp)
	movq	128(%rsp), %rdi
	movq	40(%rsp), %rsi
	movq	32(%rsp), %rdx
	callq	_ZN5alloc3vec12Vec$LT$T$GT$17extend_from_slice17h06dcb4bb1d883cf1E
	movq	48(%rsp), %rax
	addq	$1, %rax
	movb	$1, 160(%rsp)
	movq	%rax, 168(%rsp)
	jmp	.LBB16_22
.LBB16_19:
	movq	128(%rsp), %rdi
	movq	88(%rsp), %rsi
	movq	80(%rsp), %rdx
	callq	_ZN5alloc3vec12Vec$LT$T$GT$17extend_from_slice17h06dcb4bb1d883cf1E
	movq	88(%rsp), %rdi
	movq	80(%rsp), %rsi
	callq	_ZN4core5slice29_$LT$impl$u20$$u5b$T$u5d$$GT$3len17h4ded11694fc2c466E
	movq	%rax, 24(%rsp)
	movb	$0, 160(%rsp)
	movq	24(%rsp), %rax
	movq	%rax, 168(%rsp)
.LBB16_22:
	movb	160(%rsp), %al
	movq	168(%rsp), %rcx
	movq	120(%rsp), %rdi
	movq	%rcx, %rsi
	movb	%al, 23(%rsp)
	movq	%rcx, 8(%rsp)
	callq	_ZN74_$LT$std..io..buffered..BufReader$LT$R$GT$$u20$as$u20$std..io..BufRead$GT$7consume17h905a27729d6c3c2fE
	movq	8(%rsp), %rax
	addq	152(%rsp), %rax
	movq	%rax, 152(%rsp)
	movb	23(%rsp), %cl
	testb	$1, %cl
	jne	.LBB16_24
	jmp	.LBB16_25
.LBB16_24:
	movb	$1, 279(%rsp)
	jmp	.LBB16_26
.LBB16_25:
	movq	8(%rsp), %rax
	cmpq	$0, %rax
	sete	%cl
	andb	$1, %cl
	movb	%cl, 279(%rsp)
.LBB16_26:
	testb	$1, 279(%rsp)
	je	.LBB16_28
	movq	152(%rsp), %rax
	movq	112(%rsp), %rcx
	movq	%rax, 8(%rcx)
	movq	$0, (%rcx)
	jmp	.LBB16_13
.LBB16_28:
	jmp	.LBB16_2
.LBB16_29:
	jmp	.LBB16_13
.LBB16_30:
	leaq	176(%rsp), %rdi
	callq	_ZN4core3ptr18real_drop_in_place17h195fb2a9f44cf582E
	jmp	.LBB16_29
.LBB16_31:
.Ltmp18:
	movl	%edx, %ecx
	movq	%rax, 280(%rsp)
	movl	%ecx, 288(%rsp)
	jmp	.LBB16_10
.Lfunc_end16:
	.size	_ZN3std2io10read_until17h472b46f7df9cea60E, .Lfunc_end16-_ZN3std2io10read_until17h472b46f7df9cea60E
	.cfi_endproc
	.section	.gcc_except_table,"a",@progbits
	.p2align	2
GCC_except_table16:
.Lexception2:
	.byte	255
	.byte	255
	.byte	1
	.uleb128 .Lcst_end2-.Lcst_begin2
.Lcst_begin2:
	.uleb128 .Lfunc_begin2-.Lfunc_begin2
	.uleb128 .Ltmp14-.Lfunc_begin2
	.byte	0
	.byte	0
	.uleb128 .Ltmp14-.Lfunc_begin2
	.uleb128 .Ltmp17-.Ltmp14
	.uleb128 .Ltmp18-.Lfunc_begin2
	.byte	0
	.uleb128 .Ltmp17-.Lfunc_begin2
	.uleb128 .Lfunc_end16-.Ltmp17
	.byte	0
	.byte	0
.Lcst_end2:
	.p2align	2

	.section	.text._ZN3std2io11Initializer10initialize17h27bb4949aa91ec61E,"ax",@progbits
	.p2align	4, 0x90
	.type	_ZN3std2io11Initializer10initialize17h27bb4949aa91ec61E,@function
_ZN3std2io11Initializer10initialize17h27bb4949aa91ec61E:
	.cfi_startproc
	subq	$40, %rsp
	.cfi_def_cfa_offset 48
	movq	%rsi, 32(%rsp)
	movq	%rdx, 24(%rsp)
	callq	_ZN3std2io11Initializer17should_initialize17ha4c455633fbaf18cE
	movb	%al, 23(%rsp)
	movb	23(%rsp), %al
	testb	$1, %al
	jne	.LBB17_2
	jmp	.LBB17_6
.LBB17_2:
	movq	32(%rsp), %rdi
	movq	24(%rsp), %rsi
	callq	_ZN4core5slice29_$LT$impl$u20$$u5b$T$u5d$$GT$10as_mut_ptr17hf9735092727bee5cE
	movq	%rax, 8(%rsp)
	movq	32(%rsp), %rdi
	movq	24(%rsp), %rsi
	callq	_ZN4core5slice29_$LT$impl$u20$$u5b$T$u5d$$GT$3len17h4ded11694fc2c466E
	movq	%rax, (%rsp)
	xorl	%esi, %esi
	movq	8(%rsp), %rdi
	movq	(%rsp), %rdx
	callq	_ZN4core10intrinsics11write_bytes17hb764dd49b2973f94E
	jmp	.LBB17_6
.LBB17_6:
	addq	$40, %rsp
	.cfi_def_cfa_offset 8
	retq
.Lfunc_end17:
	.size	_ZN3std2io11Initializer10initialize17h27bb4949aa91ec61E, .Lfunc_end17-_ZN3std2io11Initializer10initialize17h27bb4949aa91ec61E
	.cfi_endproc

	.section	.text._ZN3std2io11Initializer17should_initialize17ha4c455633fbaf18cE,"ax",@progbits
	.p2align	4, 0x90
	.type	_ZN3std2io11Initializer17should_initialize17ha4c455633fbaf18cE,@function
_ZN3std2io11Initializer17should_initialize17ha4c455633fbaf18cE:
	.cfi_startproc
	movb	(%rdi), %al
	andb	$1, %al
	movzbl	%al, %eax
	retq
.Lfunc_end18:
	.size	_ZN3std2io11Initializer17should_initialize17ha4c455633fbaf18cE, .Lfunc_end18-_ZN3std2io11Initializer17should_initialize17ha4c455633fbaf18cE
	.cfi_endproc

	.section	.text._ZN3std2io11Initializer3nop17he6431239b6e57f5dE,"ax",@progbits
	.p2align	4, 0x90
	.type	_ZN3std2io11Initializer3nop17he6431239b6e57f5dE,@function
_ZN3std2io11Initializer3nop17he6431239b6e57f5dE:
	.cfi_startproc
	subq	$1, %rsp
	.cfi_def_cfa_offset 9
	movb	$0, (%rsp)
	movb	(%rsp), %al
	andb	$1, %al
	movzbl	%al, %eax
	addq	$1, %rsp
	.cfi_def_cfa_offset 8
	retq
.Lfunc_end19:
	.size	_ZN3std2io11Initializer3nop17he6431239b6e57f5dE, .Lfunc_end19-_ZN3std2io11Initializer3nop17he6431239b6e57f5dE
	.cfi_endproc

	.section	.text._ZN3std2io16append_to_string17h22d0f02be3bf861eE,"ax",@progbits
	.p2align	4, 0x90
	.type	_ZN3std2io16append_to_string17h22d0f02be3bf861eE,@function
_ZN3std2io16append_to_string17h22d0f02be3bf861eE:
.Lfunc_begin3:
	.cfi_startproc
	.cfi_personality 155, DW.ref.rust_eh_personality
	.cfi_lsda 27, .Lexception3
	subq	$216, %rsp
	.cfi_def_cfa_offset 224
	movq	%rdi, %rax
	movb	$0, 199(%rsp)
	movb	$0, 198(%rsp)
	movb	$1, 198(%rsp)
.Ltmp19:
	movq	%rdi, 72(%rsp)
	movq	%rsi, %rdi
	movq	%rax, 64(%rsp)
	movq	%rdx, 56(%rsp)
	movq	%rsi, 48(%rsp)
	callq	_ZN5alloc6string6String3len17h30b3c12cd9db7626E
.Ltmp20:
	movq	%rax, 40(%rsp)
	jmp	.LBB20_2
.LBB20_1:
	movq	200(%rsp), %rdi
	callq	_Unwind_Resume@PLT
	ud2
.LBB20_2:
.Ltmp21:
	movq	48(%rsp), %rdi
	callq	_ZN5alloc6string6String10as_mut_vec17h8c49959ebd481fe9E
.Ltmp22:
	movq	%rax, 32(%rsp)
	jmp	.LBB20_3
.LBB20_3:
	movq	32(%rsp), %rax
	movq	%rax, 80(%rsp)
	movq	40(%rsp), %rcx
	movq	%rcx, 88(%rsp)
	movb	$0, 198(%rsp)
	movq	80(%rsp), %rdx
	movq	%rdx, 120(%rsp)
	movq	120(%rsp), %rdx
.Ltmp23:
	leaq	96(%rsp), %rdi
	movq	56(%rsp), %rsi
	callq	_ZN3std2io7BufRead9read_line28_$u7b$$u7b$closure$u7d$$u7d$17h89cea78304e2159dE
.Ltmp24:
	jmp	.LBB20_4
.LBB20_4:
	movb	$1, 199(%rsp)
	movq	80(%rsp), %rdi
	movq	88(%rsp), %rax
	movq	%rax, 152(%rsp)
	movq	152(%rsp), %rsi
.Ltmp26:
	callq	_ZN77_$LT$alloc..vec..Vec$LT$T$GT$$u20$as$u20$core..ops..index..Index$LT$I$GT$$GT$5index17hcd1d0c137bdc9c74E
.Ltmp27:
	movq	%rdx, 24(%rsp)
	movq	%rax, 16(%rsp)
	jmp	.LBB20_6
.LBB20_5:
	leaq	80(%rsp), %rdi
	callq	_ZN4core3ptr18real_drop_in_place17h4f228827eac40069E
	jmp	.LBB20_16
.LBB20_6:
.Ltmp28:
	movq	_ZN4core3str9from_utf817h9b0af2ab335bed95E@GOTPCREL(%rip), %rax
	leaq	128(%rsp), %rdi
	movq	16(%rsp), %rsi
	movq	24(%rsp), %rdx
	callq	*%rax
.Ltmp29:
	jmp	.LBB20_7
.LBB20_7:
.Ltmp30:
	leaq	128(%rsp), %rdi
	callq	_ZN4core6result19Result$LT$T$C$E$GT$6is_err17h761e7daf96878ea2E
.Ltmp31:
	movb	%al, 15(%rsp)
	jmp	.LBB20_8
.LBB20_8:
	movb	15(%rsp), %al
	testb	$1, %al
	jne	.LBB20_9
	jmp	.LBB20_11
.LBB20_9:
	movb	$0, 199(%rsp)
	movq	112(%rsp), %rax
	movq	%rax, 176(%rsp)
	movups	96(%rsp), %xmm0
	movaps	%xmm0, 160(%rsp)
.Ltmp34:
	leaq	160(%rsp), %rsi
	movq	72(%rsp), %rdi
	callq	_ZN4core6result19Result$LT$T$C$E$GT$8and_then17h9c78142add739e8bE
.Ltmp35:
	jmp	.LBB20_10
.LBB20_10:
	jmp	.LBB20_13
.LBB20_11:
	movq	80(%rsp), %rdi
.Ltmp32:
	callq	_ZN5alloc3vec12Vec$LT$T$GT$3len17h751dc25b11efb097E
.Ltmp33:
	movq	%rax, (%rsp)
	jmp	.LBB20_12
.LBB20_12:
	movq	(%rsp), %rax
	movq	%rax, 88(%rsp)
	movb	$0, 199(%rsp)
	movq	96(%rsp), %rcx
	movq	72(%rsp), %rdx
	movq	%rcx, (%rdx)
	movq	104(%rsp), %rcx
	movq	%rcx, 8(%rdx)
	movq	112(%rsp), %rcx
	movq	%rcx, 16(%rdx)
.LBB20_13:
	movb	$0, 199(%rsp)
.Ltmp37:
	leaq	80(%rsp), %rdi
	callq	_ZN4core3ptr18real_drop_in_place17h4f228827eac40069E
.Ltmp38:
	jmp	.LBB20_14
.LBB20_14:
	movq	64(%rsp), %rax
	addq	$216, %rsp
	.cfi_def_cfa_offset 8
	retq
.LBB20_15:
	.cfi_def_cfa_offset 224
	movb	$0, 198(%rsp)
	jmp	.LBB20_1
.LBB20_16:
	testb	$1, 198(%rsp)
	jne	.LBB20_15
	jmp	.LBB20_1
.LBB20_17:
	movb	$0, 199(%rsp)
	leaq	96(%rsp), %rdi
	callq	_ZN4core3ptr18real_drop_in_place17hf0f022be7980d53aE
	jmp	.LBB20_5
.LBB20_18:
	testb	$1, 199(%rsp)
	jne	.LBB20_17
	jmp	.LBB20_5
.LBB20_19:
.Ltmp39:
	movl	%edx, %ecx
	movq	%rax, 200(%rsp)
	movl	%ecx, 208(%rsp)
	jmp	.LBB20_16
.LBB20_20:
.Ltmp25:
	movl	%edx, %ecx
	movq	%rax, 200(%rsp)
	movl	%ecx, 208(%rsp)
	jmp	.LBB20_5
.LBB20_21:
.Ltmp36:
	movl	%edx, %ecx
	movq	%rax, 200(%rsp)
	movl	%ecx, 208(%rsp)
	jmp	.LBB20_18
.Lfunc_end20:
	.size	_ZN3std2io16append_to_string17h22d0f02be3bf861eE, .Lfunc_end20-_ZN3std2io16append_to_string17h22d0f02be3bf861eE
	.cfi_endproc
	.section	.gcc_except_table,"a",@progbits
	.p2align	2
GCC_except_table20:
.Lexception3:
	.byte	255
	.byte	255
	.byte	1
	.uleb128 .Lcst_end3-.Lcst_begin3
.Lcst_begin3:
	.uleb128 .Ltmp19-.Lfunc_begin3
	.uleb128 .Ltmp20-.Ltmp19
	.uleb128 .Ltmp39-.Lfunc_begin3
	.byte	0
	.uleb128 .Ltmp20-.Lfunc_begin3
	.uleb128 .Ltmp21-.Ltmp20
	.byte	0
	.byte	0
	.uleb128 .Ltmp21-.Lfunc_begin3
	.uleb128 .Ltmp22-.Ltmp21
	.uleb128 .Ltmp39-.Lfunc_begin3
	.byte	0
	.uleb128 .Ltmp23-.Lfunc_begin3
	.uleb128 .Ltmp24-.Ltmp23
	.uleb128 .Ltmp25-.Lfunc_begin3
	.byte	0
	.uleb128 .Ltmp26-.Lfunc_begin3
	.uleb128 .Ltmp27-.Ltmp26
	.uleb128 .Ltmp36-.Lfunc_begin3
	.byte	0
	.uleb128 .Ltmp27-.Lfunc_begin3
	.uleb128 .Ltmp28-.Ltmp27
	.byte	0
	.byte	0
	.uleb128 .Ltmp28-.Lfunc_begin3
	.uleb128 .Ltmp33-.Ltmp28
	.uleb128 .Ltmp36-.Lfunc_begin3
	.byte	0
	.uleb128 .Ltmp37-.Lfunc_begin3
	.uleb128 .Ltmp38-.Ltmp37
	.uleb128 .Ltmp39-.Lfunc_begin3
	.byte	0
	.uleb128 .Ltmp38-.Lfunc_begin3
	.uleb128 .Lfunc_end20-.Ltmp38
	.byte	0
	.byte	0
.Lcst_end3:
	.p2align	2

	.section	".text._ZN3std2io16append_to_string28_$u7b$$u7b$closure$u7d$$u7d$17h9044c851117bb364E","ax",@progbits
	.p2align	4, 0x90
	.type	_ZN3std2io16append_to_string28_$u7b$$u7b$closure$u7d$$u7d$17h9044c851117bb364E,@function
_ZN3std2io16append_to_string28_$u7b$$u7b$closure$u7d$$u7d$17h9044c851117bb364E:
	.cfi_startproc
	subq	$40, %rsp
	.cfi_def_cfa_offset 48
	movq	%rdi, %rax
	leaq	.L__unnamed_2(%rip), %rcx
	movb	$12, 39(%rsp)
	leaq	16(%rsp), %rdx
	movq	%rdi, 8(%rsp)
	movq	%rdx, %rdi
	movzbl	39(%rsp), %esi
	movq	%rcx, %rdx
	movl	$34, %ecx
	movq	%rax, (%rsp)
	callq	_ZN3std2io5error5Error3new17hbbdbd389fede3bdeE
	movq	16(%rsp), %rax
	movq	8(%rsp), %rcx
	movq	%rax, 8(%rcx)
	movq	24(%rsp), %rax
	movq	%rax, 16(%rcx)
	movq	$1, (%rcx)
	movq	(%rsp), %rax
	addq	$40, %rsp
	.cfi_def_cfa_offset 8
	retq
.Lfunc_end21:
	.size	_ZN3std2io16append_to_string28_$u7b$$u7b$closure$u7d$$u7d$17h9044c851117bb364E, .Lfunc_end21-_ZN3std2io16append_to_string28_$u7b$$u7b$closure$u7d$$u7d$17h9044c851117bb364E
	.cfi_endproc

	.section	.text._ZN3std2io5error5Error3new17hbbdbd389fede3bdeE,"ax",@progbits
	.p2align	4, 0x90
	.type	_ZN3std2io5error5Error3new17hbbdbd389fede3bdeE,@function
_ZN3std2io5error5Error3new17hbbdbd389fede3bdeE:
	.cfi_startproc
	subq	$40, %rsp
	.cfi_def_cfa_offset 48
	movb	%sil, %al
	movq	%rdi, %r8
	movq	%rdi, 32(%rsp)
	movq	%rdx, %rdi
	movq	%rcx, %rsi
	movb	%al, 31(%rsp)
	movq	%r8, 16(%rsp)
	callq	_ZN50_$LT$T$u20$as$u20$core..convert..Into$LT$U$GT$$GT$4into17h17142035c17afe91E
	movq	%rax, 8(%rsp)
	movq	%rdx, (%rsp)
	movq	32(%rsp), %rdi
	movb	31(%rsp), %al
	movzbl	%al, %esi
	movq	8(%rsp), %rdx
	movq	(%rsp), %rcx
	callq	*_ZN3std2io5error5Error4_new17h561ec74ed0654576E@GOTPCREL(%rip)
	movq	16(%rsp), %rax
	addq	$40, %rsp
	.cfi_def_cfa_offset 8
	retq
.Lfunc_end22:
	.size	_ZN3std2io5error5Error3new17hbbdbd389fede3bdeE, .Lfunc_end22-_ZN3std2io5error5Error3new17hbbdbd389fede3bdeE
	.cfi_endproc

	.section	.text._ZN3std2io7BufRead5lines17hc8ae994ffde8a588E,"ax",@progbits
	.p2align	4, 0x90
	.type	_ZN3std2io7BufRead5lines17hc8ae994ffde8a588E,@function
_ZN3std2io7BufRead5lines17hc8ae994ffde8a588E:
	.cfi_startproc
	subq	$72, %rsp
	.cfi_def_cfa_offset 80
	movq	%rdi, %rax
	leaq	32(%rsp), %rcx
	movq	%rcx, %rdx
	movq	%rdi, 24(%rsp)
	movq	%rdx, %rdi
	movl	$40, %edx
	movq	%rdx, 16(%rsp)
	movq	%rax, 8(%rsp)
	movq	%rcx, (%rsp)
	callq	memcpy@PLT
	movq	24(%rsp), %rax
	movq	(%rsp), %rcx
	movq	%rax, %rdi
	movq	%rcx, %rsi
	movq	16(%rsp), %rdx
	callq	memcpy@PLT
	movq	8(%rsp), %rax
	addq	$72, %rsp
	.cfi_def_cfa_offset 8
	retq
.Lfunc_end23:
	.size	_ZN3std2io7BufRead5lines17hc8ae994ffde8a588E, .Lfunc_end23-_ZN3std2io7BufRead5lines17hc8ae994ffde8a588E
	.cfi_endproc

	.section	.text._ZN3std2io7BufRead9read_line17ha5d30085a5bbb0e8E,"ax",@progbits
	.p2align	4, 0x90
	.type	_ZN3std2io7BufRead9read_line17ha5d30085a5bbb0e8E,@function
_ZN3std2io7BufRead9read_line17ha5d30085a5bbb0e8E:
	.cfi_startproc
	subq	$40, %rsp
	.cfi_def_cfa_offset 48
	movq	%rdi, %rax
	movq	%rsi, 24(%rsp)
	leaq	24(%rsp), %rsi
	movq	%rsi, 32(%rsp)
	movq	32(%rsp), %rsi
	movq	%rsi, 16(%rsp)
	movq	%rdx, %rsi
	movq	16(%rsp), %rdx
	movq	%rax, 8(%rsp)
	callq	_ZN3std2io16append_to_string17h22d0f02be3bf861eE
	movq	8(%rsp), %rax
	addq	$40, %rsp
	.cfi_def_cfa_offset 8
	retq
.Lfunc_end24:
	.size	_ZN3std2io7BufRead9read_line17ha5d30085a5bbb0e8E, .Lfunc_end24-_ZN3std2io7BufRead9read_line17ha5d30085a5bbb0e8E
	.cfi_endproc

	.section	".text._ZN3std2io7BufRead9read_line28_$u7b$$u7b$closure$u7d$$u7d$17h89cea78304e2159dE","ax",@progbits
	.p2align	4, 0x90
	.type	_ZN3std2io7BufRead9read_line28_$u7b$$u7b$closure$u7d$$u7d$17h89cea78304e2159dE,@function
_ZN3std2io7BufRead9read_line28_$u7b$$u7b$closure$u7d$$u7d$17h89cea78304e2159dE:
	.cfi_startproc
	subq	$24, %rsp
	.cfi_def_cfa_offset 32
	movq	%rdi, %rax
	movq	(%rsi), %rsi
	movl	$10, %ecx
	movq	%rdx, 16(%rsp)
	movl	%ecx, %edx
	movq	16(%rsp), %rcx
	movq	%rax, 8(%rsp)
	callq	_ZN3std2io10read_until17h472b46f7df9cea60E
	movq	8(%rsp), %rax
	addq	$24, %rsp
	.cfi_def_cfa_offset 8
	retq
.Lfunc_end25:
	.size	_ZN3std2io7BufRead9read_line28_$u7b$$u7b$closure$u7d$$u7d$17h89cea78304e2159dE, .Lfunc_end25-_ZN3std2io7BufRead9read_line28_$u7b$$u7b$closure$u7d$$u7d$17h89cea78304e2159dE
	.cfi_endproc

	.section	".text._ZN3std2io8buffered18BufReader$LT$R$GT$13with_capacity17h6dc511eebe4e64a3E","ax",@progbits
	.p2align	4, 0x90
	.type	_ZN3std2io8buffered18BufReader$LT$R$GT$13with_capacity17h6dc511eebe4e64a3E,@function
_ZN3std2io8buffered18BufReader$LT$R$GT$13with_capacity17h6dc511eebe4e64a3E:
.Lfunc_begin4:
	.cfi_startproc
	.cfi_personality 155, DW.ref.rust_eh_personality
	.cfi_lsda 27, .Lexception4
	subq	$168, %rsp
	.cfi_def_cfa_offset 176
	movq	%rdi, %rax
	movl	%edx, 76(%rsp)
	movb	$0, 150(%rsp)
	movb	$0, 151(%rsp)
	movb	$1, 150(%rsp)
.Ltmp40:
	leaq	80(%rsp), %rcx
	movq	%rdi, 64(%rsp)
	movq	%rcx, %rdi
	movq	%rsi, 56(%rsp)
	movq	%rax, 48(%rsp)
	callq	_ZN5alloc3vec12Vec$LT$T$GT$13with_capacity17he92b5fa78959a43dE
.Ltmp41:
	jmp	.LBB26_2
.LBB26_1:
	movq	152(%rsp), %rdi
	callq	_Unwind_Resume@PLT
	ud2
.LBB26_2:
	movb	$1, 151(%rsp)
.Ltmp43:
	leaq	80(%rsp), %rdi
	movq	56(%rsp), %rsi
	callq	_ZN5alloc3vec12Vec$LT$T$GT$7set_len17hae9f683f451614ffE
.Ltmp44:
	jmp	.LBB26_3
.LBB26_3:
.Ltmp45:
	leaq	76(%rsp), %rdi
	callq	_ZN47_$LT$std..fs..File$u20$as$u20$std..io..Read$GT$11initializer17h8e17dbeec691f47bE
.Ltmp46:
	movb	%al, 47(%rsp)
	jmp	.LBB26_4
.LBB26_4:
	movb	47(%rsp), %al
	andb	$1, %al
	movb	%al, 107(%rsp)
.Ltmp47:
	leaq	80(%rsp), %rdi
	callq	_ZN71_$LT$alloc..vec..Vec$LT$T$GT$$u20$as$u20$core..ops..deref..DerefMut$GT$9deref_mut17h97ea3c9aa1c6148dE
.Ltmp48:
	movq	%rdx, 32(%rsp)
	movq	%rax, 24(%rsp)
	jmp	.LBB26_5
.LBB26_5:
.Ltmp49:
	leaq	107(%rsp), %rdi
	movq	24(%rsp), %rsi
	movq	32(%rsp), %rdx
	callq	_ZN3std2io11Initializer10initialize17h27bb4949aa91ec61E
.Ltmp50:
	jmp	.LBB26_6
.LBB26_6:
	movb	$0, 150(%rsp)
	movl	76(%rsp), %eax
	movl	%eax, 108(%rsp)
	movb	$0, 151(%rsp)
	movq	96(%rsp), %rcx
	movq	%rcx, 128(%rsp)
	movups	80(%rsp), %xmm0
	movaps	%xmm0, 112(%rsp)
.Ltmp52:
	leaq	112(%rsp), %rdi
	callq	_ZN5alloc3vec12Vec$LT$T$GT$16into_boxed_slice17hf9c7a3fd06963516E
.Ltmp53:
	movq	%rdx, 16(%rsp)
	movq	%rax, 8(%rsp)
	jmp	.LBB26_8
.LBB26_7:
	leaq	108(%rsp), %rdi
	callq	_ZN4core3ptr18real_drop_in_place17h4190a6ebbeffadfaE
	jmp	.LBB26_12
.LBB26_8:
	movl	108(%rsp), %eax
	movq	64(%rsp), %rcx
	movl	%eax, 32(%rcx)
	movq	8(%rsp), %rdx
	movq	%rdx, (%rcx)
	movq	16(%rsp), %rdx
	movq	%rdx, 8(%rcx)
	movq	$0, 16(%rcx)
	movq	$0, 24(%rcx)
	movb	$0, 151(%rsp)
	movq	48(%rsp), %rax
	addq	$168, %rsp
	.cfi_def_cfa_offset 8
	retq
.LBB26_9:
	.cfi_def_cfa_offset 176
	movb	$0, 150(%rsp)
	leaq	76(%rsp), %rdi
	callq	_ZN4core3ptr18real_drop_in_place17h4190a6ebbeffadfaE
	jmp	.LBB26_1
.LBB26_10:
	testb	$1, 150(%rsp)
	jne	.LBB26_9
	jmp	.LBB26_1
.LBB26_11:
	movb	$0, 151(%rsp)
	leaq	80(%rsp), %rdi
	callq	_ZN4core3ptr18real_drop_in_place17hb3f84a622bbdc27fE
	jmp	.LBB26_10
.LBB26_12:
	testb	$1, 151(%rsp)
	jne	.LBB26_11
	jmp	.LBB26_10
.LBB26_13:
.Ltmp42:
	movl	%edx, %ecx
	movq	%rax, 152(%rsp)
	movl	%ecx, 160(%rsp)
	jmp	.LBB26_10
.LBB26_14:
.Ltmp51:
	movl	%edx, %ecx
	movq	%rax, 152(%rsp)
	movl	%ecx, 160(%rsp)
	jmp	.LBB26_12
.LBB26_15:
.Ltmp54:
	movl	%edx, %ecx
	movq	%rax, 152(%rsp)
	movl	%ecx, 160(%rsp)
	jmp	.LBB26_7
.Lfunc_end26:
	.size	_ZN3std2io8buffered18BufReader$LT$R$GT$13with_capacity17h6dc511eebe4e64a3E, .Lfunc_end26-_ZN3std2io8buffered18BufReader$LT$R$GT$13with_capacity17h6dc511eebe4e64a3E
	.cfi_endproc
	.section	.gcc_except_table,"a",@progbits
	.p2align	2
GCC_except_table26:
.Lexception4:
	.byte	255
	.byte	255
	.byte	1
	.uleb128 .Lcst_end4-.Lcst_begin4
.Lcst_begin4:
	.uleb128 .Ltmp40-.Lfunc_begin4
	.uleb128 .Ltmp41-.Ltmp40
	.uleb128 .Ltmp42-.Lfunc_begin4
	.byte	0
	.uleb128 .Ltmp41-.Lfunc_begin4
	.uleb128 .Ltmp43-.Ltmp41
	.byte	0
	.byte	0
	.uleb128 .Ltmp43-.Lfunc_begin4
	.uleb128 .Ltmp50-.Ltmp43
	.uleb128 .Ltmp51-.Lfunc_begin4
	.byte	0
	.uleb128 .Ltmp52-.Lfunc_begin4
	.uleb128 .Ltmp53-.Ltmp52
	.uleb128 .Ltmp54-.Lfunc_begin4
	.byte	0
	.uleb128 .Ltmp53-.Lfunc_begin4
	.uleb128 .Lfunc_end26-.Ltmp53
	.byte	0
	.byte	0
.Lcst_end4:
	.p2align	2

	.section	".text._ZN3std2io8buffered18BufReader$LT$R$GT$3new17h8a9bb8c9442d243cE","ax",@progbits
	.p2align	4, 0x90
	.type	_ZN3std2io8buffered18BufReader$LT$R$GT$3new17h8a9bb8c9442d243cE,@function
_ZN3std2io8buffered18BufReader$LT$R$GT$3new17h8a9bb8c9442d243cE:
	.cfi_startproc
	subq	$24, %rsp
	.cfi_def_cfa_offset 32
	movq	%rdi, %rax
	movl	$8192, %ecx
	movl	%esi, 20(%rsp)
	movq	%rcx, %rsi
	movl	20(%rsp), %edx
	movq	%rax, 8(%rsp)
	callq	_ZN3std2io8buffered18BufReader$LT$R$GT$13with_capacity17h6dc511eebe4e64a3E
	movq	8(%rsp), %rax
	addq	$24, %rsp
	.cfi_def_cfa_offset 8
	retq
.Lfunc_end27:
	.size	_ZN3std2io8buffered18BufReader$LT$R$GT$3new17h8a9bb8c9442d243cE, .Lfunc_end27-_ZN3std2io8buffered18BufReader$LT$R$GT$3new17h8a9bb8c9442d243cE
	.cfi_endproc

	.section	.text._ZN3std2rt10lang_start17hf023860a8fd403c2E,"ax",@progbits
	.hidden	_ZN3std2rt10lang_start17hf023860a8fd403c2E
	.globl	_ZN3std2rt10lang_start17hf023860a8fd403c2E
	.p2align	4, 0x90
	.type	_ZN3std2rt10lang_start17hf023860a8fd403c2E,@function
_ZN3std2rt10lang_start17hf023860a8fd403c2E:
	.cfi_startproc
	subq	$40, %rsp
	.cfi_def_cfa_offset 48
	leaq	.L__unnamed_3(%rip), %rax
	movq	%rdi, 32(%rsp)
	leaq	32(%rsp), %rdi
	movq	%rsi, 24(%rsp)
	movq	%rax, %rsi
	movq	24(%rsp), %rax
	movq	%rdx, 16(%rsp)
	movq	%rax, %rdx
	movq	16(%rsp), %rcx
	callq	*_ZN3std2rt19lang_start_internal17h9cd44eb8664c0278E@GOTPCREL(%rip)
	movq	%rax, 8(%rsp)
	movq	8(%rsp), %rax
	addq	$40, %rsp
	.cfi_def_cfa_offset 8
	retq
.Lfunc_end28:
	.size	_ZN3std2rt10lang_start17hf023860a8fd403c2E, .Lfunc_end28-_ZN3std2rt10lang_start17hf023860a8fd403c2E
	.cfi_endproc

	.section	".text._ZN3std2rt10lang_start28_$u7b$$u7b$closure$u7d$$u7d$17h0e190d26b7152ab9E","ax",@progbits
	.p2align	4, 0x90
	.type	_ZN3std2rt10lang_start28_$u7b$$u7b$closure$u7d$$u7d$17h0e190d26b7152ab9E,@function
_ZN3std2rt10lang_start28_$u7b$$u7b$closure$u7d$$u7d$17h0e190d26b7152ab9E:
	.cfi_startproc
	pushq	%rax
	.cfi_def_cfa_offset 16
	callq	*(%rdi)
	callq	_ZN54_$LT$$LP$$RP$$u20$as$u20$std..process..Termination$GT$6report17h4828aba117d42022E
	movl	%eax, 4(%rsp)
	movl	4(%rsp), %eax
	popq	%rcx
	.cfi_def_cfa_offset 8
	retq
.Lfunc_end29:
	.size	_ZN3std2rt10lang_start28_$u7b$$u7b$closure$u7d$$u7d$17h0e190d26b7152ab9E, .Lfunc_end29-_ZN3std2rt10lang_start28_$u7b$$u7b$closure$u7d$$u7d$17h0e190d26b7152ab9E
	.cfi_endproc

	.section	.text._ZN3std3sys4unix7process14process_common8ExitCode6as_i3217h2e1c07787c41991fE,"ax",@progbits
	.p2align	4, 0x90
	.type	_ZN3std3sys4unix7process14process_common8ExitCode6as_i3217h2e1c07787c41991fE,@function
_ZN3std3sys4unix7process14process_common8ExitCode6as_i3217h2e1c07787c41991fE:
	.cfi_startproc
	movzbl	(%rdi), %eax
	retq
.Lfunc_end30:
	.size	_ZN3std3sys4unix7process14process_common8ExitCode6as_i3217h2e1c07787c41991fE, .Lfunc_end30-_ZN3std3sys4unix7process14process_common8ExitCode6as_i3217h2e1c07787c41991fE
	.cfi_endproc

	.section	.text._ZN3std4path4Path3new17h829c9cf0adca3619E,"ax",@progbits
	.p2align	4, 0x90
	.type	_ZN3std4path4Path3new17h829c9cf0adca3619E,@function
_ZN3std4path4Path3new17h829c9cf0adca3619E:
	.cfi_startproc
	subq	$24, %rsp
	.cfi_def_cfa_offset 32
	callq	*_ZN3std3ffi6os_str85_$LT$impl$u20$core..convert..AsRef$LT$std..ffi..os_str..OsStr$GT$$u20$for$u20$str$GT$6as_ref17h7704cc2d80101a12E@GOTPCREL(%rip)
	movq	%rax, 16(%rsp)
	movq	%rdx, 8(%rsp)
	movq	16(%rsp), %rax
	movq	8(%rsp), %rdx
	addq	$24, %rsp
	.cfi_def_cfa_offset 8
	retq
.Lfunc_end31:
	.size	_ZN3std4path4Path3new17h829c9cf0adca3619E, .Lfunc_end31-_ZN3std4path4Path3new17h829c9cf0adca3619E
	.cfi_endproc

	.section	.text._ZN3std6memchr6memchr17h3239efdc91a30e91E,"ax",@progbits
	.p2align	4, 0x90
	.type	_ZN3std6memchr6memchr17h3239efdc91a30e91E,@function
_ZN3std6memchr6memchr17h3239efdc91a30e91E:
	.cfi_startproc
	subq	$24, %rsp
	.cfi_def_cfa_offset 32
	movb	%dil, %al
	movzbl	%al, %edi
	callq	*_ZN3std3sys4unix6memchr6memchr17h00117751dbc1a40aE@GOTPCREL(%rip)
	movq	%rax, 16(%rsp)
	movq	%rdx, 8(%rsp)
	movq	16(%rsp), %rax
	movq	8(%rsp), %rdx
	addq	$24, %rsp
	.cfi_def_cfa_offset 8
	retq
.Lfunc_end32:
	.size	_ZN3std6memchr6memchr17h3239efdc91a30e91E, .Lfunc_end32-_ZN3std6memchr6memchr17h3239efdc91a30e91E
	.cfi_endproc

	.section	.text._ZN3std9panicking11begin_panic17h8bc591753635f535E,"ax",@progbits
	.p2align	4, 0x90
	.type	_ZN3std9panicking11begin_panic17h8bc591753635f535E,@function
_ZN3std9panicking11begin_panic17h8bc591753635f535E:
.Lfunc_begin5:
	.cfi_startproc
	.cfi_personality 155, DW.ref.rust_eh_personality
	.cfi_lsda 27, .Lexception5
	subq	$104, %rsp
	.cfi_def_cfa_offset 112
	xorl	%eax, %eax
	movb	%al, %cl
	movb	$0, 87(%rsp)
	movb	$1, 87(%rsp)
	testb	$1, %cl
	movq	%rdi, 48(%rsp)
	movq	%rsi, 40(%rsp)
	movq	%rdx, 32(%rsp)
	jne	.LBB33_2
	jmp	.LBB33_3
.LBB33_1:
	movq	88(%rsp), %rdi
	callq	_Unwind_Resume@PLT
	ud2
.LBB33_2:
	ud2
	ud2
.LBB33_3:
	movb	$0, 87(%rsp)
.Ltmp55:
	movq	48(%rsp), %rdi
	movq	40(%rsp), %rsi
	callq	_ZN3std9panicking11begin_panic21PanicPayload$LT$A$GT$3new17hd8eab0b8bda17064E
.Ltmp56:
	movq	%rdx, 24(%rsp)
	movq	%rax, 16(%rsp)
	jmp	.LBB33_5
.LBB33_4:
	jmp	.LBB33_7
.LBB33_5:
	movq	16(%rsp), %rax
	movq	%rax, 56(%rsp)
	movq	24(%rsp), %rcx
	movq	%rcx, 64(%rsp)
	movq	$0, 72(%rsp)
	movq	72(%rsp), %rdx
.Ltmp58:
	leaq	.L__unnamed_4(%rip), %rsi
	movq	_ZN3std9panicking20rust_panic_with_hook17hb12bd3736bcb7a4fE@GOTPCREL(%rip), %rdi
	leaq	56(%rsp), %r8
	movq	%rdi, 8(%rsp)
	movq	%r8, %rdi
	movq	32(%rsp), %rcx
	movq	8(%rsp), %r8
	callq	*%r8
.Ltmp59:
	jmp	.LBB33_9
.LBB33_6:
	movb	$0, 87(%rsp)
	jmp	.LBB33_1
.LBB33_7:
	testb	$1, 87(%rsp)
	jne	.LBB33_6
	jmp	.LBB33_1
.LBB33_8:
.Ltmp57:
	movl	%edx, %ecx
	movq	%rax, 88(%rsp)
	movl	%ecx, 96(%rsp)
	jmp	.LBB33_7
.LBB33_9:
	ud2
.LBB33_10:
.Ltmp60:
	movl	%edx, %ecx
	movq	%rax, 88(%rsp)
	movl	%ecx, 96(%rsp)
	jmp	.LBB33_4
.Lfunc_end33:
	.size	_ZN3std9panicking11begin_panic17h8bc591753635f535E, .Lfunc_end33-_ZN3std9panicking11begin_panic17h8bc591753635f535E
	.cfi_endproc
	.section	.gcc_except_table,"a",@progbits
	.p2align	2
GCC_except_table33:
.Lexception5:
	.byte	255
	.byte	255
	.byte	1
	.uleb128 .Lcst_end5-.Lcst_begin5
.Lcst_begin5:
	.uleb128 .Lfunc_begin5-.Lfunc_begin5
	.uleb128 .Ltmp55-.Lfunc_begin5
	.byte	0
	.byte	0
	.uleb128 .Ltmp55-.Lfunc_begin5
	.uleb128 .Ltmp56-.Ltmp55
	.uleb128 .Ltmp57-.Lfunc_begin5
	.byte	0
	.uleb128 .Ltmp58-.Lfunc_begin5
	.uleb128 .Ltmp59-.Ltmp58
	.uleb128 .Ltmp60-.Lfunc_begin5
	.byte	0
.Lcst_end5:
	.p2align	2

	.section	".text._ZN3std9panicking11begin_panic21PanicPayload$LT$A$GT$3new17hd8eab0b8bda17064E","ax",@progbits
	.p2align	4, 0x90
	.type	_ZN3std9panicking11begin_panic21PanicPayload$LT$A$GT$3new17hd8eab0b8bda17064E,@function
_ZN3std9panicking11begin_panic21PanicPayload$LT$A$GT$3new17hd8eab0b8bda17064E:
	.cfi_startproc
	subq	$32, %rsp
	.cfi_def_cfa_offset 40
	movq	%rdi, 16(%rsp)
	movq	%rsi, 24(%rsp)
	movq	16(%rsp), %rsi
	movq	24(%rsp), %rdi
	movq	%rsi, (%rsp)
	movq	%rdi, 8(%rsp)
	movq	(%rsp), %rax
	movq	8(%rsp), %rdx
	addq	$32, %rsp
	.cfi_def_cfa_offset 8
	retq
.Lfunc_end34:
	.size	_ZN3std9panicking11begin_panic21PanicPayload$LT$A$GT$3new17hd8eab0b8bda17064E, .Lfunc_end34-_ZN3std9panicking11begin_panic21PanicPayload$LT$A$GT$3new17hd8eab0b8bda17064E
	.cfi_endproc

	.section	".text._ZN42_$LT$$RF$T$u20$as$u20$core..fmt..Debug$GT$3fmt17h3fbcd9f413dc809cE","ax",@progbits
	.p2align	4, 0x90
	.type	_ZN42_$LT$$RF$T$u20$as$u20$core..fmt..Debug$GT$3fmt17h3fbcd9f413dc809cE,@function
_ZN42_$LT$$RF$T$u20$as$u20$core..fmt..Debug$GT$3fmt17h3fbcd9f413dc809cE:
	.cfi_startproc
	pushq	%rax
	.cfi_def_cfa_offset 16
	movq	(%rdi), %rdi
	callq	_ZN4core3fmt3num50_$LT$impl$u20$core..fmt..Debug$u20$for$u20$u32$GT$3fmt17hba92653e7357acb3E
	movb	%al, 7(%rsp)
	movb	7(%rsp), %al
	andb	$1, %al
	movzbl	%al, %eax
	popq	%rcx
	.cfi_def_cfa_offset 8
	retq
.Lfunc_end35:
	.size	_ZN42_$LT$$RF$T$u20$as$u20$core..fmt..Debug$GT$3fmt17h3fbcd9f413dc809cE, .Lfunc_end35-_ZN42_$LT$$RF$T$u20$as$u20$core..fmt..Debug$GT$3fmt17h3fbcd9f413dc809cE
	.cfi_endproc

	.section	".text._ZN42_$LT$$RF$T$u20$as$u20$core..fmt..Debug$GT$3fmt17hac518cac536385a9E","ax",@progbits
	.p2align	4, 0x90
	.type	_ZN42_$LT$$RF$T$u20$as$u20$core..fmt..Debug$GT$3fmt17hac518cac536385a9E,@function
_ZN42_$LT$$RF$T$u20$as$u20$core..fmt..Debug$GT$3fmt17hac518cac536385a9E:
	.cfi_startproc
	pushq	%rax
	.cfi_def_cfa_offset 16
	movq	(%rdi), %rdi
	callq	_ZN4core3fmt3num52_$LT$impl$u20$core..fmt..Debug$u20$for$u20$usize$GT$3fmt17hbf1ab52420e592d6E
	movb	%al, 7(%rsp)
	movb	7(%rsp), %al
	andb	$1, %al
	movzbl	%al, %eax
	popq	%rcx
	.cfi_def_cfa_offset 8
	retq
.Lfunc_end36:
	.size	_ZN42_$LT$$RF$T$u20$as$u20$core..fmt..Debug$GT$3fmt17hac518cac536385a9E, .Lfunc_end36-_ZN42_$LT$$RF$T$u20$as$u20$core..fmt..Debug$GT$3fmt17hac518cac536385a9E
	.cfi_endproc

	.section	".text._ZN44_$LT$$RF$T$u20$as$u20$core..fmt..Display$GT$3fmt17hab02f78835b2d3dfE","ax",@progbits
	.p2align	4, 0x90
	.type	_ZN44_$LT$$RF$T$u20$as$u20$core..fmt..Display$GT$3fmt17hab02f78835b2d3dfE,@function
_ZN44_$LT$$RF$T$u20$as$u20$core..fmt..Display$GT$3fmt17hab02f78835b2d3dfE:
	.cfi_startproc
	subq	$24, %rsp
	.cfi_def_cfa_offset 32
	movq	(%rdi), %rax
	movq	8(%rdi), %rdi
	movq	%rdi, 16(%rsp)
	movq	%rax, %rdi
	movq	16(%rsp), %rax
	movq	%rsi, 8(%rsp)
	movq	%rax, %rsi
	movq	8(%rsp), %rdx
	callq	*_ZN42_$LT$str$u20$as$u20$core..fmt..Display$GT$3fmt17h354afe01c03b7397E@GOTPCREL(%rip)
	movb	%al, 7(%rsp)
	movb	7(%rsp), %al
	andb	$1, %al
	movzbl	%al, %eax
	addq	$24, %rsp
	.cfi_def_cfa_offset 8
	retq
.Lfunc_end37:
	.size	_ZN44_$LT$$RF$T$u20$as$u20$core..fmt..Display$GT$3fmt17hab02f78835b2d3dfE, .Lfunc_end37-_ZN44_$LT$$RF$T$u20$as$u20$core..fmt..Display$GT$3fmt17hab02f78835b2d3dfE
	.cfi_endproc

	.section	".text._ZN45_$LT$u32$u20$as$u20$core..ops..arith..Add$GT$3add17h2e9cd31ac4d96060E","ax",@progbits
	.p2align	4, 0x90
	.type	_ZN45_$LT$u32$u20$as$u20$core..ops..arith..Add$GT$3add17h2e9cd31ac4d96060E,@function
_ZN45_$LT$u32$u20$as$u20$core..ops..arith..Add$GT$3add17h2e9cd31ac4d96060E:
	.cfi_startproc
	pushq	%rax
	.cfi_def_cfa_offset 16
	addl	%esi, %edi
	setb	%al
	testb	$1, %al
	movl	%edi, 4(%rsp)
	jne	.LBB38_2
	movl	4(%rsp), %eax
	popq	%rcx
	.cfi_def_cfa_offset 8
	retq
.LBB38_2:
	.cfi_def_cfa_offset 16
	leaq	.L__unnamed_5(%rip), %rdi
	movq	_ZN4core9panicking5panic17h322450b91db0e87eE@GOTPCREL(%rip), %rax
	callq	*%rax
	ud2
.Lfunc_end38:
	.size	_ZN45_$LT$u32$u20$as$u20$core..ops..arith..Add$GT$3add17h2e9cd31ac4d96060E, .Lfunc_end38-_ZN45_$LT$u32$u20$as$u20$core..ops..arith..Add$GT$3add17h2e9cd31ac4d96060E
	.cfi_endproc

	.section	".text._ZN47_$LT$std..fs..File$u20$as$u20$std..io..Read$GT$11initializer17h8e17dbeec691f47bE","ax",@progbits
	.p2align	4, 0x90
	.type	_ZN47_$LT$std..fs..File$u20$as$u20$std..io..Read$GT$11initializer17h8e17dbeec691f47bE,@function
_ZN47_$LT$std..fs..File$u20$as$u20$std..io..Read$GT$11initializer17h8e17dbeec691f47bE:
	.cfi_startproc
	subq	$24, %rsp
	.cfi_def_cfa_offset 32
	movq	%rdi, 16(%rsp)
	callq	_ZN3std2io11Initializer3nop17he6431239b6e57f5dE
	movb	%al, 15(%rsp)
	movb	15(%rsp), %al
	andb	$1, %al
	movzbl	%al, %eax
	addq	$24, %rsp
	.cfi_def_cfa_offset 8
	retq
.Lfunc_end39:
	.size	_ZN47_$LT$std..fs..File$u20$as$u20$std..io..Read$GT$11initializer17h8e17dbeec691f47bE, .Lfunc_end39-_ZN47_$LT$std..fs..File$u20$as$u20$std..io..Read$GT$11initializer17h8e17dbeec691f47bE
	.cfi_endproc

	.section	".text._ZN47_$LT$usize$u20$as$u20$core..ops..arith..Add$GT$3add17hf1ab003e3538c6c8E","ax",@progbits
	.p2align	4, 0x90
	.type	_ZN47_$LT$usize$u20$as$u20$core..ops..arith..Add$GT$3add17hf1ab003e3538c6c8E,@function
_ZN47_$LT$usize$u20$as$u20$core..ops..arith..Add$GT$3add17hf1ab003e3538c6c8E:
	.cfi_startproc
	pushq	%rax
	.cfi_def_cfa_offset 16
	addq	%rsi, %rdi
	setb	%al
	testb	$1, %al
	movq	%rdi, (%rsp)
	jne	.LBB40_2
	movq	(%rsp), %rax
	popq	%rcx
	.cfi_def_cfa_offset 8
	retq
.LBB40_2:
	.cfi_def_cfa_offset 16
	leaq	.L__unnamed_5(%rip), %rdi
	movq	_ZN4core9panicking5panic17h322450b91db0e87eE@GOTPCREL(%rip), %rax
	callq	*%rax
	ud2
.Lfunc_end40:
	.size	_ZN47_$LT$usize$u20$as$u20$core..ops..arith..Add$GT$3add17hf1ab003e3538c6c8E, .Lfunc_end40-_ZN47_$LT$usize$u20$as$u20$core..ops..arith..Add$GT$3add17hf1ab003e3538c6c8E
	.cfi_endproc

	.section	".text._ZN48_$LT$$u5b$T$u5d$$u20$as$u20$core..fmt..Debug$GT$3fmt17h2c65a5472cd80fa5E","ax",@progbits
	.p2align	4, 0x90
	.type	_ZN48_$LT$$u5b$T$u5d$$u20$as$u20$core..fmt..Debug$GT$3fmt17h2c65a5472cd80fa5E,@function
_ZN48_$LT$$u5b$T$u5d$$u20$as$u20$core..fmt..Debug$GT$3fmt17h2c65a5472cd80fa5E:
	.cfi_startproc
	subq	$72, %rsp
	.cfi_def_cfa_offset 80
	leaq	56(%rsp), %rax
	movq	%rdi, 48(%rsp)
	movq	%rax, %rdi
	movq	%rsi, 40(%rsp)
	movq	%rdx, %rsi
	callq	*_ZN4core3fmt9Formatter10debug_list17hde557362e6b33b2eE@GOTPCREL(%rip)
	movq	48(%rsp), %rdi
	movq	40(%rsp), %rsi
	callq	_ZN4core5slice29_$LT$impl$u20$$u5b$T$u5d$$GT$4iter17hf342370c7971263bE
	movq	%rax, 32(%rsp)
	movq	%rdx, 24(%rsp)
	leaq	56(%rsp), %rdi
	movq	32(%rsp), %rsi
	movq	24(%rsp), %rdx
	callq	_ZN4core3fmt8builders9DebugList7entries17hde1ffe40484c5466E
	movq	%rax, 16(%rsp)
	movq	16(%rsp), %rdi
	callq	*_ZN4core3fmt8builders9DebugList6finish17h796fd2901b76fbc1E@GOTPCREL(%rip)
	movb	%al, 15(%rsp)
	movb	15(%rsp), %al
	andb	$1, %al
	movzbl	%al, %eax
	addq	$72, %rsp
	.cfi_def_cfa_offset 8
	retq
.Lfunc_end41:
	.size	_ZN48_$LT$$u5b$T$u5d$$u20$as$u20$core..fmt..Debug$GT$3fmt17h2c65a5472cd80fa5E, .Lfunc_end41-_ZN48_$LT$$u5b$T$u5d$$u20$as$u20$core..fmt..Debug$GT$3fmt17h2c65a5472cd80fa5E
	.cfi_endproc

	.section	.text._ZN4core10intrinsics11write_bytes17hb764dd49b2973f94E,"ax",@progbits
	.p2align	4, 0x90
	.type	_ZN4core10intrinsics11write_bytes17hb764dd49b2973f94E,@function
_ZN4core10intrinsics11write_bytes17hb764dd49b2973f94E:
	.cfi_startproc
	pushq	%rax
	.cfi_def_cfa_offset 16
	movb	%sil, %al
	shlq	$0, %rdx
	movzbl	%al, %esi
	callq	memset@PLT
	popq	%rax
	.cfi_def_cfa_offset 8
	retq
.Lfunc_end42:
	.size	_ZN4core10intrinsics11write_bytes17hb764dd49b2973f94E, .Lfunc_end42-_ZN4core10intrinsics11write_bytes17hb764dd49b2973f94E
	.cfi_endproc

	.section	.text._ZN4core10intrinsics19copy_nonoverlapping17h40e143e08364eb65E,"ax",@progbits
	.p2align	4, 0x90
	.type	_ZN4core10intrinsics19copy_nonoverlapping17h40e143e08364eb65E,@function
_ZN4core10intrinsics19copy_nonoverlapping17h40e143e08364eb65E:
	.cfi_startproc
	pushq	%rax
	.cfi_def_cfa_offset 16
	shlq	$4, %rdx
	movq	%rdi, (%rsp)
	movq	%rsi, %rdi
	movq	(%rsp), %rsi
	callq	memcpy@PLT
	popq	%rax
	.cfi_def_cfa_offset 8
	retq
.Lfunc_end43:
	.size	_ZN4core10intrinsics19copy_nonoverlapping17h40e143e08364eb65E, .Lfunc_end43-_ZN4core10intrinsics19copy_nonoverlapping17h40e143e08364eb65E
	.cfi_endproc

	.section	.text._ZN4core10intrinsics19copy_nonoverlapping17h5c8df3309f91cf5eE,"ax",@progbits
	.p2align	4, 0x90
	.type	_ZN4core10intrinsics19copy_nonoverlapping17h5c8df3309f91cf5eE,@function
_ZN4core10intrinsics19copy_nonoverlapping17h5c8df3309f91cf5eE:
	.cfi_startproc
	pushq	%rax
	.cfi_def_cfa_offset 16
	shlq	$4, %rdx
	movq	%rdi, (%rsp)
	movq	%rsi, %rdi
	movq	(%rsp), %rsi
	callq	memcpy@PLT
	popq	%rax
	.cfi_def_cfa_offset 8
	retq
.Lfunc_end44:
	.size	_ZN4core10intrinsics19copy_nonoverlapping17h5c8df3309f91cf5eE, .Lfunc_end44-_ZN4core10intrinsics19copy_nonoverlapping17h5c8df3309f91cf5eE
	.cfi_endproc

	.section	.text._ZN4core10intrinsics19copy_nonoverlapping17h5e5a55767a224286E,"ax",@progbits
	.p2align	4, 0x90
	.type	_ZN4core10intrinsics19copy_nonoverlapping17h5e5a55767a224286E,@function
_ZN4core10intrinsics19copy_nonoverlapping17h5e5a55767a224286E:
	.cfi_startproc
	pushq	%rax
	.cfi_def_cfa_offset 16
	shlq	$0, %rdx
	movq	%rdi, (%rsp)
	movq	%rsi, %rdi
	movq	(%rsp), %rsi
	callq	memcpy@PLT
	popq	%rax
	.cfi_def_cfa_offset 8
	retq
.Lfunc_end45:
	.size	_ZN4core10intrinsics19copy_nonoverlapping17h5e5a55767a224286E, .Lfunc_end45-_ZN4core10intrinsics19copy_nonoverlapping17h5e5a55767a224286E
	.cfi_endproc

	.section	.text._ZN4core10intrinsics19copy_nonoverlapping17hf2be61a87952cb10E,"ax",@progbits
	.p2align	4, 0x90
	.type	_ZN4core10intrinsics19copy_nonoverlapping17hf2be61a87952cb10E,@function
_ZN4core10intrinsics19copy_nonoverlapping17hf2be61a87952cb10E:
	.cfi_startproc
	pushq	%rax
	.cfi_def_cfa_offset 16
	imulq	$0, %rdx, %rdx
	movq	%rdi, (%rsp)
	movq	%rsi, %rdi
	movq	(%rsp), %rsi
	callq	memcpy@PLT
	popq	%rax
	.cfi_def_cfa_offset 8
	retq
.Lfunc_end46:
	.size	_ZN4core10intrinsics19copy_nonoverlapping17hf2be61a87952cb10E, .Lfunc_end46-_ZN4core10intrinsics19copy_nonoverlapping17hf2be61a87952cb10E
	.cfi_endproc

	.section	.text._ZN4core3any6TypeId2of17h302339bb857f123bE,"ax",@progbits
	.p2align	4, 0x90
	.type	_ZN4core3any6TypeId2of17h302339bb857f123bE,@function
_ZN4core3any6TypeId2of17h302339bb857f123bE:
	.cfi_startproc
	subq	$24, %rsp
	.cfi_def_cfa_offset 32
	movabsq	$7549865886324542212, %rax
	movq	%rax, 16(%rsp)
	movq	16(%rsp), %rax
	movq	%rax, (%rsp)
	movq	(%rsp), %rax
	movq	%rax, 8(%rsp)
	movq	8(%rsp), %rax
	addq	$24, %rsp
	.cfi_def_cfa_offset 8
	retq
.Lfunc_end47:
	.size	_ZN4core3any6TypeId2of17h302339bb857f123bE, .Lfunc_end47-_ZN4core3any6TypeId2of17h302339bb857f123bE
	.cfi_endproc

	.section	.text._ZN4core3any6TypeId2of17ha33c34132dfab004E,"ax",@progbits
	.p2align	4, 0x90
	.type	_ZN4core3any6TypeId2of17ha33c34132dfab004E,@function
_ZN4core3any6TypeId2of17ha33c34132dfab004E:
	.cfi_startproc
	subq	$24, %rsp
	.cfi_def_cfa_offset 32
	movabsq	$1229646359891580772, %rax
	movq	%rax, 16(%rsp)
	movq	16(%rsp), %rax
	movq	%rax, (%rsp)
	movq	(%rsp), %rax
	movq	%rax, 8(%rsp)
	movq	8(%rsp), %rax
	addq	$24, %rsp
	.cfi_def_cfa_offset 8
	retq
.Lfunc_end48:
	.size	_ZN4core3any6TypeId2of17ha33c34132dfab004E, .Lfunc_end48-_ZN4core3any6TypeId2of17ha33c34132dfab004E
	.cfi_endproc

	.section	.text._ZN4core3cmp3Ord3max17h96cadf1280d1d535E,"ax",@progbits
	.p2align	4, 0x90
	.type	_ZN4core3cmp3Ord3max17h96cadf1280d1d535E,@function
_ZN4core3cmp3Ord3max17h96cadf1280d1d535E:
.Lfunc_begin6:
	.cfi_startproc
	.cfi_personality 155, DW.ref.rust_eh_personality
	.cfi_lsda 27, .Lexception6
	subq	$56, %rsp
	.cfi_def_cfa_offset 64
	movq	%rdi, 8(%rsp)
	movq	%rsi, 16(%rsp)
	movb	$0, 38(%rsp)
	movb	$0, 39(%rsp)
	movb	$1, 38(%rsp)
	movb	$1, 39(%rsp)
.Ltmp61:
	leaq	16(%rsp), %rdi
	leaq	8(%rsp), %rsi
	callq	_ZN4core3cmp5impls57_$LT$impl$u20$core..cmp..PartialOrd$u20$for$u20$usize$GT$2ge17h744d710afb0d3c65E
.Ltmp62:
	movb	%al, 7(%rsp)
	jmp	.LBB49_2
.LBB49_1:
	movq	40(%rsp), %rdi
	callq	_Unwind_Resume@PLT
	ud2
.LBB49_2:
	movb	7(%rsp), %al
	testb	$1, %al
	jne	.LBB49_5
	jmp	.LBB49_6
.LBB49_3:
	testb	$1, 38(%rsp)
	jne	.LBB49_10
	jmp	.LBB49_1
.LBB49_4:
	movb	$0, 39(%rsp)
	jmp	.LBB49_3
.LBB49_5:
	movb	$0, 39(%rsp)
	movq	16(%rsp), %rax
	movq	%rax, 24(%rsp)
	jmp	.LBB49_7
.LBB49_6:
	movb	$0, 38(%rsp)
	movq	8(%rsp), %rax
	movq	%rax, 24(%rsp)
.LBB49_7:
	testb	$1, 39(%rsp)
	jne	.LBB49_11
.LBB49_8:
	testb	$1, 38(%rsp)
	jne	.LBB49_12
.LBB49_9:
	movq	24(%rsp), %rax
	addq	$56, %rsp
	.cfi_def_cfa_offset 8
	retq
.LBB49_10:
	.cfi_def_cfa_offset 64
	movb	$0, 38(%rsp)
	jmp	.LBB49_1
.LBB49_11:
	movb	$0, 39(%rsp)
	jmp	.LBB49_8
.LBB49_12:
	movb	$0, 38(%rsp)
	jmp	.LBB49_9
.LBB49_13:
.Ltmp63:
	movl	%edx, %ecx
	movq	%rax, 40(%rsp)
	movl	%ecx, 48(%rsp)
	jmp	.LBB49_4
.Lfunc_end49:
	.size	_ZN4core3cmp3Ord3max17h96cadf1280d1d535E, .Lfunc_end49-_ZN4core3cmp3Ord3max17h96cadf1280d1d535E
	.cfi_endproc
	.section	.gcc_except_table,"a",@progbits
	.p2align	2
GCC_except_table49:
.Lexception6:
	.byte	255
	.byte	255
	.byte	1
	.uleb128 .Lcst_end6-.Lcst_begin6
.Lcst_begin6:
	.uleb128 .Ltmp61-.Lfunc_begin6
	.uleb128 .Ltmp62-.Ltmp61
	.uleb128 .Ltmp63-.Lfunc_begin6
	.byte	0
	.uleb128 .Ltmp62-.Lfunc_begin6
	.uleb128 .Lfunc_end49-.Ltmp62
	.byte	0
	.byte	0
.Lcst_end6:
	.p2align	2

	.section	.text._ZN4core3cmp3Ord3min17hff8e74b730297f5aE,"ax",@progbits
	.p2align	4, 0x90
	.type	_ZN4core3cmp3Ord3min17hff8e74b730297f5aE,@function
_ZN4core3cmp3Ord3min17hff8e74b730297f5aE:
.Lfunc_begin7:
	.cfi_startproc
	.cfi_personality 155, DW.ref.rust_eh_personality
	.cfi_lsda 27, .Lexception7
	subq	$56, %rsp
	.cfi_def_cfa_offset 64
	movq	%rdi, 8(%rsp)
	movq	%rsi, 16(%rsp)
	movb	$0, 38(%rsp)
	movb	$0, 39(%rsp)
	movb	$1, 38(%rsp)
	movb	$1, 39(%rsp)
.Ltmp64:
	leaq	8(%rsp), %rdi
	leaq	16(%rsp), %rsi
	callq	_ZN4core3cmp5impls57_$LT$impl$u20$core..cmp..PartialOrd$u20$for$u20$usize$GT$2le17h48f2e55825e4953dE
.Ltmp65:
	movb	%al, 7(%rsp)
	jmp	.LBB50_2
.LBB50_1:
	movq	40(%rsp), %rdi
	callq	_Unwind_Resume@PLT
	ud2
.LBB50_2:
	movb	7(%rsp), %al
	testb	$1, %al
	jne	.LBB50_5
	jmp	.LBB50_6
.LBB50_3:
	testb	$1, 38(%rsp)
	jne	.LBB50_10
	jmp	.LBB50_1
.LBB50_4:
	movb	$0, 39(%rsp)
	jmp	.LBB50_3
.LBB50_5:
	movb	$0, 38(%rsp)
	movq	8(%rsp), %rax
	movq	%rax, 24(%rsp)
	jmp	.LBB50_7
.LBB50_6:
	movb	$0, 39(%rsp)
	movq	16(%rsp), %rax
	movq	%rax, 24(%rsp)
.LBB50_7:
	testb	$1, 39(%rsp)
	jne	.LBB50_11
.LBB50_8:
	testb	$1, 38(%rsp)
	jne	.LBB50_12
.LBB50_9:
	movq	24(%rsp), %rax
	addq	$56, %rsp
	.cfi_def_cfa_offset 8
	retq
.LBB50_10:
	.cfi_def_cfa_offset 64
	movb	$0, 38(%rsp)
	jmp	.LBB50_1
.LBB50_11:
	movb	$0, 39(%rsp)
	jmp	.LBB50_8
.LBB50_12:
	movb	$0, 38(%rsp)
	jmp	.LBB50_9
.LBB50_13:
.Ltmp66:
	movl	%edx, %ecx
	movq	%rax, 40(%rsp)
	movl	%ecx, 48(%rsp)
	jmp	.LBB50_4
.Lfunc_end50:
	.size	_ZN4core3cmp3Ord3min17hff8e74b730297f5aE, .Lfunc_end50-_ZN4core3cmp3Ord3min17hff8e74b730297f5aE
	.cfi_endproc
	.section	.gcc_except_table,"a",@progbits
	.p2align	2
GCC_except_table50:
.Lexception7:
	.byte	255
	.byte	255
	.byte	1
	.uleb128 .Lcst_end7-.Lcst_begin7
.Lcst_begin7:
	.uleb128 .Ltmp64-.Lfunc_begin7
	.uleb128 .Ltmp65-.Ltmp64
	.uleb128 .Ltmp66-.Lfunc_begin7
	.byte	0
	.uleb128 .Ltmp65-.Lfunc_begin7
	.uleb128 .Lfunc_end50-.Ltmp65
	.byte	0
	.byte	0
.Lcst_end7:
	.p2align	2

	.section	.text._ZN4core3cmp3max17h3da27b910449c668E,"ax",@progbits
	.p2align	4, 0x90
	.type	_ZN4core3cmp3max17h3da27b910449c668E,@function
_ZN4core3cmp3max17h3da27b910449c668E:
	.cfi_startproc
	pushq	%rax
	.cfi_def_cfa_offset 16
	callq	_ZN4core3cmp3Ord3max17h96cadf1280d1d535E
	movq	%rax, (%rsp)
	movq	(%rsp), %rax
	popq	%rcx
	.cfi_def_cfa_offset 8
	retq
.Lfunc_end51:
	.size	_ZN4core3cmp3max17h3da27b910449c668E, .Lfunc_end51-_ZN4core3cmp3max17h3da27b910449c668E
	.cfi_endproc

	.section	.text._ZN4core3cmp3min17h5fe1caffa6b3da49E,"ax",@progbits
	.p2align	4, 0x90
	.type	_ZN4core3cmp3min17h5fe1caffa6b3da49E,@function
_ZN4core3cmp3min17h5fe1caffa6b3da49E:
	.cfi_startproc
	pushq	%rax
	.cfi_def_cfa_offset 16
	callq	_ZN4core3cmp3Ord3min17hff8e74b730297f5aE
	movq	%rax, (%rsp)
	movq	(%rsp), %rax
	popq	%rcx
	.cfi_def_cfa_offset 8
	retq
.Lfunc_end52:
	.size	_ZN4core3cmp3min17h5fe1caffa6b3da49E, .Lfunc_end52-_ZN4core3cmp3min17h5fe1caffa6b3da49E
	.cfi_endproc

	.section	".text._ZN4core3cmp5impls57_$LT$impl$u20$core..cmp..PartialOrd$u20$for$u20$usize$GT$2ge17h744d710afb0d3c65E","ax",@progbits
	.p2align	4, 0x90
	.type	_ZN4core3cmp5impls57_$LT$impl$u20$core..cmp..PartialOrd$u20$for$u20$usize$GT$2ge17h744d710afb0d3c65E,@function
_ZN4core3cmp5impls57_$LT$impl$u20$core..cmp..PartialOrd$u20$for$u20$usize$GT$2ge17h744d710afb0d3c65E:
	.cfi_startproc
	movq	(%rdi), %rdi
	cmpq	(%rsi), %rdi
	setae	%al
	andb	$1, %al
	movzbl	%al, %eax
	retq
.Lfunc_end53:
	.size	_ZN4core3cmp5impls57_$LT$impl$u20$core..cmp..PartialOrd$u20$for$u20$usize$GT$2ge17h744d710afb0d3c65E, .Lfunc_end53-_ZN4core3cmp5impls57_$LT$impl$u20$core..cmp..PartialOrd$u20$for$u20$usize$GT$2ge17h744d710afb0d3c65E
	.cfi_endproc

	.section	".text._ZN4core3cmp5impls57_$LT$impl$u20$core..cmp..PartialOrd$u20$for$u20$usize$GT$2le17h48f2e55825e4953dE","ax",@progbits
	.p2align	4, 0x90
	.type	_ZN4core3cmp5impls57_$LT$impl$u20$core..cmp..PartialOrd$u20$for$u20$usize$GT$2le17h48f2e55825e4953dE,@function
_ZN4core3cmp5impls57_$LT$impl$u20$core..cmp..PartialOrd$u20$for$u20$usize$GT$2le17h48f2e55825e4953dE:
	.cfi_startproc
	movq	(%rdi), %rdi
	cmpq	(%rsi), %rdi
	setbe	%al
	andb	$1, %al
	movzbl	%al, %eax
	retq
.Lfunc_end54:
	.size	_ZN4core3cmp5impls57_$LT$impl$u20$core..cmp..PartialOrd$u20$for$u20$usize$GT$2le17h48f2e55825e4953dE, .Lfunc_end54-_ZN4core3cmp5impls57_$LT$impl$u20$core..cmp..PartialOrd$u20$for$u20$usize$GT$2le17h48f2e55825e4953dE
	.cfi_endproc

	.section	".text._ZN4core3cmp5impls69_$LT$impl$u20$core..cmp..PartialEq$LT$$RF$B$GT$$u20$for$u20$$RF$A$GT$2eq17h2a349559795d63ccE","ax",@progbits
	.p2align	4, 0x90
	.type	_ZN4core3cmp5impls69_$LT$impl$u20$core..cmp..PartialEq$LT$$RF$B$GT$$u20$for$u20$$RF$A$GT$2eq17h2a349559795d63ccE,@function
_ZN4core3cmp5impls69_$LT$impl$u20$core..cmp..PartialEq$LT$$RF$B$GT$$u20$for$u20$$RF$A$GT$2eq17h2a349559795d63ccE:
	.cfi_startproc
	subq	$24, %rsp
	.cfi_def_cfa_offset 32
	movq	(%rdi), %rax
	movq	8(%rdi), %rdi
	movq	(%rsi), %rdx
	movq	8(%rsi), %rcx
	movq	%rdi, 16(%rsp)
	movq	%rax, %rdi
	movq	16(%rsp), %rsi
	callq	_ZN4core3str6traits54_$LT$impl$u20$core..cmp..PartialEq$u20$for$u20$str$GT$2eq17h78f85f1c53e4e4c9E
	movb	%al, 15(%rsp)
	movb	15(%rsp), %al
	andb	$1, %al
	movzbl	%al, %eax
	addq	$24, %rsp
	.cfi_def_cfa_offset 8
	retq
.Lfunc_end55:
	.size	_ZN4core3cmp5impls69_$LT$impl$u20$core..cmp..PartialEq$LT$$RF$B$GT$$u20$for$u20$$RF$A$GT$2eq17h2a349559795d63ccE, .Lfunc_end55-_ZN4core3cmp5impls69_$LT$impl$u20$core..cmp..PartialEq$LT$$RF$B$GT$$u20$for$u20$$RF$A$GT$2eq17h2a349559795d63ccE
	.cfi_endproc

	.section	".text._ZN4core3cmp5impls69_$LT$impl$u20$core..cmp..PartialEq$LT$$RF$B$GT$$u20$for$u20$$RF$A$GT$2eq17hda97e4a8ae3b1fbcE","ax",@progbits
	.p2align	4, 0x90
	.type	_ZN4core3cmp5impls69_$LT$impl$u20$core..cmp..PartialEq$LT$$RF$B$GT$$u20$for$u20$$RF$A$GT$2eq17hda97e4a8ae3b1fbcE,@function
_ZN4core3cmp5impls69_$LT$impl$u20$core..cmp..PartialEq$LT$$RF$B$GT$$u20$for$u20$$RF$A$GT$2eq17hda97e4a8ae3b1fbcE:
	.cfi_startproc
	subq	$24, %rsp
	.cfi_def_cfa_offset 32
	movq	(%rdi), %rax
	movq	8(%rdi), %rdi
	movq	(%rsi), %rdx
	movq	8(%rsi), %rcx
	movq	%rdi, 16(%rsp)
	movq	%rax, %rdi
	movq	16(%rsp), %rsi
	callq	_ZN4core5slice81_$LT$impl$u20$core..cmp..PartialEq$LT$$u5b$B$u5d$$GT$$u20$for$u20$$u5b$A$u5d$$GT$2eq17hd798ecba6f7e74b9E
	movb	%al, 15(%rsp)
	movb	15(%rsp), %al
	andb	$1, %al
	movzbl	%al, %eax
	addq	$24, %rsp
	.cfi_def_cfa_offset 8
	retq
.Lfunc_end56:
	.size	_ZN4core3cmp5impls69_$LT$impl$u20$core..cmp..PartialEq$LT$$RF$B$GT$$u20$for$u20$$RF$A$GT$2eq17hda97e4a8ae3b1fbcE, .Lfunc_end56-_ZN4core3cmp5impls69_$LT$impl$u20$core..cmp..PartialEq$LT$$RF$B$GT$$u20$for$u20$$RF$A$GT$2eq17hda97e4a8ae3b1fbcE
	.cfi_endproc

	.section	.text._ZN4core3fmt10ArgumentV13new17h874f9884860177e6E,"ax",@progbits
	.p2align	4, 0x90
	.type	_ZN4core3fmt10ArgumentV13new17h874f9884860177e6E,@function
_ZN4core3fmt10ArgumentV13new17h874f9884860177e6E:
	.cfi_startproc
	subq	$56, %rsp
	.cfi_def_cfa_offset 64
	movq	%rsi, 40(%rsp)
	movq	40(%rsp), %rsi
	movq	%rdi, 16(%rsp)
	movq	%rsi, 8(%rsp)
	movq	16(%rsp), %rax
	movq	%rax, 48(%rsp)
	movq	48(%rsp), %rcx
	movq	%rcx, (%rsp)
	movq	(%rsp), %rax
	movq	%rax, 24(%rsp)
	movq	8(%rsp), %rcx
	movq	%rcx, 32(%rsp)
	movq	24(%rsp), %rax
	movq	32(%rsp), %rdx
	addq	$56, %rsp
	.cfi_def_cfa_offset 8
	retq
.Lfunc_end57:
	.size	_ZN4core3fmt10ArgumentV13new17h874f9884860177e6E, .Lfunc_end57-_ZN4core3fmt10ArgumentV13new17h874f9884860177e6E
	.cfi_endproc

	.section	.text._ZN4core3fmt10ArgumentV13new17h932ee9f760cc8792E,"ax",@progbits
	.p2align	4, 0x90
	.type	_ZN4core3fmt10ArgumentV13new17h932ee9f760cc8792E,@function
_ZN4core3fmt10ArgumentV13new17h932ee9f760cc8792E:
	.cfi_startproc
	subq	$56, %rsp
	.cfi_def_cfa_offset 64
	movq	%rsi, 40(%rsp)
	movq	40(%rsp), %rsi
	movq	%rdi, 16(%rsp)
	movq	%rsi, 8(%rsp)
	movq	16(%rsp), %rax
	movq	%rax, 48(%rsp)
	movq	48(%rsp), %rcx
	movq	%rcx, (%rsp)
	movq	(%rsp), %rax
	movq	%rax, 24(%rsp)
	movq	8(%rsp), %rcx
	movq	%rcx, 32(%rsp)
	movq	24(%rsp), %rax
	movq	32(%rsp), %rdx
	addq	$56, %rsp
	.cfi_def_cfa_offset 8
	retq
.Lfunc_end58:
	.size	_ZN4core3fmt10ArgumentV13new17h932ee9f760cc8792E, .Lfunc_end58-_ZN4core3fmt10ArgumentV13new17h932ee9f760cc8792E
	.cfi_endproc

	.section	.text._ZN4core3fmt10ArgumentV13new17h9af8e774b0b45ac0E,"ax",@progbits
	.p2align	4, 0x90
	.type	_ZN4core3fmt10ArgumentV13new17h9af8e774b0b45ac0E,@function
_ZN4core3fmt10ArgumentV13new17h9af8e774b0b45ac0E:
	.cfi_startproc
	subq	$56, %rsp
	.cfi_def_cfa_offset 64
	movq	%rsi, 40(%rsp)
	movq	40(%rsp), %rsi
	movq	%rdi, 16(%rsp)
	movq	%rsi, 8(%rsp)
	movq	16(%rsp), %rax
	movq	%rax, 48(%rsp)
	movq	48(%rsp), %rcx
	movq	%rcx, (%rsp)
	movq	(%rsp), %rax
	movq	%rax, 24(%rsp)
	movq	8(%rsp), %rcx
	movq	%rcx, 32(%rsp)
	movq	24(%rsp), %rax
	movq	32(%rsp), %rdx
	addq	$56, %rsp
	.cfi_def_cfa_offset 8
	retq
.Lfunc_end59:
	.size	_ZN4core3fmt10ArgumentV13new17h9af8e774b0b45ac0E, .Lfunc_end59-_ZN4core3fmt10ArgumentV13new17h9af8e774b0b45ac0E
	.cfi_endproc

	.section	.text._ZN4core3fmt10ArgumentV13new17h9f4f20278ede914bE,"ax",@progbits
	.p2align	4, 0x90
	.type	_ZN4core3fmt10ArgumentV13new17h9f4f20278ede914bE,@function
_ZN4core3fmt10ArgumentV13new17h9f4f20278ede914bE:
	.cfi_startproc
	subq	$56, %rsp
	.cfi_def_cfa_offset 64
	movq	%rsi, 40(%rsp)
	movq	40(%rsp), %rsi
	movq	%rdi, 16(%rsp)
	movq	%rsi, 8(%rsp)
	movq	16(%rsp), %rax
	movq	%rax, 48(%rsp)
	movq	48(%rsp), %rcx
	movq	%rcx, (%rsp)
	movq	(%rsp), %rax
	movq	%rax, 24(%rsp)
	movq	8(%rsp), %rcx
	movq	%rcx, 32(%rsp)
	movq	24(%rsp), %rax
	movq	32(%rsp), %rdx
	addq	$56, %rsp
	.cfi_def_cfa_offset 8
	retq
.Lfunc_end60:
	.size	_ZN4core3fmt10ArgumentV13new17h9f4f20278ede914bE, .Lfunc_end60-_ZN4core3fmt10ArgumentV13new17h9f4f20278ede914bE
	.cfi_endproc

	.section	.text._ZN4core3fmt10ArgumentV13new17hb22ab475cf5c6e21E,"ax",@progbits
	.p2align	4, 0x90
	.type	_ZN4core3fmt10ArgumentV13new17hb22ab475cf5c6e21E,@function
_ZN4core3fmt10ArgumentV13new17hb22ab475cf5c6e21E:
	.cfi_startproc
	subq	$56, %rsp
	.cfi_def_cfa_offset 64
	movq	%rsi, 40(%rsp)
	movq	40(%rsp), %rsi
	movq	%rdi, 16(%rsp)
	movq	%rsi, 8(%rsp)
	movq	16(%rsp), %rax
	movq	%rax, 48(%rsp)
	movq	48(%rsp), %rcx
	movq	%rcx, (%rsp)
	movq	(%rsp), %rax
	movq	%rax, 24(%rsp)
	movq	8(%rsp), %rcx
	movq	%rcx, 32(%rsp)
	movq	24(%rsp), %rax
	movq	32(%rsp), %rdx
	addq	$56, %rsp
	.cfi_def_cfa_offset 8
	retq
.Lfunc_end61:
	.size	_ZN4core3fmt10ArgumentV13new17hb22ab475cf5c6e21E, .Lfunc_end61-_ZN4core3fmt10ArgumentV13new17hb22ab475cf5c6e21E
	.cfi_endproc

	.section	.text._ZN4core3fmt10ArgumentV13new17hb39a036a1d06b306E,"ax",@progbits
	.p2align	4, 0x90
	.type	_ZN4core3fmt10ArgumentV13new17hb39a036a1d06b306E,@function
_ZN4core3fmt10ArgumentV13new17hb39a036a1d06b306E:
	.cfi_startproc
	subq	$56, %rsp
	.cfi_def_cfa_offset 64
	movq	%rsi, 40(%rsp)
	movq	40(%rsp), %rsi
	movq	%rdi, 16(%rsp)
	movq	%rsi, 8(%rsp)
	movq	16(%rsp), %rax
	movq	%rax, 48(%rsp)
	movq	48(%rsp), %rcx
	movq	%rcx, (%rsp)
	movq	(%rsp), %rax
	movq	%rax, 24(%rsp)
	movq	8(%rsp), %rcx
	movq	%rcx, 32(%rsp)
	movq	24(%rsp), %rax
	movq	32(%rsp), %rdx
	addq	$56, %rsp
	.cfi_def_cfa_offset 8
	retq
.Lfunc_end62:
	.size	_ZN4core3fmt10ArgumentV13new17hb39a036a1d06b306E, .Lfunc_end62-_ZN4core3fmt10ArgumentV13new17hb39a036a1d06b306E
	.cfi_endproc

	.section	.text._ZN4core3fmt10ArgumentV13new17hbf867313cc1a17a6E,"ax",@progbits
	.p2align	4, 0x90
	.type	_ZN4core3fmt10ArgumentV13new17hbf867313cc1a17a6E,@function
_ZN4core3fmt10ArgumentV13new17hbf867313cc1a17a6E:
	.cfi_startproc
	subq	$56, %rsp
	.cfi_def_cfa_offset 64
	movq	%rsi, 40(%rsp)
	movq	40(%rsp), %rsi
	movq	%rdi, 16(%rsp)
	movq	%rsi, 8(%rsp)
	movq	16(%rsp), %rax
	movq	%rax, 48(%rsp)
	movq	48(%rsp), %rcx
	movq	%rcx, (%rsp)
	movq	(%rsp), %rax
	movq	%rax, 24(%rsp)
	movq	8(%rsp), %rcx
	movq	%rcx, 32(%rsp)
	movq	24(%rsp), %rax
	movq	32(%rsp), %rdx
	addq	$56, %rsp
	.cfi_def_cfa_offset 8
	retq
.Lfunc_end63:
	.size	_ZN4core3fmt10ArgumentV13new17hbf867313cc1a17a6E, .Lfunc_end63-_ZN4core3fmt10ArgumentV13new17hbf867313cc1a17a6E
	.cfi_endproc

	.section	.text._ZN4core3fmt10ArgumentV13new17hc350544b00c9b7e5E,"ax",@progbits
	.p2align	4, 0x90
	.type	_ZN4core3fmt10ArgumentV13new17hc350544b00c9b7e5E,@function
_ZN4core3fmt10ArgumentV13new17hc350544b00c9b7e5E:
	.cfi_startproc
	subq	$56, %rsp
	.cfi_def_cfa_offset 64
	movq	%rsi, 40(%rsp)
	movq	40(%rsp), %rsi
	movq	%rdi, 16(%rsp)
	movq	%rsi, 8(%rsp)
	movq	16(%rsp), %rax
	movq	%rax, 48(%rsp)
	movq	48(%rsp), %rcx
	movq	%rcx, (%rsp)
	movq	(%rsp), %rax
	movq	%rax, 24(%rsp)
	movq	8(%rsp), %rcx
	movq	%rcx, 32(%rsp)
	movq	24(%rsp), %rax
	movq	32(%rsp), %rdx
	addq	$56, %rsp
	.cfi_def_cfa_offset 8
	retq
.Lfunc_end64:
	.size	_ZN4core3fmt10ArgumentV13new17hc350544b00c9b7e5E, .Lfunc_end64-_ZN4core3fmt10ArgumentV13new17hc350544b00c9b7e5E
	.cfi_endproc

	.section	.text._ZN4core3fmt10ArgumentV13new17hef692d738a8d9b2bE,"ax",@progbits
	.p2align	4, 0x90
	.type	_ZN4core3fmt10ArgumentV13new17hef692d738a8d9b2bE,@function
_ZN4core3fmt10ArgumentV13new17hef692d738a8d9b2bE:
	.cfi_startproc
	subq	$56, %rsp
	.cfi_def_cfa_offset 64
	movq	%rsi, 40(%rsp)
	movq	40(%rsp), %rsi
	movq	%rdi, 16(%rsp)
	movq	%rsi, 8(%rsp)
	movq	16(%rsp), %rax
	movq	%rax, 48(%rsp)
	movq	48(%rsp), %rcx
	movq	%rcx, (%rsp)
	movq	(%rsp), %rax
	movq	%rax, 24(%rsp)
	movq	8(%rsp), %rcx
	movq	%rcx, 32(%rsp)
	movq	24(%rsp), %rax
	movq	32(%rsp), %rdx
	addq	$56, %rsp
	.cfi_def_cfa_offset 8
	retq
.Lfunc_end65:
	.size	_ZN4core3fmt10ArgumentV13new17hef692d738a8d9b2bE, .Lfunc_end65-_ZN4core3fmt10ArgumentV13new17hef692d738a8d9b2bE
	.cfi_endproc

	.section	".text._ZN4core3fmt3num50_$LT$impl$u20$core..fmt..Debug$u20$for$u20$u32$GT$3fmt17hba92653e7357acb3E","ax",@progbits
	.p2align	4, 0x90
	.type	_ZN4core3fmt3num50_$LT$impl$u20$core..fmt..Debug$u20$for$u20$u32$GT$3fmt17hba92653e7357acb3E,@function
_ZN4core3fmt3num50_$LT$impl$u20$core..fmt..Debug$u20$for$u20$u32$GT$3fmt17hba92653e7357acb3E:
	.cfi_startproc
	subq	$40, %rsp
	.cfi_def_cfa_offset 48
	movq	%rdi, 24(%rsp)
	movq	%rsi, %rdi
	movq	%rsi, 16(%rsp)
	callq	*_ZN4core3fmt9Formatter15debug_lower_hex17h9d614193026a11b5E@GOTPCREL(%rip)
	movb	%al, 15(%rsp)
	movb	15(%rsp), %al
	testb	$1, %al
	jne	.LBB66_2
	jmp	.LBB66_4
.LBB66_2:
	movq	24(%rsp), %rdi
	movq	16(%rsp), %rsi
	callq	*_ZN4core3fmt3num53_$LT$impl$u20$core..fmt..LowerHex$u20$for$u20$u32$GT$3fmt17hca6f6aba863375f0E@GOTPCREL(%rip)
	andb	$1, %al
	movb	%al, 39(%rsp)
	jmp	.LBB66_11
.LBB66_4:
	movq	16(%rsp), %rdi
	callq	*_ZN4core3fmt9Formatter15debug_upper_hex17hb3a17c3af21433f0E@GOTPCREL(%rip)
	movb	%al, 14(%rsp)
	movb	14(%rsp), %al
	testb	$1, %al
	jne	.LBB66_6
	jmp	.LBB66_8
.LBB66_6:
	movq	24(%rsp), %rdi
	movq	16(%rsp), %rsi
	callq	*_ZN4core3fmt3num53_$LT$impl$u20$core..fmt..UpperHex$u20$for$u20$u32$GT$3fmt17h6ae37a85cb64b340E@GOTPCREL(%rip)
	andb	$1, %al
	movb	%al, 39(%rsp)
	jmp	.LBB66_10
.LBB66_8:
	movq	24(%rsp), %rdi
	movq	16(%rsp), %rsi
	callq	*_ZN4core3fmt3num3imp52_$LT$impl$u20$core..fmt..Display$u20$for$u20$u32$GT$3fmt17h63c921613965607cE@GOTPCREL(%rip)
	andb	$1, %al
	movb	%al, 39(%rsp)
	jmp	.LBB66_10
.LBB66_10:
	jmp	.LBB66_11
.LBB66_11:
	movb	39(%rsp), %al
	andb	$1, %al
	movzbl	%al, %eax
	addq	$40, %rsp
	.cfi_def_cfa_offset 8
	retq
.Lfunc_end66:
	.size	_ZN4core3fmt3num50_$LT$impl$u20$core..fmt..Debug$u20$for$u20$u32$GT$3fmt17hba92653e7357acb3E, .Lfunc_end66-_ZN4core3fmt3num50_$LT$impl$u20$core..fmt..Debug$u20$for$u20$u32$GT$3fmt17hba92653e7357acb3E
	.cfi_endproc

	.section	".text._ZN4core3fmt3num52_$LT$impl$u20$core..fmt..Debug$u20$for$u20$usize$GT$3fmt17hbf1ab52420e592d6E","ax",@progbits
	.p2align	4, 0x90
	.type	_ZN4core3fmt3num52_$LT$impl$u20$core..fmt..Debug$u20$for$u20$usize$GT$3fmt17hbf1ab52420e592d6E,@function
_ZN4core3fmt3num52_$LT$impl$u20$core..fmt..Debug$u20$for$u20$usize$GT$3fmt17hbf1ab52420e592d6E:
	.cfi_startproc
	subq	$40, %rsp
	.cfi_def_cfa_offset 48
	movq	%rdi, 24(%rsp)
	movq	%rsi, %rdi
	movq	%rsi, 16(%rsp)
	callq	*_ZN4core3fmt9Formatter15debug_lower_hex17h9d614193026a11b5E@GOTPCREL(%rip)
	movb	%al, 15(%rsp)
	movb	15(%rsp), %al
	testb	$1, %al
	jne	.LBB67_2
	jmp	.LBB67_4
.LBB67_2:
	movq	24(%rsp), %rdi
	movq	16(%rsp), %rsi
	callq	*_ZN4core3fmt3num55_$LT$impl$u20$core..fmt..LowerHex$u20$for$u20$usize$GT$3fmt17h2752b1e42eb2a06bE@GOTPCREL(%rip)
	andb	$1, %al
	movb	%al, 39(%rsp)
	jmp	.LBB67_11
.LBB67_4:
	movq	16(%rsp), %rdi
	callq	*_ZN4core3fmt9Formatter15debug_upper_hex17hb3a17c3af21433f0E@GOTPCREL(%rip)
	movb	%al, 14(%rsp)
	movb	14(%rsp), %al
	testb	$1, %al
	jne	.LBB67_6
	jmp	.LBB67_8
.LBB67_6:
	movq	24(%rsp), %rdi
	movq	16(%rsp), %rsi
	callq	*_ZN4core3fmt3num55_$LT$impl$u20$core..fmt..UpperHex$u20$for$u20$usize$GT$3fmt17h1f86146cb8056ecbE@GOTPCREL(%rip)
	andb	$1, %al
	movb	%al, 39(%rsp)
	jmp	.LBB67_10
.LBB67_8:
	movq	24(%rsp), %rdi
	movq	16(%rsp), %rsi
	callq	*_ZN4core3fmt3num3imp54_$LT$impl$u20$core..fmt..Display$u20$for$u20$usize$GT$3fmt17hd894ce7814f1f2b4E@GOTPCREL(%rip)
	andb	$1, %al
	movb	%al, 39(%rsp)
	jmp	.LBB67_10
.LBB67_10:
	jmp	.LBB67_11
.LBB67_11:
	movb	39(%rsp), %al
	andb	$1, %al
	movzbl	%al, %eax
	addq	$40, %rsp
	.cfi_def_cfa_offset 8
	retq
.Lfunc_end67:
	.size	_ZN4core3fmt3num52_$LT$impl$u20$core..fmt..Debug$u20$for$u20$usize$GT$3fmt17hbf1ab52420e592d6E, .Lfunc_end67-_ZN4core3fmt3num52_$LT$impl$u20$core..fmt..Debug$u20$for$u20$usize$GT$3fmt17hbf1ab52420e592d6E
	.cfi_endproc

	.section	.text._ZN4core3fmt8builders9DebugList7entries17hde1ffe40484c5466E,"ax",@progbits
	.p2align	4, 0x90
	.type	_ZN4core3fmt8builders9DebugList7entries17hde1ffe40484c5466E,@function
_ZN4core3fmt8builders9DebugList7entries17hde1ffe40484c5466E:
.Lfunc_begin8:
	.cfi_startproc
	.cfi_personality 155, DW.ref.rust_eh_personality
	.cfi_lsda 27, .Lexception8
	subq	$120, %rsp
	.cfi_def_cfa_offset 128
	movb	$0, 103(%rsp)
	movq	%rdi, 56(%rsp)
	movq	%rsi, %rdi
	movq	%rdx, %rsi
	callq	_ZN63_$LT$I$u20$as$u20$core..iter..traits..collect..IntoIterator$GT$9into_iter17h2a98db4360d31616E
	movq	%rax, 48(%rsp)
	movq	%rdx, 40(%rsp)
	jmp	.LBB68_2
.LBB68_1:
	movq	104(%rsp), %rdi
	callq	_Unwind_Resume@PLT
	ud2
.LBB68_2:
	movq	48(%rsp), %rax
	movq	%rax, 64(%rsp)
	movq	40(%rsp), %rcx
	movq	%rcx, 72(%rsp)
.LBB68_3:
.Ltmp67:
	leaq	64(%rsp), %rdi
	callq	_ZN85_$LT$core..slice..Iter$LT$T$GT$$u20$as$u20$core..iter..traits..iterator..Iterator$GT$4next17hfc8333dd231bc597E
.Ltmp68:
	movq	%rax, 32(%rsp)
	jmp	.LBB68_5
.LBB68_4:
	jmp	.LBB68_1
.LBB68_5:
	movq	32(%rsp), %rax
	movq	%rax, 80(%rsp)
	movq	80(%rsp), %rcx
	testq	%rcx, %rcx
	setne	%dl
	movzbl	%dl, %esi
	movl	%esi, %ecx
	movq	%rcx, 24(%rsp)
	je	.LBB68_8
	jmp	.LBB68_20
.LBB68_20:
	movq	24(%rsp), %rax
	subq	$1, %rax
	movq	%rax, 16(%rsp)
	je	.LBB68_7
	jmp	.LBB68_6
.LBB68_6:
	ud2
.LBB68_7:
	xorl	%eax, %eax
	movl	%eax, %ecx
	movq	80(%rsp), %rdx
	movb	$1, 103(%rsp)
	cmpq	$0, 80(%rsp)
	movl	$1, %esi
	cmoveq	%rcx, %rsi
	cmpq	$1, %rsi
	movq	%rdx, 8(%rsp)
	je	.LBB68_16
	jmp	.LBB68_17
.LBB68_8:
	jmp	.LBB68_9
.LBB68_9:
	movb	$0, 103(%rsp)
	jmp	.LBB68_13
.LBB68_10:
	jmp	.LBB68_12
.LBB68_11:
	jmp	.LBB68_15
.LBB68_12:
	movb	$0, 103(%rsp)
	jmp	.LBB68_3
.LBB68_13:
	movq	56(%rsp), %rax
	addq	$120, %rsp
	.cfi_def_cfa_offset 8
	retq
.LBB68_14:
	.cfi_def_cfa_offset 128
	movb	$0, 103(%rsp)
	jmp	.LBB68_4
.LBB68_15:
	testb	$1, 103(%rsp)
	jne	.LBB68_14
	jmp	.LBB68_4
.LBB68_16:
	movb	$0, 103(%rsp)
	movq	8(%rsp), %rax
	movq	%rax, 88(%rsp)
.Ltmp70:
	leaq	.L__unnamed_6(%rip), %rdx
	movq	_ZN4core3fmt8builders9DebugList5entry17ha53c3d0af4f15703E@GOTPCREL(%rip), %rcx
	leaq	88(%rsp), %rsi
	movq	56(%rsp), %rdi
	callq	*%rcx
.Ltmp71:
	movq	%rax, (%rsp)
	jmp	.LBB68_10
.LBB68_17:
	jmp	.LBB68_16
.LBB68_18:
.Ltmp69:
	movl	%edx, %ecx
	movq	%rax, 104(%rsp)
	movl	%ecx, 112(%rsp)
	jmp	.LBB68_15
.LBB68_19:
.Ltmp72:
	movl	%edx, %ecx
	movq	%rax, 104(%rsp)
	movl	%ecx, 112(%rsp)
	jmp	.LBB68_11
.Lfunc_end68:
	.size	_ZN4core3fmt8builders9DebugList7entries17hde1ffe40484c5466E, .Lfunc_end68-_ZN4core3fmt8builders9DebugList7entries17hde1ffe40484c5466E
	.cfi_endproc
	.section	.gcc_except_table,"a",@progbits
	.p2align	2
GCC_except_table68:
.Lexception8:
	.byte	255
	.byte	255
	.byte	1
	.uleb128 .Lcst_end8-.Lcst_begin8
.Lcst_begin8:
	.uleb128 .Lfunc_begin8-.Lfunc_begin8
	.uleb128 .Ltmp67-.Lfunc_begin8
	.byte	0
	.byte	0
	.uleb128 .Ltmp67-.Lfunc_begin8
	.uleb128 .Ltmp68-.Ltmp67
	.uleb128 .Ltmp69-.Lfunc_begin8
	.byte	0
	.uleb128 .Ltmp70-.Lfunc_begin8
	.uleb128 .Ltmp71-.Ltmp70
	.uleb128 .Ltmp72-.Lfunc_begin8
	.byte	0
.Lcst_end8:
	.p2align	2

	.section	.text._ZN4core3fmt9Arguments6new_v117h38246756a055f81bE,"ax",@progbits
	.p2align	4, 0x90
	.type	_ZN4core3fmt9Arguments6new_v117h38246756a055f81bE,@function
_ZN4core3fmt9Arguments6new_v117h38246756a055f81bE:
	.cfi_startproc
	subq	$16, %rsp
	.cfi_def_cfa_offset 24
	movq	%rdi, %rax
	movq	$0, (%rsp)
	movq	%rsi, (%rdi)
	movq	%rdx, 8(%rdi)
	movq	(%rsp), %rdx
	movq	8(%rsp), %rsi
	movq	%rdx, 16(%rdi)
	movq	%rsi, 24(%rdi)
	movq	%rcx, 32(%rdi)
	movq	%r8, 40(%rdi)
	addq	$16, %rsp
	.cfi_def_cfa_offset 8
	retq
.Lfunc_end69:
	.size	_ZN4core3fmt9Arguments6new_v117h38246756a055f81bE, .Lfunc_end69-_ZN4core3fmt9Arguments6new_v117h38246756a055f81bE
	.cfi_endproc

	.section	.text._ZN4core3mem11size_of_val17hdaba4eecb1b554dbE,"ax",@progbits
	.p2align	4, 0x90
	.type	_ZN4core3mem11size_of_val17hdaba4eecb1b554dbE,@function
_ZN4core3mem11size_of_val17hdaba4eecb1b554dbE:
	.cfi_startproc
	subq	$24, %rsp
	.cfi_def_cfa_offset 32
	shlq	$0, %rsi
	movq	%rsi, 16(%rsp)
	movq	16(%rsp), %rax
	movq	%rdi, 8(%rsp)
	movq	%rax, (%rsp)
	movq	(%rsp), %rax
	addq	$24, %rsp
	.cfi_def_cfa_offset 8
	retq
.Lfunc_end70:
	.size	_ZN4core3mem11size_of_val17hdaba4eecb1b554dbE, .Lfunc_end70-_ZN4core3mem11size_of_val17hdaba4eecb1b554dbE
	.cfi_endproc

	.section	.text._ZN4core3mem4swap17h46e128fe17a75fbeE,"ax",@progbits
	.p2align	4, 0x90
	.type	_ZN4core3mem4swap17h46e128fe17a75fbeE,@function
_ZN4core3mem4swap17h46e128fe17a75fbeE:
	.cfi_startproc
	pushq	%rax
	.cfi_def_cfa_offset 16
	callq	_ZN4core3ptr23swap_nonoverlapping_one17h247a5f3ec3ff80bdE
	popq	%rax
	.cfi_def_cfa_offset 8
	retq
.Lfunc_end71:
	.size	_ZN4core3mem4swap17h46e128fe17a75fbeE, .Lfunc_end71-_ZN4core3mem4swap17h46e128fe17a75fbeE
	.cfi_endproc

	.section	.text._ZN4core3mem6forget17h04e71e6035cec7d8E,"ax",@progbits
	.p2align	4, 0x90
	.type	_ZN4core3mem6forget17h04e71e6035cec7d8E,@function
_ZN4core3mem6forget17h04e71e6035cec7d8E:
	.cfi_startproc
	subq	$16, %rsp
	.cfi_def_cfa_offset 24
	movq	%rdi, (%rsp)
	movq	%rsi, 8(%rsp)
	addq	$16, %rsp
	.cfi_def_cfa_offset 8
	retq
.Lfunc_end72:
	.size	_ZN4core3mem6forget17h04e71e6035cec7d8E, .Lfunc_end72-_ZN4core3mem6forget17h04e71e6035cec7d8E
	.cfi_endproc

	.section	.text._ZN4core3mem6forget17h7ece8451481b7667E,"ax",@progbits
	.p2align	4, 0x90
	.type	_ZN4core3mem6forget17h7ece8451481b7667E,@function
_ZN4core3mem6forget17h7ece8451481b7667E:
	.cfi_startproc
	subq	$16, %rsp
	.cfi_def_cfa_offset 24
	movq	%rdi, (%rsp)
	movq	%rsi, 8(%rsp)
	addq	$16, %rsp
	.cfi_def_cfa_offset 8
	retq
.Lfunc_end73:
	.size	_ZN4core3mem6forget17h7ece8451481b7667E, .Lfunc_end73-_ZN4core3mem6forget17h7ece8451481b7667E
	.cfi_endproc

	.section	.text._ZN4core3mem6forget17h9e811223138a9de9E,"ax",@progbits
	.p2align	4, 0x90
	.type	_ZN4core3mem6forget17h9e811223138a9de9E,@function
_ZN4core3mem6forget17h9e811223138a9de9E:
	.cfi_startproc
	subq	$72, %rsp
	.cfi_def_cfa_offset 80
	movq	(%rdi), %rax
	movq	%rax, 24(%rsp)
	movq	8(%rdi), %rax
	movq	%rax, 32(%rsp)
	movq	16(%rdi), %rax
	movq	%rax, 40(%rsp)
	movq	24(%rsp), %rax
	movq	%rax, 48(%rsp)
	movq	32(%rsp), %rax
	movq	%rax, 56(%rsp)
	movq	40(%rsp), %rax
	movq	%rax, 64(%rsp)
	movq	48(%rsp), %rax
	movq	%rax, (%rsp)
	movq	56(%rsp), %rax
	movq	%rax, 8(%rsp)
	movq	64(%rsp), %rax
	movq	%rax, 16(%rsp)
	addq	$72, %rsp
	.cfi_def_cfa_offset 8
	retq
.Lfunc_end74:
	.size	_ZN4core3mem6forget17h9e811223138a9de9E, .Lfunc_end74-_ZN4core3mem6forget17h9e811223138a9de9E
	.cfi_endproc

	.section	.text._ZN4core3mem6forget17hf21e0e437d6ecaa9E,"ax",@progbits
	.p2align	4, 0x90
	.type	_ZN4core3mem6forget17hf21e0e437d6ecaa9E,@function
_ZN4core3mem6forget17hf21e0e437d6ecaa9E:
	.cfi_startproc
	subq	$16, %rsp
	.cfi_def_cfa_offset 24
	movq	%rdi, (%rsp)
	movq	%rsi, 8(%rsp)
	addq	$16, %rsp
	.cfi_def_cfa_offset 8
	retq
.Lfunc_end75:
	.size	_ZN4core3mem6forget17hf21e0e437d6ecaa9E, .Lfunc_end75-_ZN4core3mem6forget17hf21e0e437d6ecaa9E
	.cfi_endproc

	.section	.text._ZN4core3mem7replace17hace80fd0e472d5dfE,"ax",@progbits
	.p2align	4, 0x90
	.type	_ZN4core3mem7replace17hace80fd0e472d5dfE,@function
_ZN4core3mem7replace17hace80fd0e472d5dfE:
.Lfunc_begin9:
	.cfi_startproc
	.cfi_personality 155, DW.ref.rust_eh_personality
	.cfi_lsda 27, .Lexception9
	subq	$40, %rsp
	.cfi_def_cfa_offset 48
	movq	%rsi, 8(%rsp)
	movq	%rdx, 16(%rsp)
.Ltmp73:
	leaq	8(%rsp), %rsi
	callq	_ZN4core3mem4swap17h46e128fe17a75fbeE
.Ltmp74:
	jmp	.LBB76_2
.LBB76_1:
	movq	24(%rsp), %rdi
	callq	_Unwind_Resume@PLT
	ud2
.LBB76_2:
	movq	8(%rsp), %rax
	movq	16(%rsp), %rdx
	addq	$40, %rsp
	.cfi_def_cfa_offset 8
	retq
.LBB76_3:
	.cfi_def_cfa_offset 48
	jmp	.LBB76_1
.LBB76_4:
.Ltmp75:
	movl	%edx, %ecx
	movq	%rax, 24(%rsp)
	movl	%ecx, 32(%rsp)
	jmp	.LBB76_3
.Lfunc_end76:
	.size	_ZN4core3mem7replace17hace80fd0e472d5dfE, .Lfunc_end76-_ZN4core3mem7replace17hace80fd0e472d5dfE
	.cfi_endproc
	.section	.gcc_except_table,"a",@progbits
	.p2align	2
GCC_except_table76:
.Lexception9:
	.byte	255
	.byte	255
	.byte	1
	.uleb128 .Lcst_end9-.Lcst_begin9
.Lcst_begin9:
	.uleb128 .Ltmp73-.Lfunc_begin9
	.uleb128 .Ltmp74-.Ltmp73
	.uleb128 .Ltmp75-.Lfunc_begin9
	.byte	0
	.uleb128 .Ltmp74-.Lfunc_begin9
	.uleb128 .Lfunc_end76-.Ltmp74
	.byte	0
	.byte	0
.Lcst_end9:
	.p2align	2

	.section	.text._ZN4core3mem7size_of17h47b2d41015953472E,"ax",@progbits
	.p2align	4, 0x90
	.type	_ZN4core3mem7size_of17h47b2d41015953472E,@function
_ZN4core3mem7size_of17h47b2d41015953472E:
	.cfi_startproc
	subq	$16, %rsp
	.cfi_def_cfa_offset 24
	movq	$4, 8(%rsp)
	movq	8(%rsp), %rax
	movq	%rax, (%rsp)
	movq	(%rsp), %rax
	addq	$16, %rsp
	.cfi_def_cfa_offset 8
	retq
.Lfunc_end77:
	.size	_ZN4core3mem7size_of17h47b2d41015953472E, .Lfunc_end77-_ZN4core3mem7size_of17h47b2d41015953472E
	.cfi_endproc

	.section	.text._ZN4core3mem7size_of17h4ac17df8cfdce96bE,"ax",@progbits
	.p2align	4, 0x90
	.type	_ZN4core3mem7size_of17h4ac17df8cfdce96bE,@function
_ZN4core3mem7size_of17h4ac17df8cfdce96bE:
	.cfi_startproc
	subq	$16, %rsp
	.cfi_def_cfa_offset 24
	movq	$16, 8(%rsp)
	movq	8(%rsp), %rax
	movq	%rax, (%rsp)
	movq	(%rsp), %rax
	addq	$16, %rsp
	.cfi_def_cfa_offset 8
	retq
.Lfunc_end78:
	.size	_ZN4core3mem7size_of17h4ac17df8cfdce96bE, .Lfunc_end78-_ZN4core3mem7size_of17h4ac17df8cfdce96bE
	.cfi_endproc

	.section	.text._ZN4core3mem7size_of17h592060904b8a69ffE,"ax",@progbits
	.p2align	4, 0x90
	.type	_ZN4core3mem7size_of17h592060904b8a69ffE,@function
_ZN4core3mem7size_of17h592060904b8a69ffE:
	.cfi_startproc
	subq	$16, %rsp
	.cfi_def_cfa_offset 24
	movq	$1, 8(%rsp)
	movq	8(%rsp), %rax
	movq	%rax, (%rsp)
	movq	(%rsp), %rax
	addq	$16, %rsp
	.cfi_def_cfa_offset 8
	retq
.Lfunc_end79:
	.size	_ZN4core3mem7size_of17h592060904b8a69ffE, .Lfunc_end79-_ZN4core3mem7size_of17h592060904b8a69ffE
	.cfi_endproc

	.section	.text._ZN4core3mem7size_of17h653a3b3c0e77a61fE,"ax",@progbits
	.p2align	4, 0x90
	.type	_ZN4core3mem7size_of17h653a3b3c0e77a61fE,@function
_ZN4core3mem7size_of17h653a3b3c0e77a61fE:
	.cfi_startproc
	subq	$16, %rsp
	.cfi_def_cfa_offset 24
	movq	$32, 8(%rsp)
	movq	8(%rsp), %rax
	movq	%rax, (%rsp)
	movq	(%rsp), %rax
	addq	$16, %rsp
	.cfi_def_cfa_offset 8
	retq
.Lfunc_end80:
	.size	_ZN4core3mem7size_of17h653a3b3c0e77a61fE, .Lfunc_end80-_ZN4core3mem7size_of17h653a3b3c0e77a61fE
	.cfi_endproc

	.section	.text._ZN4core3mem7size_of17h869455189d2d485bE,"ax",@progbits
	.p2align	4, 0x90
	.type	_ZN4core3mem7size_of17h869455189d2d485bE,@function
_ZN4core3mem7size_of17h869455189d2d485bE:
	.cfi_startproc
	subq	$16, %rsp
	.cfi_def_cfa_offset 24
	movq	$8, 8(%rsp)
	movq	8(%rsp), %rax
	movq	%rax, (%rsp)
	movq	(%rsp), %rax
	addq	$16, %rsp
	.cfi_def_cfa_offset 8
	retq
.Lfunc_end81:
	.size	_ZN4core3mem7size_of17h869455189d2d485bE, .Lfunc_end81-_ZN4core3mem7size_of17h869455189d2d485bE
	.cfi_endproc

	.section	.text._ZN4core3mem8align_of17h30a748a3d7e04e54E,"ax",@progbits
	.p2align	4, 0x90
	.type	_ZN4core3mem8align_of17h30a748a3d7e04e54E,@function
_ZN4core3mem8align_of17h30a748a3d7e04e54E:
	.cfi_startproc
	subq	$16, %rsp
	.cfi_def_cfa_offset 24
	movq	$1, 8(%rsp)
	movq	8(%rsp), %rax
	movq	%rax, (%rsp)
	movq	(%rsp), %rax
	addq	$16, %rsp
	.cfi_def_cfa_offset 8
	retq
.Lfunc_end82:
	.size	_ZN4core3mem8align_of17h30a748a3d7e04e54E, .Lfunc_end82-_ZN4core3mem8align_of17h30a748a3d7e04e54E
	.cfi_endproc

	.section	.text._ZN4core3mem8align_of17h68b0f665a0d271d2E,"ax",@progbits
	.p2align	4, 0x90
	.type	_ZN4core3mem8align_of17h68b0f665a0d271d2E,@function
_ZN4core3mem8align_of17h68b0f665a0d271d2E:
	.cfi_startproc
	subq	$16, %rsp
	.cfi_def_cfa_offset 24
	movq	$4, 8(%rsp)
	movq	8(%rsp), %rax
	movq	%rax, (%rsp)
	movq	(%rsp), %rax
	addq	$16, %rsp
	.cfi_def_cfa_offset 8
	retq
.Lfunc_end83:
	.size	_ZN4core3mem8align_of17h68b0f665a0d271d2E, .Lfunc_end83-_ZN4core3mem8align_of17h68b0f665a0d271d2E
	.cfi_endproc

	.section	.text._ZN4core3num12NonZeroUsize13new_unchecked17hf1139cab4bf22240E,"ax",@progbits
	.p2align	4, 0x90
	.type	_ZN4core3num12NonZeroUsize13new_unchecked17hf1139cab4bf22240E,@function
_ZN4core3num12NonZeroUsize13new_unchecked17hf1139cab4bf22240E:
	.cfi_startproc
	pushq	%rax
	.cfi_def_cfa_offset 16
	movq	%rdi, (%rsp)
	movq	(%rsp), %rax
	popq	%rcx
	.cfi_def_cfa_offset 8
	retq
.Lfunc_end84:
	.size	_ZN4core3num12NonZeroUsize13new_unchecked17hf1139cab4bf22240E, .Lfunc_end84-_ZN4core3num12NonZeroUsize13new_unchecked17hf1139cab4bf22240E
	.cfi_endproc

	.section	.text._ZN4core3num12NonZeroUsize3get17h5a3de4aca8950627E,"ax",@progbits
	.p2align	4, 0x90
	.type	_ZN4core3num12NonZeroUsize3get17h5a3de4aca8950627E,@function
_ZN4core3num12NonZeroUsize3get17h5a3de4aca8950627E:
	.cfi_startproc
	movq	%rdi, %rax
	retq
.Lfunc_end85:
	.size	_ZN4core3num12NonZeroUsize3get17h5a3de4aca8950627E, .Lfunc_end85-_ZN4core3num12NonZeroUsize3get17h5a3de4aca8950627E
	.cfi_endproc

	.section	".text._ZN4core3num23_$LT$impl$u20$usize$GT$11checked_add17hfd3b276676d6545cE","ax",@progbits
	.p2align	4, 0x90
	.type	_ZN4core3num23_$LT$impl$u20$usize$GT$11checked_add17hfd3b276676d6545cE,@function
_ZN4core3num23_$LT$impl$u20$usize$GT$11checked_add17hfd3b276676d6545cE:
	.cfi_startproc
	subq	$40, %rsp
	.cfi_def_cfa_offset 48
	callq	_ZN4core3num23_$LT$impl$u20$usize$GT$15overflowing_add17h41544c303faad7fcE
	movq	%rax, 16(%rsp)
	movb	%dl, 15(%rsp)
	movb	15(%rsp), %al
	testb	$1, %al
	jne	.LBB86_2
	jmp	.LBB86_3
.LBB86_2:
	movq	$0, 24(%rsp)
	jmp	.LBB86_4
.LBB86_3:
	movq	16(%rsp), %rax
	movq	%rax, 32(%rsp)
	movq	$1, 24(%rsp)
.LBB86_4:
	movq	24(%rsp), %rax
	movq	32(%rsp), %rdx
	addq	$40, %rsp
	.cfi_def_cfa_offset 8
	retq
.Lfunc_end86:
	.size	_ZN4core3num23_$LT$impl$u20$usize$GT$11checked_add17hfd3b276676d6545cE, .Lfunc_end86-_ZN4core3num23_$LT$impl$u20$usize$GT$11checked_add17hfd3b276676d6545cE
	.cfi_endproc

	.section	".text._ZN4core3num23_$LT$impl$u20$usize$GT$11checked_mul17h68611ef6e3a3d663E","ax",@progbits
	.p2align	4, 0x90
	.type	_ZN4core3num23_$LT$impl$u20$usize$GT$11checked_mul17h68611ef6e3a3d663E,@function
_ZN4core3num23_$LT$impl$u20$usize$GT$11checked_mul17h68611ef6e3a3d663E:
	.cfi_startproc
	subq	$40, %rsp
	.cfi_def_cfa_offset 48
	callq	_ZN4core3num23_$LT$impl$u20$usize$GT$15overflowing_mul17h1b5068b6ba9731f7E
	movq	%rax, 16(%rsp)
	movb	%dl, 15(%rsp)
	movb	15(%rsp), %al
	testb	$1, %al
	jne	.LBB87_2
	jmp	.LBB87_3
.LBB87_2:
	movq	$0, 24(%rsp)
	jmp	.LBB87_4
.LBB87_3:
	movq	16(%rsp), %rax
	movq	%rax, 32(%rsp)
	movq	$1, 24(%rsp)
.LBB87_4:
	movq	24(%rsp), %rax
	movq	32(%rsp), %rdx
	addq	$40, %rsp
	.cfi_def_cfa_offset 8
	retq
.Lfunc_end87:
	.size	_ZN4core3num23_$LT$impl$u20$usize$GT$11checked_mul17h68611ef6e3a3d663E, .Lfunc_end87-_ZN4core3num23_$LT$impl$u20$usize$GT$11checked_mul17h68611ef6e3a3d663E
	.cfi_endproc

	.section	".text._ZN4core3num23_$LT$impl$u20$usize$GT$12wrapping_add17h28ede189b055d8a8E","ax",@progbits
	.p2align	4, 0x90
	.type	_ZN4core3num23_$LT$impl$u20$usize$GT$12wrapping_add17h28ede189b055d8a8E,@function
_ZN4core3num23_$LT$impl$u20$usize$GT$12wrapping_add17h28ede189b055d8a8E:
	.cfi_startproc
	subq	$16, %rsp
	.cfi_def_cfa_offset 24
	addq	%rsi, %rdi
	movq	%rdi, 8(%rsp)
	movq	8(%rsp), %rax
	movq	%rax, (%rsp)
	movq	(%rsp), %rax
	addq	$16, %rsp
	.cfi_def_cfa_offset 8
	retq
.Lfunc_end88:
	.size	_ZN4core3num23_$LT$impl$u20$usize$GT$12wrapping_add17h28ede189b055d8a8E, .Lfunc_end88-_ZN4core3num23_$LT$impl$u20$usize$GT$12wrapping_add17h28ede189b055d8a8E
	.cfi_endproc

	.section	".text._ZN4core3num23_$LT$impl$u20$usize$GT$12wrapping_sub17h5bf317e30ed70c00E","ax",@progbits
	.p2align	4, 0x90
	.type	_ZN4core3num23_$LT$impl$u20$usize$GT$12wrapping_sub17h5bf317e30ed70c00E,@function
_ZN4core3num23_$LT$impl$u20$usize$GT$12wrapping_sub17h5bf317e30ed70c00E:
	.cfi_startproc
	subq	$16, %rsp
	.cfi_def_cfa_offset 24
	subq	%rsi, %rdi
	movq	%rdi, 8(%rsp)
	movq	8(%rsp), %rax
	movq	%rax, (%rsp)
	movq	(%rsp), %rax
	addq	$16, %rsp
	.cfi_def_cfa_offset 8
	retq
.Lfunc_end89:
	.size	_ZN4core3num23_$LT$impl$u20$usize$GT$12wrapping_sub17h5bf317e30ed70c00E, .Lfunc_end89-_ZN4core3num23_$LT$impl$u20$usize$GT$12wrapping_sub17h5bf317e30ed70c00E
	.cfi_endproc

	.section	".text._ZN4core3num23_$LT$impl$u20$usize$GT$14saturating_mul17h6d89b9f70b692ea8E","ax",@progbits
	.p2align	4, 0x90
	.type	_ZN4core3num23_$LT$impl$u20$usize$GT$14saturating_mul17h6d89b9f70b692ea8E,@function
_ZN4core3num23_$LT$impl$u20$usize$GT$14saturating_mul17h6d89b9f70b692ea8E:
	.cfi_startproc
	subq	$40, %rsp
	.cfi_def_cfa_offset 48
	callq	_ZN4core3num23_$LT$impl$u20$usize$GT$11checked_mul17h68611ef6e3a3d663E
	movq	%rax, 32(%rsp)
	movq	%rdx, 24(%rsp)
	callq	_ZN4core3num23_$LT$impl$u20$usize$GT$9max_value17h099bf99af4ab8d76E
	movq	%rax, 16(%rsp)
	movq	32(%rsp), %rdi
	movq	24(%rsp), %rsi
	movq	16(%rsp), %rdx
	callq	_ZN4core6option15Option$LT$T$GT$9unwrap_or17h2e8fcb3e537b7de4E
	movq	%rax, 8(%rsp)
	movq	8(%rsp), %rax
	addq	$40, %rsp
	.cfi_def_cfa_offset 8
	retq
.Lfunc_end90:
	.size	_ZN4core3num23_$LT$impl$u20$usize$GT$14saturating_mul17h6d89b9f70b692ea8E, .Lfunc_end90-_ZN4core3num23_$LT$impl$u20$usize$GT$14saturating_mul17h6d89b9f70b692ea8E
	.cfi_endproc

	.section	".text._ZN4core3num23_$LT$impl$u20$usize$GT$15is_power_of_two17h1d901604f963b0cdE","ax",@progbits
	.p2align	4, 0x90
	.type	_ZN4core3num23_$LT$impl$u20$usize$GT$15is_power_of_two17h1d901604f963b0cdE,@function
_ZN4core3num23_$LT$impl$u20$usize$GT$15is_power_of_two17h1d901604f963b0cdE:
	.cfi_startproc
	subq	$24, %rsp
	.cfi_def_cfa_offset 32
	movq	%rdi, 8(%rsp)
	movl	$1, %esi
	callq	_ZN4core3num23_$LT$impl$u20$usize$GT$12wrapping_sub17h5bf317e30ed70c00E
	movq	%rax, (%rsp)
	jmp	.LBB91_4
.LBB91_1:
	movb	$0, 23(%rsp)
	jmp	.LBB91_3
.LBB91_2:
	movq	8(%rsp), %rax
	cmpq	$0, %rax
	sete	%cl
	xorb	$-1, %cl
	andb	$1, %cl
	movb	%cl, 23(%rsp)
.LBB91_3:
	movb	23(%rsp), %al
	andb	$1, %al
	movzbl	%al, %eax
	addq	$24, %rsp
	.cfi_def_cfa_offset 8
	retq
.LBB91_4:
	.cfi_def_cfa_offset 32
	movq	(%rsp), %rax
	movq	8(%rsp), %rcx
	andq	%rcx, %rax
	cmpq	$0, %rax
	je	.LBB91_2
	jmp	.LBB91_1
.Lfunc_end91:
	.size	_ZN4core3num23_$LT$impl$u20$usize$GT$15is_power_of_two17h1d901604f963b0cdE, .Lfunc_end91-_ZN4core3num23_$LT$impl$u20$usize$GT$15is_power_of_two17h1d901604f963b0cdE
	.cfi_endproc

	.section	".text._ZN4core3num23_$LT$impl$u20$usize$GT$15overflowing_add17h41544c303faad7fcE","ax",@progbits
	.p2align	4, 0x90
	.type	_ZN4core3num23_$LT$impl$u20$usize$GT$15overflowing_add17h41544c303faad7fcE,@function
_ZN4core3num23_$LT$impl$u20$usize$GT$15overflowing_add17h41544c303faad7fcE:
	.cfi_startproc
	subq	$48, %rsp
	.cfi_def_cfa_offset 56
	addq	%rsi, %rdi
	setb	%al
	andb	$1, %al
	movq	%rdi, 32(%rsp)
	movb	%al, 40(%rsp)
	movq	32(%rsp), %rsi
	movb	40(%rsp), %al
	movq	%rsi, 8(%rsp)
	movb	%al, 7(%rsp)
	movq	8(%rsp), %rax
	movq	%rax, 16(%rsp)
	movb	7(%rsp), %cl
	andb	$1, %cl
	movb	%cl, 24(%rsp)
	movq	16(%rsp), %rax
	movb	24(%rsp), %dl
	addq	$48, %rsp
	.cfi_def_cfa_offset 8
	retq
.Lfunc_end92:
	.size	_ZN4core3num23_$LT$impl$u20$usize$GT$15overflowing_add17h41544c303faad7fcE, .Lfunc_end92-_ZN4core3num23_$LT$impl$u20$usize$GT$15overflowing_add17h41544c303faad7fcE
	.cfi_endproc

	.section	".text._ZN4core3num23_$LT$impl$u20$usize$GT$15overflowing_mul17h1b5068b6ba9731f7E","ax",@progbits
	.p2align	4, 0x90
	.type	_ZN4core3num23_$LT$impl$u20$usize$GT$15overflowing_mul17h1b5068b6ba9731f7E,@function
_ZN4core3num23_$LT$impl$u20$usize$GT$15overflowing_mul17h1b5068b6ba9731f7E:
	.cfi_startproc
	subq	$48, %rsp
	.cfi_def_cfa_offset 56
	movq	%rdi, %rax
	mulq	%rsi
	seto	%cl
	andb	$1, %cl
	movq	%rax, 32(%rsp)
	movb	%cl, 40(%rsp)
	movq	32(%rsp), %rax
	movb	40(%rsp), %cl
	movq	%rax, 8(%rsp)
	movb	%cl, 7(%rsp)
	movq	8(%rsp), %rax
	movq	%rax, 16(%rsp)
	movb	7(%rsp), %cl
	andb	$1, %cl
	movb	%cl, 24(%rsp)
	movq	16(%rsp), %rax
	movb	24(%rsp), %dl
	addq	$48, %rsp
	.cfi_def_cfa_offset 8
	retq
.Lfunc_end93:
	.size	_ZN4core3num23_$LT$impl$u20$usize$GT$15overflowing_mul17h1b5068b6ba9731f7E, .Lfunc_end93-_ZN4core3num23_$LT$impl$u20$usize$GT$15overflowing_mul17h1b5068b6ba9731f7E
	.cfi_endproc

	.section	".text._ZN4core3num23_$LT$impl$u20$usize$GT$9max_value17h099bf99af4ab8d76E","ax",@progbits
	.p2align	4, 0x90
	.type	_ZN4core3num23_$LT$impl$u20$usize$GT$9max_value17h099bf99af4ab8d76E,@function
_ZN4core3num23_$LT$impl$u20$usize$GT$9max_value17h099bf99af4ab8d76E:
	.cfi_startproc
	movq	$-1, %rax
	retq
.Lfunc_end94:
	.size	_ZN4core3num23_$LT$impl$u20$usize$GT$9max_value17h099bf99af4ab8d76E, .Lfunc_end94-_ZN4core3num23_$LT$impl$u20$usize$GT$9max_value17h099bf99af4ab8d76E
	.cfi_endproc

	.section	".text._ZN4core3ops5range25RangeInclusive$LT$Idx$GT$3end17hea3f1cac3f2441e2E","ax",@progbits
	.p2align	4, 0x90
	.type	_ZN4core3ops5range25RangeInclusive$LT$Idx$GT$3end17hea3f1cac3f2441e2E,@function
_ZN4core3ops5range25RangeInclusive$LT$Idx$GT$3end17hea3f1cac3f2441e2E:
	.cfi_startproc
	addq	$8, %rdi
	movq	%rdi, %rax
	retq
.Lfunc_end95:
	.size	_ZN4core3ops5range25RangeInclusive$LT$Idx$GT$3end17hea3f1cac3f2441e2E, .Lfunc_end95-_ZN4core3ops5range25RangeInclusive$LT$Idx$GT$3end17hea3f1cac3f2441e2E
	.cfi_endproc

	.section	".text._ZN4core3ops5range25RangeInclusive$LT$Idx$GT$3new17h5eff3040b4fbc566E","ax",@progbits
	.p2align	4, 0x90
	.type	_ZN4core3ops5range25RangeInclusive$LT$Idx$GT$3new17h5eff3040b4fbc566E,@function
_ZN4core3ops5range25RangeInclusive$LT$Idx$GT$3new17h5eff3040b4fbc566E:
	.cfi_startproc
	subq	$1, %rsp
	.cfi_def_cfa_offset 9
	movq	%rdi, %rax
	movb	$2, (%rsp)
	movq	%rsi, (%rdi)
	movq	%rdx, 8(%rdi)
	movb	(%rsp), %cl
	movb	%cl, 16(%rdi)
	addq	$1, %rsp
	.cfi_def_cfa_offset 8
	retq
.Lfunc_end96:
	.size	_ZN4core3ops5range25RangeInclusive$LT$Idx$GT$3new17h5eff3040b4fbc566E, .Lfunc_end96-_ZN4core3ops5range25RangeInclusive$LT$Idx$GT$3new17h5eff3040b4fbc566E
	.cfi_endproc

	.section	".text._ZN4core3ops5range25RangeInclusive$LT$Idx$GT$5start17h5c37d85b7fea163dE","ax",@progbits
	.p2align	4, 0x90
	.type	_ZN4core3ops5range25RangeInclusive$LT$Idx$GT$5start17h5c37d85b7fea163dE,@function
_ZN4core3ops5range25RangeInclusive$LT$Idx$GT$5start17h5c37d85b7fea163dE:
	.cfi_startproc
	movq	%rdi, %rax
	retq
.Lfunc_end97:
	.size	_ZN4core3ops5range25RangeInclusive$LT$Idx$GT$5start17h5c37d85b7fea163dE, .Lfunc_end97-_ZN4core3ops5range25RangeInclusive$LT$Idx$GT$5start17h5c37d85b7fea163dE
	.cfi_endproc

	.section	.text._ZN4core3ops8function5FnMut8call_mut17hc1baed387f1f99c3E,"ax",@progbits
	.p2align	4, 0x90
	.type	_ZN4core3ops8function5FnMut8call_mut17hc1baed387f1f99c3E,@function
_ZN4core3ops8function5FnMut8call_mut17hc1baed387f1f99c3E:
	.cfi_startproc
	subq	$24, %rsp
	.cfi_def_cfa_offset 32
	movl	%esi, 16(%rsp)
	movl	%edx, 20(%rsp)
	movl	16(%rsp), %edx
	movl	20(%rsp), %esi
	movq	%rdi, 8(%rsp)
	movl	%edx, %edi
	callq	_ZN45_$LT$u32$u20$as$u20$core..ops..arith..Add$GT$3add17h2e9cd31ac4d96060E
	movl	%eax, 4(%rsp)
	movl	4(%rsp), %eax
	addq	$24, %rsp
	.cfi_def_cfa_offset 8
	retq
.Lfunc_end98:
	.size	_ZN4core3ops8function5FnMut8call_mut17hc1baed387f1f99c3E, .Lfunc_end98-_ZN4core3ops8function5FnMut8call_mut17hc1baed387f1f99c3E
	.cfi_endproc

	.section	".text._ZN4core3ops8function6FnOnce40call_once$u7b$$u7b$vtable.shim$u7d$$u7d$17hae663ab919a77e25E","ax",@progbits
	.p2align	4, 0x90
	.type	_ZN4core3ops8function6FnOnce40call_once$u7b$$u7b$vtable.shim$u7d$$u7d$17hae663ab919a77e25E,@function
_ZN4core3ops8function6FnOnce40call_once$u7b$$u7b$vtable.shim$u7d$$u7d$17hae663ab919a77e25E:
	.cfi_startproc
	subq	$24, %rsp
	.cfi_def_cfa_offset 32
	movq	(%rdi), %rdi
	callq	_ZN4core3ops8function6FnOnce9call_once17h91469acd2a3ab7f2E
	movl	%eax, 12(%rsp)
	movl	12(%rsp), %eax
	addq	$24, %rsp
	.cfi_def_cfa_offset 8
	retq
.Lfunc_end99:
	.size	_ZN4core3ops8function6FnOnce40call_once$u7b$$u7b$vtable.shim$u7d$$u7d$17hae663ab919a77e25E, .Lfunc_end99-_ZN4core3ops8function6FnOnce40call_once$u7b$$u7b$vtable.shim$u7d$$u7d$17hae663ab919a77e25E
	.cfi_endproc

	.section	.text._ZN4core3ops8function6FnOnce9call_once17h91469acd2a3ab7f2E,"ax",@progbits
	.p2align	4, 0x90
	.type	_ZN4core3ops8function6FnOnce9call_once17h91469acd2a3ab7f2E,@function
_ZN4core3ops8function6FnOnce9call_once17h91469acd2a3ab7f2E:
.Lfunc_begin10:
	.cfi_startproc
	.cfi_personality 155, DW.ref.rust_eh_personality
	.cfi_lsda 27, .Lexception10
	subq	$40, %rsp
	.cfi_def_cfa_offset 48
	movq	%rdi, 8(%rsp)
.Ltmp76:
	leaq	8(%rsp), %rdi
	callq	_ZN3std2rt10lang_start28_$u7b$$u7b$closure$u7d$$u7d$17h0e190d26b7152ab9E
.Ltmp77:
	movl	%eax, 4(%rsp)
	jmp	.LBB100_1
.LBB100_1:
	jmp	.LBB100_2
.LBB100_2:
	movl	4(%rsp), %eax
	addq	$40, %rsp
	.cfi_def_cfa_offset 8
	retq
.LBB100_3:
	.cfi_def_cfa_offset 48
	jmp	.LBB100_4
.LBB100_4:
	movq	24(%rsp), %rdi
	callq	_Unwind_Resume@PLT
	ud2
.LBB100_5:
.Ltmp78:
	movl	%edx, %ecx
	movq	%rax, 24(%rsp)
	movl	%ecx, 32(%rsp)
	jmp	.LBB100_3
.Lfunc_end100:
	.size	_ZN4core3ops8function6FnOnce9call_once17h91469acd2a3ab7f2E, .Lfunc_end100-_ZN4core3ops8function6FnOnce9call_once17h91469acd2a3ab7f2E
	.cfi_endproc
	.section	.gcc_except_table,"a",@progbits
	.p2align	2
GCC_except_table100:
.Lexception10:
	.byte	255
	.byte	255
	.byte	1
	.uleb128 .Lcst_end10-.Lcst_begin10
.Lcst_begin10:
	.uleb128 .Ltmp76-.Lfunc_begin10
	.uleb128 .Ltmp77-.Ltmp76
	.uleb128 .Ltmp78-.Lfunc_begin10
	.byte	0
	.uleb128 .Ltmp77-.Lfunc_begin10
	.uleb128 .Lfunc_end100-.Ltmp77
	.byte	0
	.byte	0
.Lcst_end10:
	.p2align	2

	.section	".text._ZN4core3ptr15Unique$LT$T$GT$13new_unchecked17h1d5febaaa742953fE","ax",@progbits
	.p2align	4, 0x90
	.type	_ZN4core3ptr15Unique$LT$T$GT$13new_unchecked17h1d5febaaa742953fE,@function
_ZN4core3ptr15Unique$LT$T$GT$13new_unchecked17h1d5febaaa742953fE:
	.cfi_startproc
	subq	$24, %rsp
	.cfi_def_cfa_offset 32
	movq	%rdi, (%rsp)
	movq	%rsi, 8(%rsp)
	movq	(%rsp), %rax
	movq	8(%rsp), %rdx
	addq	$24, %rsp
	.cfi_def_cfa_offset 8
	retq
.Lfunc_end101:
	.size	_ZN4core3ptr15Unique$LT$T$GT$13new_unchecked17h1d5febaaa742953fE, .Lfunc_end101-_ZN4core3ptr15Unique$LT$T$GT$13new_unchecked17h1d5febaaa742953fE
	.cfi_endproc

	.section	".text._ZN4core3ptr15Unique$LT$T$GT$13new_unchecked17h2f9ecae88fdfd6ecE","ax",@progbits
	.p2align	4, 0x90
	.type	_ZN4core3ptr15Unique$LT$T$GT$13new_unchecked17h2f9ecae88fdfd6ecE,@function
_ZN4core3ptr15Unique$LT$T$GT$13new_unchecked17h2f9ecae88fdfd6ecE:
	.cfi_startproc
	subq	$16, %rsp
	.cfi_def_cfa_offset 24
	movq	%rdi, (%rsp)
	movq	(%rsp), %rax
	addq	$16, %rsp
	.cfi_def_cfa_offset 8
	retq
.Lfunc_end102:
	.size	_ZN4core3ptr15Unique$LT$T$GT$13new_unchecked17h2f9ecae88fdfd6ecE, .Lfunc_end102-_ZN4core3ptr15Unique$LT$T$GT$13new_unchecked17h2f9ecae88fdfd6ecE
	.cfi_endproc

	.section	".text._ZN4core3ptr15Unique$LT$T$GT$13new_unchecked17hd010d6ba620ea1c8E","ax",@progbits
	.p2align	4, 0x90
	.type	_ZN4core3ptr15Unique$LT$T$GT$13new_unchecked17hd010d6ba620ea1c8E,@function
_ZN4core3ptr15Unique$LT$T$GT$13new_unchecked17hd010d6ba620ea1c8E:
	.cfi_startproc
	subq	$24, %rsp
	.cfi_def_cfa_offset 32
	movq	%rdi, (%rsp)
	movq	%rsi, 8(%rsp)
	movq	(%rsp), %rax
	movq	8(%rsp), %rdx
	addq	$24, %rsp
	.cfi_def_cfa_offset 8
	retq
.Lfunc_end103:
	.size	_ZN4core3ptr15Unique$LT$T$GT$13new_unchecked17hd010d6ba620ea1c8E, .Lfunc_end103-_ZN4core3ptr15Unique$LT$T$GT$13new_unchecked17hd010d6ba620ea1c8E
	.cfi_endproc

	.section	".text._ZN4core3ptr15Unique$LT$T$GT$13new_unchecked17hfeb95b4af03c3c1eE","ax",@progbits
	.p2align	4, 0x90
	.type	_ZN4core3ptr15Unique$LT$T$GT$13new_unchecked17hfeb95b4af03c3c1eE,@function
_ZN4core3ptr15Unique$LT$T$GT$13new_unchecked17hfeb95b4af03c3c1eE:
	.cfi_startproc
	subq	$16, %rsp
	.cfi_def_cfa_offset 24
	movq	%rdi, (%rsp)
	movq	(%rsp), %rax
	addq	$16, %rsp
	.cfi_def_cfa_offset 8
	retq
.Lfunc_end104:
	.size	_ZN4core3ptr15Unique$LT$T$GT$13new_unchecked17hfeb95b4af03c3c1eE, .Lfunc_end104-_ZN4core3ptr15Unique$LT$T$GT$13new_unchecked17hfeb95b4af03c3c1eE
	.cfi_endproc

	.section	".text._ZN4core3ptr15Unique$LT$T$GT$5empty17hd321f0f9ff9ca28fE","ax",@progbits
	.p2align	4, 0x90
	.type	_ZN4core3ptr15Unique$LT$T$GT$5empty17hd321f0f9ff9ca28fE,@function
_ZN4core3ptr15Unique$LT$T$GT$5empty17hd321f0f9ff9ca28fE:
	.cfi_startproc
	subq	$24, %rsp
	.cfi_def_cfa_offset 32
	callq	_ZN4core3mem8align_of17h30a748a3d7e04e54E
	movq	%rax, 16(%rsp)
	movq	16(%rsp), %rdi
	callq	_ZN4core3ptr15Unique$LT$T$GT$13new_unchecked17hfeb95b4af03c3c1eE
	movq	%rax, 8(%rsp)
	movq	8(%rsp), %rax
	addq	$24, %rsp
	.cfi_def_cfa_offset 8
	retq
.Lfunc_end105:
	.size	_ZN4core3ptr15Unique$LT$T$GT$5empty17hd321f0f9ff9ca28fE, .Lfunc_end105-_ZN4core3ptr15Unique$LT$T$GT$5empty17hd321f0f9ff9ca28fE
	.cfi_endproc

	.section	".text._ZN4core3ptr15Unique$LT$T$GT$6as_mut17h384aeb6572b7aa42E","ax",@progbits
	.p2align	4, 0x90
	.type	_ZN4core3ptr15Unique$LT$T$GT$6as_mut17h384aeb6572b7aa42E,@function
_ZN4core3ptr15Unique$LT$T$GT$6as_mut17h384aeb6572b7aa42E:
	.cfi_startproc
	subq	$24, %rsp
	.cfi_def_cfa_offset 32
	movq	(%rdi), %rax
	movq	8(%rdi), %rsi
	movq	%rax, %rdi
	callq	_ZN4core3ptr15Unique$LT$T$GT$6as_ptr17hf5d4a504bf78f1feE
	movq	%rax, 16(%rsp)
	movq	%rdx, 8(%rsp)
	movq	16(%rsp), %rax
	movq	8(%rsp), %rdx
	addq	$24, %rsp
	.cfi_def_cfa_offset 8
	retq
.Lfunc_end106:
	.size	_ZN4core3ptr15Unique$LT$T$GT$6as_mut17h384aeb6572b7aa42E, .Lfunc_end106-_ZN4core3ptr15Unique$LT$T$GT$6as_mut17h384aeb6572b7aa42E
	.cfi_endproc

	.section	".text._ZN4core3ptr15Unique$LT$T$GT$6as_ptr17h1b98ca4267d7e44dE","ax",@progbits
	.p2align	4, 0x90
	.type	_ZN4core3ptr15Unique$LT$T$GT$6as_ptr17h1b98ca4267d7e44dE,@function
_ZN4core3ptr15Unique$LT$T$GT$6as_ptr17h1b98ca4267d7e44dE:
	.cfi_startproc
	movq	%rdi, %rax
	retq
.Lfunc_end107:
	.size	_ZN4core3ptr15Unique$LT$T$GT$6as_ptr17h1b98ca4267d7e44dE, .Lfunc_end107-_ZN4core3ptr15Unique$LT$T$GT$6as_ptr17h1b98ca4267d7e44dE
	.cfi_endproc

	.section	".text._ZN4core3ptr15Unique$LT$T$GT$6as_ptr17h599909fd1fadc6feE","ax",@progbits
	.p2align	4, 0x90
	.type	_ZN4core3ptr15Unique$LT$T$GT$6as_ptr17h599909fd1fadc6feE,@function
_ZN4core3ptr15Unique$LT$T$GT$6as_ptr17h599909fd1fadc6feE:
	.cfi_startproc
	movq	%rdi, %rax
	movq	%rsi, %rdx
	retq
.Lfunc_end108:
	.size	_ZN4core3ptr15Unique$LT$T$GT$6as_ptr17h599909fd1fadc6feE, .Lfunc_end108-_ZN4core3ptr15Unique$LT$T$GT$6as_ptr17h599909fd1fadc6feE
	.cfi_endproc

	.section	".text._ZN4core3ptr15Unique$LT$T$GT$6as_ptr17h9575c479c876339aE","ax",@progbits
	.p2align	4, 0x90
	.type	_ZN4core3ptr15Unique$LT$T$GT$6as_ptr17h9575c479c876339aE,@function
_ZN4core3ptr15Unique$LT$T$GT$6as_ptr17h9575c479c876339aE:
	.cfi_startproc
	movq	%rdi, %rax
	movq	%rsi, %rdx
	retq
.Lfunc_end109:
	.size	_ZN4core3ptr15Unique$LT$T$GT$6as_ptr17h9575c479c876339aE, .Lfunc_end109-_ZN4core3ptr15Unique$LT$T$GT$6as_ptr17h9575c479c876339aE
	.cfi_endproc

	.section	".text._ZN4core3ptr15Unique$LT$T$GT$6as_ptr17ha4a7cb001933ffbdE","ax",@progbits
	.p2align	4, 0x90
	.type	_ZN4core3ptr15Unique$LT$T$GT$6as_ptr17ha4a7cb001933ffbdE,@function
_ZN4core3ptr15Unique$LT$T$GT$6as_ptr17ha4a7cb001933ffbdE:
	.cfi_startproc
	movq	%rdi, %rax
	retq
.Lfunc_end110:
	.size	_ZN4core3ptr15Unique$LT$T$GT$6as_ptr17ha4a7cb001933ffbdE, .Lfunc_end110-_ZN4core3ptr15Unique$LT$T$GT$6as_ptr17ha4a7cb001933ffbdE
	.cfi_endproc

	.section	".text._ZN4core3ptr15Unique$LT$T$GT$6as_ptr17hc3c744971eb678aaE","ax",@progbits
	.p2align	4, 0x90
	.type	_ZN4core3ptr15Unique$LT$T$GT$6as_ptr17hc3c744971eb678aaE,@function
_ZN4core3ptr15Unique$LT$T$GT$6as_ptr17hc3c744971eb678aaE:
	.cfi_startproc
	movq	%rdi, %rax
	movq	%rsi, %rdx
	retq
.Lfunc_end111:
	.size	_ZN4core3ptr15Unique$LT$T$GT$6as_ptr17hc3c744971eb678aaE, .Lfunc_end111-_ZN4core3ptr15Unique$LT$T$GT$6as_ptr17hc3c744971eb678aaE
	.cfi_endproc

	.section	".text._ZN4core3ptr15Unique$LT$T$GT$6as_ptr17hc830104fced25063E","ax",@progbits
	.p2align	4, 0x90
	.type	_ZN4core3ptr15Unique$LT$T$GT$6as_ptr17hc830104fced25063E,@function
_ZN4core3ptr15Unique$LT$T$GT$6as_ptr17hc830104fced25063E:
	.cfi_startproc
	movq	%rdi, %rax
	retq
.Lfunc_end112:
	.size	_ZN4core3ptr15Unique$LT$T$GT$6as_ptr17hc830104fced25063E, .Lfunc_end112-_ZN4core3ptr15Unique$LT$T$GT$6as_ptr17hc830104fced25063E
	.cfi_endproc

	.section	".text._ZN4core3ptr15Unique$LT$T$GT$6as_ptr17hf5d4a504bf78f1feE","ax",@progbits
	.p2align	4, 0x90
	.type	_ZN4core3ptr15Unique$LT$T$GT$6as_ptr17hf5d4a504bf78f1feE,@function
_ZN4core3ptr15Unique$LT$T$GT$6as_ptr17hf5d4a504bf78f1feE:
	.cfi_startproc
	movq	%rdi, %rax
	movq	%rsi, %rdx
	retq
.Lfunc_end113:
	.size	_ZN4core3ptr15Unique$LT$T$GT$6as_ptr17hf5d4a504bf78f1feE, .Lfunc_end113-_ZN4core3ptr15Unique$LT$T$GT$6as_ptr17hf5d4a504bf78f1feE
	.cfi_endproc

	.section	".text._ZN4core3ptr16NonNull$LT$T$GT$13new_unchecked17h45308fd7d572427bE","ax",@progbits
	.p2align	4, 0x90
	.type	_ZN4core3ptr16NonNull$LT$T$GT$13new_unchecked17h45308fd7d572427bE,@function
_ZN4core3ptr16NonNull$LT$T$GT$13new_unchecked17h45308fd7d572427bE:
	.cfi_startproc
	pushq	%rax
	.cfi_def_cfa_offset 16
	movq	%rdi, (%rsp)
	movq	(%rsp), %rax
	popq	%rcx
	.cfi_def_cfa_offset 8
	retq
.Lfunc_end114:
	.size	_ZN4core3ptr16NonNull$LT$T$GT$13new_unchecked17h45308fd7d572427bE, .Lfunc_end114-_ZN4core3ptr16NonNull$LT$T$GT$13new_unchecked17h45308fd7d572427bE
	.cfi_endproc

	.section	".text._ZN4core3ptr16NonNull$LT$T$GT$13new_unchecked17h6c77f66d42498671E","ax",@progbits
	.p2align	4, 0x90
	.type	_ZN4core3ptr16NonNull$LT$T$GT$13new_unchecked17h6c77f66d42498671E,@function
_ZN4core3ptr16NonNull$LT$T$GT$13new_unchecked17h6c77f66d42498671E:
	.cfi_startproc
	pushq	%rax
	.cfi_def_cfa_offset 16
	movq	%rdi, (%rsp)
	movq	(%rsp), %rax
	popq	%rcx
	.cfi_def_cfa_offset 8
	retq
.Lfunc_end115:
	.size	_ZN4core3ptr16NonNull$LT$T$GT$13new_unchecked17h6c77f66d42498671E, .Lfunc_end115-_ZN4core3ptr16NonNull$LT$T$GT$13new_unchecked17h6c77f66d42498671E
	.cfi_endproc

	.section	".text._ZN4core3ptr16NonNull$LT$T$GT$3new17hcab81e40f261e30aE","ax",@progbits
	.p2align	4, 0x90
	.type	_ZN4core3ptr16NonNull$LT$T$GT$3new17hcab81e40f261e30aE,@function
_ZN4core3ptr16NonNull$LT$T$GT$3new17hcab81e40f261e30aE:
	.cfi_startproc
	subq	$40, %rsp
	.cfi_def_cfa_offset 48
	movq	%rdi, 24(%rsp)
	callq	_ZN4core3ptr31_$LT$impl$u20$$BP$mut$u20$T$GT$7is_null17h81630a2ce924e9baE
	movb	%al, 23(%rsp)
	movb	23(%rsp), %al
	xorb	$-1, %al
	testb	$1, %al
	jne	.LBB116_2
	jmp	.LBB116_4
.LBB116_2:
	movq	24(%rsp), %rdi
	callq	_ZN4core3ptr16NonNull$LT$T$GT$13new_unchecked17h45308fd7d572427bE
	movq	%rax, 8(%rsp)
	movq	8(%rsp), %rax
	movq	%rax, 32(%rsp)
	jmp	.LBB116_5
.LBB116_4:
	movq	$0, 32(%rsp)
.LBB116_5:
	movq	32(%rsp), %rax
	addq	$40, %rsp
	.cfi_def_cfa_offset 8
	retq
.Lfunc_end116:
	.size	_ZN4core3ptr16NonNull$LT$T$GT$3new17hcab81e40f261e30aE, .Lfunc_end116-_ZN4core3ptr16NonNull$LT$T$GT$3new17hcab81e40f261e30aE
	.cfi_endproc

	.section	".text._ZN4core3ptr16NonNull$LT$T$GT$4cast17h4035dd144b5d99feE","ax",@progbits
	.p2align	4, 0x90
	.type	_ZN4core3ptr16NonNull$LT$T$GT$4cast17h4035dd144b5d99feE,@function
_ZN4core3ptr16NonNull$LT$T$GT$4cast17h4035dd144b5d99feE:
	.cfi_startproc
	subq	$24, %rsp
	.cfi_def_cfa_offset 32
	callq	_ZN4core3ptr16NonNull$LT$T$GT$6as_ptr17h6469e4b4c471b6b6E
	movq	%rax, 16(%rsp)
	movq	16(%rsp), %rax
	movq	%rax, %rdi
	callq	_ZN4core3ptr16NonNull$LT$T$GT$13new_unchecked17h45308fd7d572427bE
	movq	%rax, 8(%rsp)
	movq	8(%rsp), %rax
	addq	$24, %rsp
	.cfi_def_cfa_offset 8
	retq
.Lfunc_end117:
	.size	_ZN4core3ptr16NonNull$LT$T$GT$4cast17h4035dd144b5d99feE, .Lfunc_end117-_ZN4core3ptr16NonNull$LT$T$GT$4cast17h4035dd144b5d99feE
	.cfi_endproc

	.section	".text._ZN4core3ptr16NonNull$LT$T$GT$4cast17h917ddd2da8eca91cE","ax",@progbits
	.p2align	4, 0x90
	.type	_ZN4core3ptr16NonNull$LT$T$GT$4cast17h917ddd2da8eca91cE,@function
_ZN4core3ptr16NonNull$LT$T$GT$4cast17h917ddd2da8eca91cE:
	.cfi_startproc
	subq	$24, %rsp
	.cfi_def_cfa_offset 32
	callq	_ZN4core3ptr16NonNull$LT$T$GT$6as_ptr17h199e06d7666ffc1bE
	movq	%rax, 16(%rsp)
	movq	16(%rsp), %rdi
	callq	_ZN4core3ptr16NonNull$LT$T$GT$13new_unchecked17h45308fd7d572427bE
	movq	%rax, 8(%rsp)
	movq	8(%rsp), %rax
	addq	$24, %rsp
	.cfi_def_cfa_offset 8
	retq
.Lfunc_end118:
	.size	_ZN4core3ptr16NonNull$LT$T$GT$4cast17h917ddd2da8eca91cE, .Lfunc_end118-_ZN4core3ptr16NonNull$LT$T$GT$4cast17h917ddd2da8eca91cE
	.cfi_endproc

	.section	".text._ZN4core3ptr16NonNull$LT$T$GT$4cast17hd4dc68bb516297e0E","ax",@progbits
	.p2align	4, 0x90
	.type	_ZN4core3ptr16NonNull$LT$T$GT$4cast17hd4dc68bb516297e0E,@function
_ZN4core3ptr16NonNull$LT$T$GT$4cast17hd4dc68bb516297e0E:
	.cfi_startproc
	subq	$24, %rsp
	.cfi_def_cfa_offset 32
	callq	_ZN4core3ptr16NonNull$LT$T$GT$6as_ptr17h199e06d7666ffc1bE
	movq	%rax, 16(%rsp)
	movq	16(%rsp), %rax
	movq	%rax, %rdi
	callq	_ZN4core3ptr16NonNull$LT$T$GT$13new_unchecked17h6c77f66d42498671E
	movq	%rax, 8(%rsp)
	movq	8(%rsp), %rax
	addq	$24, %rsp
	.cfi_def_cfa_offset 8
	retq
.Lfunc_end119:
	.size	_ZN4core3ptr16NonNull$LT$T$GT$4cast17hd4dc68bb516297e0E, .Lfunc_end119-_ZN4core3ptr16NonNull$LT$T$GT$4cast17hd4dc68bb516297e0E
	.cfi_endproc

	.section	".text._ZN4core3ptr16NonNull$LT$T$GT$6as_ptr17h199e06d7666ffc1bE","ax",@progbits
	.p2align	4, 0x90
	.type	_ZN4core3ptr16NonNull$LT$T$GT$6as_ptr17h199e06d7666ffc1bE,@function
_ZN4core3ptr16NonNull$LT$T$GT$6as_ptr17h199e06d7666ffc1bE:
	.cfi_startproc
	movq	%rdi, %rax
	retq
.Lfunc_end120:
	.size	_ZN4core3ptr16NonNull$LT$T$GT$6as_ptr17h199e06d7666ffc1bE, .Lfunc_end120-_ZN4core3ptr16NonNull$LT$T$GT$6as_ptr17h199e06d7666ffc1bE
	.cfi_endproc

	.section	".text._ZN4core3ptr16NonNull$LT$T$GT$6as_ptr17h6469e4b4c471b6b6E","ax",@progbits
	.p2align	4, 0x90
	.type	_ZN4core3ptr16NonNull$LT$T$GT$6as_ptr17h6469e4b4c471b6b6E,@function
_ZN4core3ptr16NonNull$LT$T$GT$6as_ptr17h6469e4b4c471b6b6E:
	.cfi_startproc
	movq	%rdi, %rax
	retq
.Lfunc_end121:
	.size	_ZN4core3ptr16NonNull$LT$T$GT$6as_ptr17h6469e4b4c471b6b6E, .Lfunc_end121-_ZN4core3ptr16NonNull$LT$T$GT$6as_ptr17h6469e4b4c471b6b6E
	.cfi_endproc

	.section	".text._ZN4core3ptr16NonNull$LT$T$GT$6as_ptr17hd9b5cf9919129599E","ax",@progbits
	.p2align	4, 0x90
	.type	_ZN4core3ptr16NonNull$LT$T$GT$6as_ptr17hd9b5cf9919129599E,@function
_ZN4core3ptr16NonNull$LT$T$GT$6as_ptr17hd9b5cf9919129599E:
	.cfi_startproc
	movq	%rdi, %rax
	movq	%rsi, %rdx
	retq
.Lfunc_end122:
	.size	_ZN4core3ptr16NonNull$LT$T$GT$6as_ptr17hd9b5cf9919129599E, .Lfunc_end122-_ZN4core3ptr16NonNull$LT$T$GT$6as_ptr17hd9b5cf9919129599E
	.cfi_endproc

	.section	".text._ZN4core3ptr16NonNull$LT$T$GT$8dangling17h5ec0213bf56fa858E","ax",@progbits
	.p2align	4, 0x90
	.type	_ZN4core3ptr16NonNull$LT$T$GT$8dangling17h5ec0213bf56fa858E,@function
_ZN4core3ptr16NonNull$LT$T$GT$8dangling17h5ec0213bf56fa858E:
	.cfi_startproc
	subq	$24, %rsp
	.cfi_def_cfa_offset 32
	callq	_ZN4core3mem8align_of17h30a748a3d7e04e54E
	movq	%rax, 16(%rsp)
	movq	16(%rsp), %rdi
	callq	_ZN4core3ptr16NonNull$LT$T$GT$13new_unchecked17h45308fd7d572427bE
	movq	%rax, 8(%rsp)
	movq	8(%rsp), %rax
	addq	$24, %rsp
	.cfi_def_cfa_offset 8
	retq
.Lfunc_end123:
	.size	_ZN4core3ptr16NonNull$LT$T$GT$8dangling17h5ec0213bf56fa858E, .Lfunc_end123-_ZN4core3ptr16NonNull$LT$T$GT$8dangling17h5ec0213bf56fa858E
	.cfi_endproc

	.section	.text._ZN4core3ptr18real_drop_in_place17h11c469ca13554a87E,"ax",@progbits
	.p2align	4, 0x90
	.type	_ZN4core3ptr18real_drop_in_place17h11c469ca13554a87E,@function
_ZN4core3ptr18real_drop_in_place17h11c469ca13554a87E:
	.cfi_startproc
	pushq	%rax
	.cfi_def_cfa_offset 16
	callq	*(%rsi)
	popq	%rax
	.cfi_def_cfa_offset 8
	retq
.Lfunc_end124:
	.size	_ZN4core3ptr18real_drop_in_place17h11c469ca13554a87E, .Lfunc_end124-_ZN4core3ptr18real_drop_in_place17h11c469ca13554a87E
	.cfi_endproc

	.section	.text._ZN4core3ptr18real_drop_in_place17h1465bfca74e90596E,"ax",@progbits
	.p2align	4, 0x90
	.type	_ZN4core3ptr18real_drop_in_place17h1465bfca74e90596E,@function
_ZN4core3ptr18real_drop_in_place17h1465bfca74e90596E:
	.cfi_startproc
	pushq	%rax
	.cfi_def_cfa_offset 16
	movq	%rdi, (%rsp)
	popq	%rax
	.cfi_def_cfa_offset 8
	retq
.Lfunc_end125:
	.size	_ZN4core3ptr18real_drop_in_place17h1465bfca74e90596E, .Lfunc_end125-_ZN4core3ptr18real_drop_in_place17h1465bfca74e90596E
	.cfi_endproc

	.section	.text._ZN4core3ptr18real_drop_in_place17h14a377da3589cddcE,"ax",@progbits
	.p2align	4, 0x90
	.type	_ZN4core3ptr18real_drop_in_place17h14a377da3589cddcE,@function
_ZN4core3ptr18real_drop_in_place17h14a377da3589cddcE:
.Lfunc_begin11:
	.cfi_startproc
	.cfi_personality 155, DW.ref.rust_eh_personality
	.cfi_lsda 27, .Lexception11
	subq	$24, %rsp
	.cfi_def_cfa_offset 32
	movq	%rdi, %rax
	addq	$32, %rax
.Ltmp79:
	movq	%rdi, (%rsp)
	movq	%rax, %rdi
	callq	_ZN4core3ptr18real_drop_in_place17h4190a6ebbeffadfaE
.Ltmp80:
	jmp	.LBB126_4
.LBB126_1:
	movq	8(%rsp), %rdi
	callq	_Unwind_Resume@PLT
	ud2
.LBB126_2:
	addq	$24, %rsp
	.cfi_def_cfa_offset 8
	retq
.LBB126_3:
	.cfi_def_cfa_offset 32
	movq	(%rsp), %rax
	movq	%rax, %rdi
	callq	_ZN4core3ptr18real_drop_in_place17h316d4f2f914a5cfbE
	jmp	.LBB126_1
.LBB126_4:
	movq	(%rsp), %rax
	movq	%rax, %rdi
	callq	_ZN4core3ptr18real_drop_in_place17h316d4f2f914a5cfbE
	jmp	.LBB126_2
.LBB126_5:
.Ltmp81:
	movl	%edx, %ecx
	movq	%rax, 8(%rsp)
	movl	%ecx, 16(%rsp)
	jmp	.LBB126_3
.Lfunc_end126:
	.size	_ZN4core3ptr18real_drop_in_place17h14a377da3589cddcE, .Lfunc_end126-_ZN4core3ptr18real_drop_in_place17h14a377da3589cddcE
	.cfi_endproc
	.section	.gcc_except_table,"a",@progbits
	.p2align	2
GCC_except_table126:
.Lexception11:
	.byte	255
	.byte	255
	.byte	1
	.uleb128 .Lcst_end11-.Lcst_begin11
.Lcst_begin11:
	.uleb128 .Ltmp79-.Lfunc_begin11
	.uleb128 .Ltmp80-.Ltmp79
	.uleb128 .Ltmp81-.Lfunc_begin11
	.byte	0
	.uleb128 .Ltmp80-.Lfunc_begin11
	.uleb128 .Lfunc_end126-.Ltmp80
	.byte	0
	.byte	0
.Lcst_end11:
	.p2align	2

	.section	.text._ZN4core3ptr18real_drop_in_place17h195fb2a9f44cf582E,"ax",@progbits
	.p2align	4, 0x90
	.type	_ZN4core3ptr18real_drop_in_place17h195fb2a9f44cf582E,@function
_ZN4core3ptr18real_drop_in_place17h195fb2a9f44cf582E:
	.cfi_startproc
	pushq	%rax
	.cfi_def_cfa_offset 16
	cmpq	$0, (%rdi)
	movq	%rdi, (%rsp)
	jne	.LBB127_2
.LBB127_1:
	popq	%rax
	.cfi_def_cfa_offset 8
	retq
.LBB127_2:
	.cfi_def_cfa_offset 16
	movq	(%rsp), %rax
	addq	$8, %rax
	movq	%rax, %rdi
	callq	_ZN4core3ptr18real_drop_in_place17hea225b29bbc525feE
	jmp	.LBB127_1
.Lfunc_end127:
	.size	_ZN4core3ptr18real_drop_in_place17h195fb2a9f44cf582E, .Lfunc_end127-_ZN4core3ptr18real_drop_in_place17h195fb2a9f44cf582E
	.cfi_endproc

	.section	.text._ZN4core3ptr18real_drop_in_place17h274a8a217f6b2a6eE,"ax",@progbits
	.p2align	4, 0x90
	.type	_ZN4core3ptr18real_drop_in_place17h274a8a217f6b2a6eE,@function
_ZN4core3ptr18real_drop_in_place17h274a8a217f6b2a6eE:
	.cfi_startproc
	pushq	%rax
	.cfi_def_cfa_offset 16
	cmpq	$0, (%rdi)
	movq	%rdi, (%rsp)
	je	.LBB128_2
	jmp	.LBB128_3
.LBB128_1:
	popq	%rax
	.cfi_def_cfa_offset 8
	retq
.LBB128_2:
	.cfi_def_cfa_offset 16
	movq	(%rsp), %rax
	addq	$8, %rax
	movq	%rax, %rdi
	callq	_ZN4core3ptr18real_drop_in_place17h6481592ae1421fa0E
	jmp	.LBB128_1
.LBB128_3:
	movq	(%rsp), %rax
	addq	$8, %rax
	movq	%rax, %rdi
	callq	_ZN4core3ptr18real_drop_in_place17hea225b29bbc525feE
	jmp	.LBB128_1
.Lfunc_end128:
	.size	_ZN4core3ptr18real_drop_in_place17h274a8a217f6b2a6eE, .Lfunc_end128-_ZN4core3ptr18real_drop_in_place17h274a8a217f6b2a6eE
	.cfi_endproc

	.section	.text._ZN4core3ptr18real_drop_in_place17h29e642ed75c3b294E,"ax",@progbits
	.p2align	4, 0x90
	.type	_ZN4core3ptr18real_drop_in_place17h29e642ed75c3b294E,@function
_ZN4core3ptr18real_drop_in_place17h29e642ed75c3b294E:
.Lfunc_begin12:
	.cfi_startproc
	.cfi_personality 155, DW.ref.rust_eh_personality
	.cfi_lsda 27, .Lexception12
	subq	$24, %rsp
	.cfi_def_cfa_offset 32
.Ltmp82:
	movq	%rdi, (%rsp)
	callq	_ZN66_$LT$alloc..vec..Vec$LT$T$GT$$u20$as$u20$core..ops..drop..Drop$GT$4drop17h15f3a4d951cb3e81E
.Ltmp83:
	jmp	.LBB129_4
.LBB129_1:
	movq	8(%rsp), %rdi
	callq	_Unwind_Resume@PLT
	ud2
.LBB129_2:
	addq	$24, %rsp
	.cfi_def_cfa_offset 8
	retq
.LBB129_3:
	.cfi_def_cfa_offset 32
	movq	(%rsp), %rax
	movq	%rax, %rdi
	callq	_ZN4core3ptr18real_drop_in_place17hd7d610c0003d8d7bE
	jmp	.LBB129_1
.LBB129_4:
	movq	(%rsp), %rax
	movq	%rax, %rdi
	callq	_ZN4core3ptr18real_drop_in_place17hd7d610c0003d8d7bE
	jmp	.LBB129_2
.LBB129_5:
.Ltmp84:
	movl	%edx, %ecx
	movq	%rax, 8(%rsp)
	movl	%ecx, 16(%rsp)
	jmp	.LBB129_3
.Lfunc_end129:
	.size	_ZN4core3ptr18real_drop_in_place17h29e642ed75c3b294E, .Lfunc_end129-_ZN4core3ptr18real_drop_in_place17h29e642ed75c3b294E
	.cfi_endproc
	.section	.gcc_except_table,"a",@progbits
	.p2align	2
GCC_except_table129:
.Lexception12:
	.byte	255
	.byte	255
	.byte	1
	.uleb128 .Lcst_end12-.Lcst_begin12
.Lcst_begin12:
	.uleb128 .Ltmp82-.Lfunc_begin12
	.uleb128 .Ltmp83-.Ltmp82
	.uleb128 .Ltmp84-.Lfunc_begin12
	.byte	0
	.uleb128 .Ltmp83-.Lfunc_begin12
	.uleb128 .Lfunc_end129-.Ltmp83
	.byte	0
	.byte	0
.Lcst_end12:
	.p2align	2

	.section	.text._ZN4core3ptr18real_drop_in_place17h2b85e02e7b412fe3E,"ax",@progbits
	.p2align	4, 0x90
	.type	_ZN4core3ptr18real_drop_in_place17h2b85e02e7b412fe3E,@function
_ZN4core3ptr18real_drop_in_place17h2b85e02e7b412fe3E:
	.cfi_startproc
	pushq	%rax
	.cfi_def_cfa_offset 16
	movq	%rdi, (%rsp)
	popq	%rax
	.cfi_def_cfa_offset 8
	retq
.Lfunc_end130:
	.size	_ZN4core3ptr18real_drop_in_place17h2b85e02e7b412fe3E, .Lfunc_end130-_ZN4core3ptr18real_drop_in_place17h2b85e02e7b412fe3E
	.cfi_endproc

	.section	.text._ZN4core3ptr18real_drop_in_place17h2d0e5bd5179421e7E,"ax",@progbits
	.p2align	4, 0x90
	.type	_ZN4core3ptr18real_drop_in_place17h2d0e5bd5179421e7E,@function
_ZN4core3ptr18real_drop_in_place17h2d0e5bd5179421e7E:
	.cfi_startproc
	pushq	%rax
	.cfi_def_cfa_offset 16
	callq	_ZN4core3ptr18real_drop_in_place17h14a377da3589cddcE
	popq	%rax
	.cfi_def_cfa_offset 8
	retq
.Lfunc_end131:
	.size	_ZN4core3ptr18real_drop_in_place17h2d0e5bd5179421e7E, .Lfunc_end131-_ZN4core3ptr18real_drop_in_place17h2d0e5bd5179421e7E
	.cfi_endproc

	.section	.text._ZN4core3ptr18real_drop_in_place17h316d4f2f914a5cfbE,"ax",@progbits
	.p2align	4, 0x90
	.type	_ZN4core3ptr18real_drop_in_place17h316d4f2f914a5cfbE,@function
_ZN4core3ptr18real_drop_in_place17h316d4f2f914a5cfbE:
	.cfi_startproc
	subq	$24, %rsp
	.cfi_def_cfa_offset 32
	movq	%rdi, (%rsp)
	jmp	.LBB132_2
.LBB132_1:
	addq	$24, %rsp
	.cfi_def_cfa_offset 8
	retq
.LBB132_2:
	.cfi_def_cfa_offset 32
	movq	(%rsp), %rax
	movq	(%rax), %rdi
	movq	8(%rax), %rsi
	callq	_ZN5alloc5alloc8box_free17h2de6167c7ab3fdf7E
	jmp	.LBB132_1
.Lfunc_end132:
	.size	_ZN4core3ptr18real_drop_in_place17h316d4f2f914a5cfbE, .Lfunc_end132-_ZN4core3ptr18real_drop_in_place17h316d4f2f914a5cfbE
	.cfi_endproc

	.section	.text._ZN4core3ptr18real_drop_in_place17h3db1af61fc2be8f1E,"ax",@progbits
	.p2align	4, 0x90
	.type	_ZN4core3ptr18real_drop_in_place17h3db1af61fc2be8f1E,@function
_ZN4core3ptr18real_drop_in_place17h3db1af61fc2be8f1E:
	.cfi_startproc
	pushq	%rax
	.cfi_def_cfa_offset 16
	callq	*_ZN70_$LT$std..sys..unix..fd..FileDesc$u20$as$u20$core..ops..drop..Drop$GT$4drop17hdfe1be64d95c52f8E@GOTPCREL(%rip)
	popq	%rax
	.cfi_def_cfa_offset 8
	retq
.Lfunc_end133:
	.size	_ZN4core3ptr18real_drop_in_place17h3db1af61fc2be8f1E, .Lfunc_end133-_ZN4core3ptr18real_drop_in_place17h3db1af61fc2be8f1E
	.cfi_endproc

	.section	.text._ZN4core3ptr18real_drop_in_place17h4190a6ebbeffadfaE,"ax",@progbits
	.p2align	4, 0x90
	.type	_ZN4core3ptr18real_drop_in_place17h4190a6ebbeffadfaE,@function
_ZN4core3ptr18real_drop_in_place17h4190a6ebbeffadfaE:
	.cfi_startproc
	pushq	%rax
	.cfi_def_cfa_offset 16
	callq	_ZN4core3ptr18real_drop_in_place17h77a93e820be800dfE
	popq	%rax
	.cfi_def_cfa_offset 8
	retq
.Lfunc_end134:
	.size	_ZN4core3ptr18real_drop_in_place17h4190a6ebbeffadfaE, .Lfunc_end134-_ZN4core3ptr18real_drop_in_place17h4190a6ebbeffadfaE
	.cfi_endproc

	.section	.text._ZN4core3ptr18real_drop_in_place17h4778a085aa21cca2E,"ax",@progbits
	.p2align	4, 0x90
	.type	_ZN4core3ptr18real_drop_in_place17h4778a085aa21cca2E,@function
_ZN4core3ptr18real_drop_in_place17h4778a085aa21cca2E:
	.cfi_startproc
	subq	$24, %rsp
	.cfi_def_cfa_offset 32
	movb	(%rdi), %al
	subb	$1, %al
	movq	%rdi, 16(%rsp)
	movb	%al, 15(%rsp)
	ja	.LBB135_2
	jmp	.LBB135_1
.LBB135_1:
	addq	$24, %rsp
	.cfi_def_cfa_offset 8
	retq
.LBB135_2:
	.cfi_def_cfa_offset 32
	movq	16(%rsp), %rax
	addq	$8, %rax
	movq	%rax, %rdi
	callq	_ZN4core3ptr18real_drop_in_place17h95841912912099fcE
	jmp	.LBB135_1
.Lfunc_end135:
	.size	_ZN4core3ptr18real_drop_in_place17h4778a085aa21cca2E, .Lfunc_end135-_ZN4core3ptr18real_drop_in_place17h4778a085aa21cca2E
	.cfi_endproc

	.section	.text._ZN4core3ptr18real_drop_in_place17h4f228827eac40069E,"ax",@progbits
	.p2align	4, 0x90
	.type	_ZN4core3ptr18real_drop_in_place17h4f228827eac40069E,@function
_ZN4core3ptr18real_drop_in_place17h4f228827eac40069E:
	.cfi_startproc
	pushq	%rax
	.cfi_def_cfa_offset 16
	callq	*_ZN56_$LT$std..io..Guard$u20$as$u20$core..ops..drop..Drop$GT$4drop17hca46b82eb547a0f5E@GOTPCREL(%rip)
	popq	%rax
	.cfi_def_cfa_offset 8
	retq
.Lfunc_end136:
	.size	_ZN4core3ptr18real_drop_in_place17h4f228827eac40069E, .Lfunc_end136-_ZN4core3ptr18real_drop_in_place17h4f228827eac40069E
	.cfi_endproc

	.section	.text._ZN4core3ptr18real_drop_in_place17h6481592ae1421fa0E,"ax",@progbits
	.p2align	4, 0x90
	.type	_ZN4core3ptr18real_drop_in_place17h6481592ae1421fa0E,@function
_ZN4core3ptr18real_drop_in_place17h6481592ae1421fa0E:
	.cfi_startproc
	pushq	%rax
	.cfi_def_cfa_offset 16
	callq	_ZN4core3ptr18real_drop_in_place17hb3f84a622bbdc27fE
	popq	%rax
	.cfi_def_cfa_offset 8
	retq
.Lfunc_end137:
	.size	_ZN4core3ptr18real_drop_in_place17h6481592ae1421fa0E, .Lfunc_end137-_ZN4core3ptr18real_drop_in_place17h6481592ae1421fa0E
	.cfi_endproc

	.section	.text._ZN4core3ptr18real_drop_in_place17h6a2b31df727b4a4eE,"ax",@progbits
	.p2align	4, 0x90
	.type	_ZN4core3ptr18real_drop_in_place17h6a2b31df727b4a4eE,@function
_ZN4core3ptr18real_drop_in_place17h6a2b31df727b4a4eE:
	.cfi_startproc
	pushq	%rax
	.cfi_def_cfa_offset 16
	movq	%rdi, (%rsp)
	popq	%rax
	.cfi_def_cfa_offset 8
	retq
.Lfunc_end138:
	.size	_ZN4core3ptr18real_drop_in_place17h6a2b31df727b4a4eE, .Lfunc_end138-_ZN4core3ptr18real_drop_in_place17h6a2b31df727b4a4eE
	.cfi_endproc

	.section	.text._ZN4core3ptr18real_drop_in_place17h77a93e820be800dfE,"ax",@progbits
	.p2align	4, 0x90
	.type	_ZN4core3ptr18real_drop_in_place17h77a93e820be800dfE,@function
_ZN4core3ptr18real_drop_in_place17h77a93e820be800dfE:
	.cfi_startproc
	pushq	%rax
	.cfi_def_cfa_offset 16
	callq	_ZN4core3ptr18real_drop_in_place17h3db1af61fc2be8f1E
	popq	%rax
	.cfi_def_cfa_offset 8
	retq
.Lfunc_end139:
	.size	_ZN4core3ptr18real_drop_in_place17h77a93e820be800dfE, .Lfunc_end139-_ZN4core3ptr18real_drop_in_place17h77a93e820be800dfE
	.cfi_endproc

	.section	.text._ZN4core3ptr18real_drop_in_place17h858fb983229c8843E,"ax",@progbits
	.p2align	4, 0x90
	.type	_ZN4core3ptr18real_drop_in_place17h858fb983229c8843E,@function
_ZN4core3ptr18real_drop_in_place17h858fb983229c8843E:
	.cfi_startproc
	pushq	%rax
	.cfi_def_cfa_offset 16
	movq	%rdi, (%rsp)
	popq	%rax
	.cfi_def_cfa_offset 8
	retq
.Lfunc_end140:
	.size	_ZN4core3ptr18real_drop_in_place17h858fb983229c8843E, .Lfunc_end140-_ZN4core3ptr18real_drop_in_place17h858fb983229c8843E
	.cfi_endproc

	.section	.text._ZN4core3ptr18real_drop_in_place17h8cfcae9b4504e94cE,"ax",@progbits
	.p2align	4, 0x90
	.type	_ZN4core3ptr18real_drop_in_place17h8cfcae9b4504e94cE,@function
_ZN4core3ptr18real_drop_in_place17h8cfcae9b4504e94cE:
	.cfi_startproc
	pushq	%rax
	.cfi_def_cfa_offset 16
	xorl	%eax, %eax
	movl	%eax, %ecx
	cmpq	$2, (%rdi)
	movl	$1, %edx
	cmoveq	%rcx, %rdx
	cmpq	$0, %rdx
	movq	%rdi, (%rsp)
	jne	.LBB141_2
.LBB141_1:
	popq	%rax
	.cfi_def_cfa_offset 8
	retq
.LBB141_2:
	.cfi_def_cfa_offset 16
	movq	(%rsp), %rax
	movq	%rax, %rdi
	callq	_ZN4core3ptr18real_drop_in_place17h274a8a217f6b2a6eE
	jmp	.LBB141_1
.Lfunc_end141:
	.size	_ZN4core3ptr18real_drop_in_place17h8cfcae9b4504e94cE, .Lfunc_end141-_ZN4core3ptr18real_drop_in_place17h8cfcae9b4504e94cE
	.cfi_endproc

	.section	.text._ZN4core3ptr18real_drop_in_place17h90c9d4121ea23c62E,"ax",@progbits
	.p2align	4, 0x90
	.type	_ZN4core3ptr18real_drop_in_place17h90c9d4121ea23c62E,@function
_ZN4core3ptr18real_drop_in_place17h90c9d4121ea23c62E:
	.cfi_startproc
	subq	$24, %rsp
	.cfi_def_cfa_offset 32
	movq	%rdi, (%rsp)
	jmp	.LBB142_2
.LBB142_1:
	addq	$24, %rsp
	.cfi_def_cfa_offset 8
	retq
.LBB142_2:
	.cfi_def_cfa_offset 32
	movq	(%rsp), %rax
	movq	(%rax), %rdi
	movq	8(%rax), %rsi
	callq	_ZN5alloc5alloc8box_free17hcb13562f8d63ce8aE
	jmp	.LBB142_1
.Lfunc_end142:
	.size	_ZN4core3ptr18real_drop_in_place17h90c9d4121ea23c62E, .Lfunc_end142-_ZN4core3ptr18real_drop_in_place17h90c9d4121ea23c62E
	.cfi_endproc

	.section	.text._ZN4core3ptr18real_drop_in_place17h95841912912099fcE,"ax",@progbits
	.p2align	4, 0x90
	.type	_ZN4core3ptr18real_drop_in_place17h95841912912099fcE,@function
_ZN4core3ptr18real_drop_in_place17h95841912912099fcE:
.Lfunc_begin13:
	.cfi_startproc
	.cfi_personality 155, DW.ref.rust_eh_personality
	.cfi_lsda 27, .Lexception13
	subq	$24, %rsp
	.cfi_def_cfa_offset 32
	movq	(%rdi), %rax
.Ltmp85:
	movq	%rdi, (%rsp)
	movq	%rax, %rdi
	callq	_ZN4core3ptr18real_drop_in_place17hc1eee214bbf268ceE
.Ltmp86:
	jmp	.LBB143_3
.LBB143_1:
	addq	$24, %rsp
	.cfi_def_cfa_offset 8
	retq
.LBB143_2:
	.cfi_def_cfa_offset 32
	movq	8(%rsp), %rdi
	callq	_Unwind_Resume@PLT
	ud2
.LBB143_3:
	movq	(%rsp), %rax
	movq	(%rax), %rdi
	callq	_ZN5alloc5alloc8box_free17h85879eafdf2eff2cE
	jmp	.LBB143_1
.LBB143_4:
	movq	(%rsp), %rax
	movq	(%rax), %rdi
	callq	_ZN5alloc5alloc8box_free17h85879eafdf2eff2cE
	jmp	.LBB143_2
.LBB143_5:
.Ltmp87:
	movl	%edx, %ecx
	movq	%rax, 8(%rsp)
	movl	%ecx, 16(%rsp)
	jmp	.LBB143_4
.Lfunc_end143:
	.size	_ZN4core3ptr18real_drop_in_place17h95841912912099fcE, .Lfunc_end143-_ZN4core3ptr18real_drop_in_place17h95841912912099fcE
	.cfi_endproc
	.section	.gcc_except_table,"a",@progbits
	.p2align	2
GCC_except_table143:
.Lexception13:
	.byte	255
	.byte	255
	.byte	1
	.uleb128 .Lcst_end13-.Lcst_begin13
.Lcst_begin13:
	.uleb128 .Ltmp85-.Lfunc_begin13
	.uleb128 .Ltmp86-.Ltmp85
	.uleb128 .Ltmp87-.Lfunc_begin13
	.byte	0
	.uleb128 .Ltmp86-.Lfunc_begin13
	.uleb128 .Lfunc_end143-.Ltmp86
	.byte	0
	.byte	0
.Lcst_end13:
	.p2align	2

	.section	.text._ZN4core3ptr18real_drop_in_place17h9b79a35ec268aed7E,"ax",@progbits
	.p2align	4, 0x90
	.type	_ZN4core3ptr18real_drop_in_place17h9b79a35ec268aed7E,@function
_ZN4core3ptr18real_drop_in_place17h9b79a35ec268aed7E:
	.cfi_startproc
	pushq	%rax
	.cfi_def_cfa_offset 16
	callq	_ZN4core3ptr18real_drop_in_place17h2d0e5bd5179421e7E
	popq	%rax
	.cfi_def_cfa_offset 8
	retq
.Lfunc_end144:
	.size	_ZN4core3ptr18real_drop_in_place17h9b79a35ec268aed7E, .Lfunc_end144-_ZN4core3ptr18real_drop_in_place17h9b79a35ec268aed7E
	.cfi_endproc

	.section	.text._ZN4core3ptr18real_drop_in_place17ha95fc9ef522a6adeE,"ax",@progbits
	.p2align	4, 0x90
	.type	_ZN4core3ptr18real_drop_in_place17ha95fc9ef522a6adeE,@function
_ZN4core3ptr18real_drop_in_place17ha95fc9ef522a6adeE:
	.cfi_startproc
	pushq	%rax
	.cfi_def_cfa_offset 16
	addq	$8, %rdi
	callq	_ZN4core3ptr18real_drop_in_place17h274a8a217f6b2a6eE
	popq	%rax
	.cfi_def_cfa_offset 8
	retq
.Lfunc_end145:
	.size	_ZN4core3ptr18real_drop_in_place17ha95fc9ef522a6adeE, .Lfunc_end145-_ZN4core3ptr18real_drop_in_place17ha95fc9ef522a6adeE
	.cfi_endproc

	.section	.text._ZN4core3ptr18real_drop_in_place17hab86ae9b491f7b0dE,"ax",@progbits
	.p2align	4, 0x90
	.type	_ZN4core3ptr18real_drop_in_place17hab86ae9b491f7b0dE,@function
_ZN4core3ptr18real_drop_in_place17hab86ae9b491f7b0dE:
	.cfi_startproc
	pushq	%rax
	.cfi_def_cfa_offset 16
	xorl	%eax, %eax
	movl	%eax, %ecx
	cmpq	$2, 8(%rdi)
	movl	$1, %edx
	cmoveq	%rcx, %rdx
	cmpq	$0, %rdx
	movq	%rdi, (%rsp)
	jne	.LBB146_2
.LBB146_1:
	popq	%rax
	.cfi_def_cfa_offset 8
	retq
.LBB146_2:
	.cfi_def_cfa_offset 16
	movq	(%rsp), %rax
	movq	%rax, %rdi
	callq	_ZN4core3ptr18real_drop_in_place17ha95fc9ef522a6adeE
	jmp	.LBB146_1
.Lfunc_end146:
	.size	_ZN4core3ptr18real_drop_in_place17hab86ae9b491f7b0dE, .Lfunc_end146-_ZN4core3ptr18real_drop_in_place17hab86ae9b491f7b0dE
	.cfi_endproc

	.section	.text._ZN4core3ptr18real_drop_in_place17hb3f84a622bbdc27fE,"ax",@progbits
	.p2align	4, 0x90
	.type	_ZN4core3ptr18real_drop_in_place17hb3f84a622bbdc27fE,@function
_ZN4core3ptr18real_drop_in_place17hb3f84a622bbdc27fE:
.Lfunc_begin14:
	.cfi_startproc
	.cfi_personality 155, DW.ref.rust_eh_personality
	.cfi_lsda 27, .Lexception14
	subq	$24, %rsp
	.cfi_def_cfa_offset 32
.Ltmp88:
	movq	%rdi, (%rsp)
	callq	_ZN66_$LT$alloc..vec..Vec$LT$T$GT$$u20$as$u20$core..ops..drop..Drop$GT$4drop17h5f93ed98166dccd6E
.Ltmp89:
	jmp	.LBB147_4
.LBB147_1:
	movq	8(%rsp), %rdi
	callq	_Unwind_Resume@PLT
	ud2
.LBB147_2:
	addq	$24, %rsp
	.cfi_def_cfa_offset 8
	retq
.LBB147_3:
	.cfi_def_cfa_offset 32
	movq	(%rsp), %rax
	movq	%rax, %rdi
	callq	_ZN4core3ptr18real_drop_in_place17hcd98eb5be8d15d30E
	jmp	.LBB147_1
.LBB147_4:
	movq	(%rsp), %rax
	movq	%rax, %rdi
	callq	_ZN4core3ptr18real_drop_in_place17hcd98eb5be8d15d30E
	jmp	.LBB147_2
.LBB147_5:
.Ltmp90:
	movl	%edx, %ecx
	movq	%rax, 8(%rsp)
	movl	%ecx, 16(%rsp)
	jmp	.LBB147_3
.Lfunc_end147:
	.size	_ZN4core3ptr18real_drop_in_place17hb3f84a622bbdc27fE, .Lfunc_end147-_ZN4core3ptr18real_drop_in_place17hb3f84a622bbdc27fE
	.cfi_endproc
	.section	.gcc_except_table,"a",@progbits
	.p2align	2
GCC_except_table147:
.Lexception14:
	.byte	255
	.byte	255
	.byte	1
	.uleb128 .Lcst_end14-.Lcst_begin14
.Lcst_begin14:
	.uleb128 .Ltmp88-.Lfunc_begin14
	.uleb128 .Ltmp89-.Ltmp88
	.uleb128 .Ltmp90-.Lfunc_begin14
	.byte	0
	.uleb128 .Ltmp89-.Lfunc_begin14
	.uleb128 .Lfunc_end147-.Ltmp89
	.byte	0
	.byte	0
.Lcst_end14:
	.p2align	2

	.section	.text._ZN4core3ptr18real_drop_in_place17hc0ec3c425c733586E,"ax",@progbits
	.p2align	4, 0x90
	.type	_ZN4core3ptr18real_drop_in_place17hc0ec3c425c733586E,@function
_ZN4core3ptr18real_drop_in_place17hc0ec3c425c733586E:
.Lfunc_begin15:
	.cfi_startproc
	.cfi_personality 155, DW.ref.rust_eh_personality
	.cfi_lsda 27, .Lexception15
	subq	$24, %rsp
	.cfi_def_cfa_offset 32
	movq	(%rdi), %rax
	movq	8(%rdi), %rcx
	movq	(%rcx), %rcx
.Ltmp91:
	movq	%rdi, (%rsp)
	movq	%rax, %rdi
	callq	*%rcx
.Ltmp92:
	jmp	.LBB148_3
.LBB148_1:
	addq	$24, %rsp
	.cfi_def_cfa_offset 8
	retq
.LBB148_2:
	.cfi_def_cfa_offset 32
	movq	8(%rsp), %rdi
	callq	_Unwind_Resume@PLT
	ud2
.LBB148_3:
	movq	(%rsp), %rax
	movq	(%rax), %rdi
	movq	8(%rax), %rsi
	callq	_ZN5alloc5alloc8box_free17h23ac896dc963a886E
	jmp	.LBB148_1
.LBB148_4:
	movq	(%rsp), %rax
	movq	(%rax), %rdi
	movq	8(%rax), %rsi
	callq	_ZN5alloc5alloc8box_free17h23ac896dc963a886E
	jmp	.LBB148_2
.LBB148_5:
.Ltmp93:
	movl	%edx, %ecx
	movq	%rax, 8(%rsp)
	movl	%ecx, 16(%rsp)
	jmp	.LBB148_4
.Lfunc_end148:
	.size	_ZN4core3ptr18real_drop_in_place17hc0ec3c425c733586E, .Lfunc_end148-_ZN4core3ptr18real_drop_in_place17hc0ec3c425c733586E
	.cfi_endproc
	.section	.gcc_except_table,"a",@progbits
	.p2align	2
GCC_except_table148:
.Lexception15:
	.byte	255
	.byte	255
	.byte	1
	.uleb128 .Lcst_end15-.Lcst_begin15
.Lcst_begin15:
	.uleb128 .Ltmp91-.Lfunc_begin15
	.uleb128 .Ltmp92-.Ltmp91
	.uleb128 .Ltmp93-.Lfunc_begin15
	.byte	0
	.uleb128 .Ltmp92-.Lfunc_begin15
	.uleb128 .Lfunc_end148-.Ltmp92
	.byte	0
	.byte	0
.Lcst_end15:
	.p2align	2

	.section	.text._ZN4core3ptr18real_drop_in_place17hc1eee214bbf268ceE,"ax",@progbits
	.p2align	4, 0x90
	.type	_ZN4core3ptr18real_drop_in_place17hc1eee214bbf268ceE,@function
_ZN4core3ptr18real_drop_in_place17hc1eee214bbf268ceE:
	.cfi_startproc
	pushq	%rax
	.cfi_def_cfa_offset 16
	callq	_ZN4core3ptr18real_drop_in_place17hcb035ead59afb08fE
	popq	%rax
	.cfi_def_cfa_offset 8
	retq
.Lfunc_end149:
	.size	_ZN4core3ptr18real_drop_in_place17hc1eee214bbf268ceE, .Lfunc_end149-_ZN4core3ptr18real_drop_in_place17hc1eee214bbf268ceE
	.cfi_endproc

	.section	.text._ZN4core3ptr18real_drop_in_place17hcb035ead59afb08fE,"ax",@progbits
	.p2align	4, 0x90
	.type	_ZN4core3ptr18real_drop_in_place17hcb035ead59afb08fE,@function
_ZN4core3ptr18real_drop_in_place17hcb035ead59afb08fE:
.Lfunc_begin16:
	.cfi_startproc
	.cfi_personality 155, DW.ref.rust_eh_personality
	.cfi_lsda 27, .Lexception16
	subq	$24, %rsp
	.cfi_def_cfa_offset 32
	movq	(%rdi), %rax
	movq	8(%rdi), %rcx
	movq	(%rcx), %rcx
.Ltmp94:
	movq	%rdi, (%rsp)
	movq	%rax, %rdi
	callq	*%rcx
.Ltmp95:
	jmp	.LBB150_3
.LBB150_1:
	addq	$24, %rsp
	.cfi_def_cfa_offset 8
	retq
.LBB150_2:
	.cfi_def_cfa_offset 32
	movq	8(%rsp), %rdi
	callq	_Unwind_Resume@PLT
	ud2
.LBB150_3:
	movq	(%rsp), %rax
	movq	(%rax), %rdi
	movq	8(%rax), %rsi
	callq	_ZN5alloc5alloc8box_free17h695c028a9a7e7601E
	jmp	.LBB150_1
.LBB150_4:
	movq	(%rsp), %rax
	movq	(%rax), %rdi
	movq	8(%rax), %rsi
	callq	_ZN5alloc5alloc8box_free17h695c028a9a7e7601E
	jmp	.LBB150_2
.LBB150_5:
.Ltmp96:
	movl	%edx, %ecx
	movq	%rax, 8(%rsp)
	movl	%ecx, 16(%rsp)
	jmp	.LBB150_4
.Lfunc_end150:
	.size	_ZN4core3ptr18real_drop_in_place17hcb035ead59afb08fE, .Lfunc_end150-_ZN4core3ptr18real_drop_in_place17hcb035ead59afb08fE
	.cfi_endproc
	.section	.gcc_except_table,"a",@progbits
	.p2align	2
GCC_except_table150:
.Lexception16:
	.byte	255
	.byte	255
	.byte	1
	.uleb128 .Lcst_end16-.Lcst_begin16
.Lcst_begin16:
	.uleb128 .Ltmp94-.Lfunc_begin16
	.uleb128 .Ltmp95-.Ltmp94
	.uleb128 .Ltmp96-.Lfunc_begin16
	.byte	0
	.uleb128 .Ltmp95-.Lfunc_begin16
	.uleb128 .Lfunc_end150-.Ltmp95
	.byte	0
	.byte	0
.Lcst_end16:
	.p2align	2

	.section	.text._ZN4core3ptr18real_drop_in_place17hcd98eb5be8d15d30E,"ax",@progbits
	.p2align	4, 0x90
	.type	_ZN4core3ptr18real_drop_in_place17hcd98eb5be8d15d30E,@function
_ZN4core3ptr18real_drop_in_place17hcd98eb5be8d15d30E:
	.cfi_startproc
	pushq	%rax
	.cfi_def_cfa_offset 16
	callq	_ZN77_$LT$alloc..raw_vec..RawVec$LT$T$C$A$GT$$u20$as$u20$core..ops..drop..Drop$GT$4drop17h0801a65309fabe0fE
	popq	%rax
	.cfi_def_cfa_offset 8
	retq
.Lfunc_end151:
	.size	_ZN4core3ptr18real_drop_in_place17hcd98eb5be8d15d30E, .Lfunc_end151-_ZN4core3ptr18real_drop_in_place17hcd98eb5be8d15d30E
	.cfi_endproc

	.section	.text._ZN4core3ptr18real_drop_in_place17hd7d610c0003d8d7bE,"ax",@progbits
	.p2align	4, 0x90
	.type	_ZN4core3ptr18real_drop_in_place17hd7d610c0003d8d7bE,@function
_ZN4core3ptr18real_drop_in_place17hd7d610c0003d8d7bE:
	.cfi_startproc
	pushq	%rax
	.cfi_def_cfa_offset 16
	callq	_ZN77_$LT$alloc..raw_vec..RawVec$LT$T$C$A$GT$$u20$as$u20$core..ops..drop..Drop$GT$4drop17h2656dda41e2e5e3bE
	popq	%rax
	.cfi_def_cfa_offset 8
	retq
.Lfunc_end152:
	.size	_ZN4core3ptr18real_drop_in_place17hd7d610c0003d8d7bE, .Lfunc_end152-_ZN4core3ptr18real_drop_in_place17hd7d610c0003d8d7bE
	.cfi_endproc

	.section	.text._ZN4core3ptr18real_drop_in_place17hea225b29bbc525feE,"ax",@progbits
	.p2align	4, 0x90
	.type	_ZN4core3ptr18real_drop_in_place17hea225b29bbc525feE,@function
_ZN4core3ptr18real_drop_in_place17hea225b29bbc525feE:
	.cfi_startproc
	pushq	%rax
	.cfi_def_cfa_offset 16
	callq	_ZN4core3ptr18real_drop_in_place17h4778a085aa21cca2E
	popq	%rax
	.cfi_def_cfa_offset 8
	retq
.Lfunc_end153:
	.size	_ZN4core3ptr18real_drop_in_place17hea225b29bbc525feE, .Lfunc_end153-_ZN4core3ptr18real_drop_in_place17hea225b29bbc525feE
	.cfi_endproc

	.section	.text._ZN4core3ptr18real_drop_in_place17hefc2367b7e9e5fbcE,"ax",@progbits
	.p2align	4, 0x90
	.type	_ZN4core3ptr18real_drop_in_place17hefc2367b7e9e5fbcE,@function
_ZN4core3ptr18real_drop_in_place17hefc2367b7e9e5fbcE:
	.cfi_startproc
	pushq	%rax
	.cfi_def_cfa_offset 16
	callq	*(%rsi)
	popq	%rax
	.cfi_def_cfa_offset 8
	retq
.Lfunc_end154:
	.size	_ZN4core3ptr18real_drop_in_place17hefc2367b7e9e5fbcE, .Lfunc_end154-_ZN4core3ptr18real_drop_in_place17hefc2367b7e9e5fbcE
	.cfi_endproc

	.section	.text._ZN4core3ptr18real_drop_in_place17hf0f022be7980d53aE,"ax",@progbits
	.p2align	4, 0x90
	.type	_ZN4core3ptr18real_drop_in_place17hf0f022be7980d53aE,@function
_ZN4core3ptr18real_drop_in_place17hf0f022be7980d53aE:
	.cfi_startproc
	pushq	%rax
	.cfi_def_cfa_offset 16
	cmpq	$0, (%rdi)
	movq	%rdi, (%rsp)
	jne	.LBB155_2
.LBB155_1:
	popq	%rax
	.cfi_def_cfa_offset 8
	retq
.LBB155_2:
	.cfi_def_cfa_offset 16
	movq	(%rsp), %rax
	addq	$8, %rax
	movq	%rax, %rdi
	callq	_ZN4core3ptr18real_drop_in_place17hea225b29bbc525feE
	jmp	.LBB155_1
.Lfunc_end155:
	.size	_ZN4core3ptr18real_drop_in_place17hf0f022be7980d53aE, .Lfunc_end155-_ZN4core3ptr18real_drop_in_place17hf0f022be7980d53aE
	.cfi_endproc

	.section	.text._ZN4core3ptr18real_drop_in_place17hfc1d37c7a08f955dE,"ax",@progbits
	.p2align	4, 0x90
	.type	_ZN4core3ptr18real_drop_in_place17hfc1d37c7a08f955dE,@function
_ZN4core3ptr18real_drop_in_place17hfc1d37c7a08f955dE:
	.cfi_startproc
	pushq	%rax
	.cfi_def_cfa_offset 16
	movq	%rdi, (%rsp)
	popq	%rax
	.cfi_def_cfa_offset 8
	retq
.Lfunc_end156:
	.size	_ZN4core3ptr18real_drop_in_place17hfc1d37c7a08f955dE, .Lfunc_end156-_ZN4core3ptr18real_drop_in_place17hfc1d37c7a08f955dE
	.cfi_endproc

	.section	.text._ZN4core3ptr19swap_nonoverlapping17h2bd04b49dc7ab7c3E,"ax",@progbits
	.p2align	4, 0x90
	.type	_ZN4core3ptr19swap_nonoverlapping17h2bd04b49dc7ab7c3E,@function
_ZN4core3ptr19swap_nonoverlapping17h2bd04b49dc7ab7c3E:
	.cfi_startproc
	subq	$40, %rsp
	.cfi_def_cfa_offset 48
	movq	%rdx, 32(%rsp)
	movq	%rdi, 24(%rsp)
	movq	%rsi, 16(%rsp)
	callq	_ZN4core3mem7size_of17h4ac17df8cfdce96bE
	movq	%rax, 8(%rsp)
	movq	8(%rsp), %rax
	movq	32(%rsp), %rcx
	imulq	%rcx, %rax
	movq	24(%rsp), %rdi
	movq	16(%rsp), %rsi
	movq	%rax, %rdx
	callq	_ZN4core3ptr25swap_nonoverlapping_bytes17h43a5bd7a1a910719E
	addq	$40, %rsp
	.cfi_def_cfa_offset 8
	retq
.Lfunc_end157:
	.size	_ZN4core3ptr19swap_nonoverlapping17h2bd04b49dc7ab7c3E, .Lfunc_end157-_ZN4core3ptr19swap_nonoverlapping17h2bd04b49dc7ab7c3E
	.cfi_endproc

	.section	.text._ZN4core3ptr23swap_nonoverlapping_one17h247a5f3ec3ff80bdE,"ax",@progbits
	.p2align	4, 0x90
	.type	_ZN4core3ptr23swap_nonoverlapping_one17h247a5f3ec3ff80bdE,@function
_ZN4core3ptr23swap_nonoverlapping_one17h247a5f3ec3ff80bdE:
.Lfunc_begin17:
	.cfi_startproc
	.cfi_personality 155, DW.ref.rust_eh_personality
	.cfi_lsda 27, .Lexception17
	subq	$72, %rsp
	.cfi_def_cfa_offset 80
	movb	$0, 55(%rsp)
	movq	%rdi, 40(%rsp)
	movq	%rsi, 32(%rsp)
	callq	_ZN4core3mem7size_of17h4ac17df8cfdce96bE
	movq	%rax, 24(%rsp)
	jmp	.LBB158_2
.LBB158_1:
	movq	56(%rsp), %rdi
	callq	_Unwind_Resume@PLT
	ud2
.LBB158_2:
	movq	24(%rsp), %rax
	cmpq	$32, %rax
	jae	.LBB158_7
	movb	$1, 55(%rsp)
	movq	40(%rsp), %rdi
	callq	_ZN4core3ptr4read17h12a3e32a5a529932E
	movq	%rax, 16(%rsp)
	movq	%rdx, 8(%rsp)
.Ltmp97:
	movl	$1, %edx
	movq	32(%rsp), %rdi
	movq	40(%rsp), %rsi
	callq	_ZN4core10intrinsics19copy_nonoverlapping17h5c8df3309f91cf5eE
.Ltmp98:
	jmp	.LBB158_5
.LBB158_5:
	movb	$0, 55(%rsp)
.Ltmp99:
	movq	32(%rsp), %rdi
	movq	16(%rsp), %rsi
	movq	8(%rsp), %rdx
	callq	_ZN4core3ptr5write17hd1768e8f502150eaE
.Ltmp100:
	jmp	.LBB158_6
.LBB158_6:
	movb	$0, 55(%rsp)
	jmp	.LBB158_9
.LBB158_7:
	movq	40(%rsp), %rdi
	movq	32(%rsp), %rsi
	movl	$1, %edx
	callq	_ZN4core3ptr19swap_nonoverlapping17h2bd04b49dc7ab7c3E
	jmp	.LBB158_9
.LBB158_9:
	addq	$72, %rsp
	.cfi_def_cfa_offset 8
	retq
.LBB158_10:
	.cfi_def_cfa_offset 80
	movb	$0, 55(%rsp)
	jmp	.LBB158_1
.LBB158_11:
	testb	$1, 55(%rsp)
	jne	.LBB158_10
	jmp	.LBB158_1
.LBB158_12:
.Ltmp101:
	movl	%edx, %ecx
	movq	%rax, 56(%rsp)
	movl	%ecx, 64(%rsp)
	jmp	.LBB158_11
.Lfunc_end158:
	.size	_ZN4core3ptr23swap_nonoverlapping_one17h247a5f3ec3ff80bdE, .Lfunc_end158-_ZN4core3ptr23swap_nonoverlapping_one17h247a5f3ec3ff80bdE
	.cfi_endproc
	.section	.gcc_except_table,"a",@progbits
	.p2align	2
GCC_except_table158:
.Lexception17:
	.byte	255
	.byte	255
	.byte	1
	.uleb128 .Lcst_end17-.Lcst_begin17
.Lcst_begin17:
	.uleb128 .Lfunc_begin17-.Lfunc_begin17
	.uleb128 .Ltmp97-.Lfunc_begin17
	.byte	0
	.byte	0
	.uleb128 .Ltmp97-.Lfunc_begin17
	.uleb128 .Ltmp100-.Ltmp97
	.uleb128 .Ltmp101-.Lfunc_begin17
	.byte	0
	.uleb128 .Ltmp100-.Lfunc_begin17
	.uleb128 .Lfunc_end158-.Ltmp100
	.byte	0
	.byte	0
.Lcst_end17:
	.p2align	2

	.section	.text._ZN4core3ptr25swap_nonoverlapping_bytes17h43a5bd7a1a910719E,"ax",@progbits
	.p2align	4, 0x90
	.type	_ZN4core3ptr25swap_nonoverlapping_bytes17h43a5bd7a1a910719E,@function
_ZN4core3ptr25swap_nonoverlapping_bytes17h43a5bd7a1a910719E:
	.cfi_startproc
	pushq	%rbp
	.cfi_def_cfa_offset 16
	.cfi_offset %rbp, -16
	movq	%rsp, %rbp
	.cfi_def_cfa_register %rbp
	andq	$-32, %rsp
	subq	$224, %rsp
	movq	%rdi, 112(%rsp)
	movq	%rsi, 104(%rsp)
	movq	%rdx, 96(%rsp)
	callq	_ZN4core3mem7size_of17h653a3b3c0e77a61fE
	movq	%rax, 88(%rsp)
	movq	$0, 120(%rsp)
.LBB159_2:
	movq	88(%rsp), %rax
	addq	120(%rsp), %rax
	movq	96(%rsp), %rcx
	cmpq	%rcx, %rax
	jbe	.LBB159_4
	movq	96(%rsp), %rax
	cmpq	%rax, 120(%rsp)
	jb	.LBB159_12
	jmp	.LBB159_20
.LBB159_4:
	jmp	.LBB159_6
.LBB159_6:
	leaq	128(%rsp), %rax
	movq	120(%rsp), %rsi
	movq	112(%rsp), %rdi
	movq	%rax, 80(%rsp)
	callq	_ZN4core3ptr31_$LT$impl$u20$$BP$mut$u20$T$GT$3add17h513a4abb42d32901E
	movq	%rax, 72(%rsp)
	movq	120(%rsp), %rsi
	movq	104(%rsp), %rdi
	callq	_ZN4core3ptr31_$LT$impl$u20$$BP$mut$u20$T$GT$3add17h513a4abb42d32901E
	movq	%rax, 64(%rsp)
	movq	72(%rsp), %rdi
	movq	80(%rsp), %rsi
	movq	88(%rsp), %rdx
	callq	_ZN4core10intrinsics19copy_nonoverlapping17h5e5a55767a224286E
	movq	64(%rsp), %rdi
	movq	72(%rsp), %rsi
	movq	88(%rsp), %rdx
	callq	_ZN4core10intrinsics19copy_nonoverlapping17h5e5a55767a224286E
	movq	80(%rsp), %rdi
	movq	64(%rsp), %rsi
	movq	88(%rsp), %rdx
	callq	_ZN4core10intrinsics19copy_nonoverlapping17h5e5a55767a224286E
	movq	88(%rsp), %rax
	addq	120(%rsp), %rax
	movq	%rax, 120(%rsp)
	jmp	.LBB159_2
.LBB159_12:
	movq	96(%rsp), %rax
	subq	120(%rsp), %rax
	leaq	176(%rsp), %rcx
	movq	%rax, 56(%rsp)
	movq	%rcx, 48(%rsp)
	movq	48(%rsp), %rax
	movq	120(%rsp), %rsi
	movq	112(%rsp), %rdi
	movq	%rax, 40(%rsp)
	callq	_ZN4core3ptr31_$LT$impl$u20$$BP$mut$u20$T$GT$3add17h513a4abb42d32901E
	movq	%rax, 32(%rsp)
	movq	120(%rsp), %rsi
	movq	104(%rsp), %rdi
	callq	_ZN4core3ptr31_$LT$impl$u20$$BP$mut$u20$T$GT$3add17h513a4abb42d32901E
	movq	%rax, 24(%rsp)
	movq	32(%rsp), %rdi
	movq	40(%rsp), %rsi
	movq	56(%rsp), %rdx
	callq	_ZN4core10intrinsics19copy_nonoverlapping17h5e5a55767a224286E
	movq	24(%rsp), %rdi
	movq	32(%rsp), %rsi
	movq	56(%rsp), %rdx
	callq	_ZN4core10intrinsics19copy_nonoverlapping17h5e5a55767a224286E
	movq	40(%rsp), %rdi
	movq	24(%rsp), %rsi
	movq	56(%rsp), %rdx
	callq	_ZN4core10intrinsics19copy_nonoverlapping17h5e5a55767a224286E
	jmp	.LBB159_20
.LBB159_20:
	movq	%rbp, %rsp
	popq	%rbp
	.cfi_def_cfa %rsp, 8
	retq
.Lfunc_end159:
	.size	_ZN4core3ptr25swap_nonoverlapping_bytes17h43a5bd7a1a910719E, .Lfunc_end159-_ZN4core3ptr25swap_nonoverlapping_bytes17h43a5bd7a1a910719E
	.cfi_endproc

	.section	".text._ZN4core3ptr31_$LT$impl$u20$$BP$mut$u20$T$GT$3add17h15483c6fb3aa8038E","ax",@progbits
	.p2align	4, 0x90
	.type	_ZN4core3ptr31_$LT$impl$u20$$BP$mut$u20$T$GT$3add17h15483c6fb3aa8038E,@function
_ZN4core3ptr31_$LT$impl$u20$$BP$mut$u20$T$GT$3add17h15483c6fb3aa8038E:
	.cfi_startproc
	pushq	%rax
	.cfi_def_cfa_offset 16
	callq	_ZN4core3ptr31_$LT$impl$u20$$BP$mut$u20$T$GT$6offset17h698f31f3a475bbf6E
	movq	%rax, (%rsp)
	movq	(%rsp), %rax
	popq	%rcx
	.cfi_def_cfa_offset 8
	retq
.Lfunc_end160:
	.size	_ZN4core3ptr31_$LT$impl$u20$$BP$mut$u20$T$GT$3add17h15483c6fb3aa8038E, .Lfunc_end160-_ZN4core3ptr31_$LT$impl$u20$$BP$mut$u20$T$GT$3add17h15483c6fb3aa8038E
	.cfi_endproc

	.section	".text._ZN4core3ptr31_$LT$impl$u20$$BP$mut$u20$T$GT$3add17h513a4abb42d32901E","ax",@progbits
	.p2align	4, 0x90
	.type	_ZN4core3ptr31_$LT$impl$u20$$BP$mut$u20$T$GT$3add17h513a4abb42d32901E,@function
_ZN4core3ptr31_$LT$impl$u20$$BP$mut$u20$T$GT$3add17h513a4abb42d32901E:
	.cfi_startproc
	pushq	%rax
	.cfi_def_cfa_offset 16
	callq	_ZN4core3ptr31_$LT$impl$u20$$BP$mut$u20$T$GT$6offset17h92037a7c21844171E
	movq	%rax, (%rsp)
	movq	(%rsp), %rax
	popq	%rcx
	.cfi_def_cfa_offset 8
	retq
.Lfunc_end161:
	.size	_ZN4core3ptr31_$LT$impl$u20$$BP$mut$u20$T$GT$3add17h513a4abb42d32901E, .Lfunc_end161-_ZN4core3ptr31_$LT$impl$u20$$BP$mut$u20$T$GT$3add17h513a4abb42d32901E
	.cfi_endproc

	.section	".text._ZN4core3ptr31_$LT$impl$u20$$BP$mut$u20$T$GT$6offset17h698f31f3a475bbf6E","ax",@progbits
	.p2align	4, 0x90
	.type	_ZN4core3ptr31_$LT$impl$u20$$BP$mut$u20$T$GT$6offset17h698f31f3a475bbf6E,@function
_ZN4core3ptr31_$LT$impl$u20$$BP$mut$u20$T$GT$6offset17h698f31f3a475bbf6E:
	.cfi_startproc
	subq	$16, %rsp
	.cfi_def_cfa_offset 24
	shlq	$2, %rsi
	addq	%rsi, %rdi
	movq	%rdi, 8(%rsp)
	movq	8(%rsp), %rax
	movq	%rax, (%rsp)
	movq	(%rsp), %rax
	addq	$16, %rsp
	.cfi_def_cfa_offset 8
	retq
.Lfunc_end162:
	.size	_ZN4core3ptr31_$LT$impl$u20$$BP$mut$u20$T$GT$6offset17h698f31f3a475bbf6E, .Lfunc_end162-_ZN4core3ptr31_$LT$impl$u20$$BP$mut$u20$T$GT$6offset17h698f31f3a475bbf6E
	.cfi_endproc

	.section	".text._ZN4core3ptr31_$LT$impl$u20$$BP$mut$u20$T$GT$6offset17h92037a7c21844171E","ax",@progbits
	.p2align	4, 0x90
	.type	_ZN4core3ptr31_$LT$impl$u20$$BP$mut$u20$T$GT$6offset17h92037a7c21844171E,@function
_ZN4core3ptr31_$LT$impl$u20$$BP$mut$u20$T$GT$6offset17h92037a7c21844171E:
	.cfi_startproc
	subq	$16, %rsp
	.cfi_def_cfa_offset 24
	addq	%rsi, %rdi
	movq	%rdi, 8(%rsp)
	movq	8(%rsp), %rax
	movq	%rax, (%rsp)
	movq	(%rsp), %rax
	addq	$16, %rsp
	.cfi_def_cfa_offset 8
	retq
.Lfunc_end163:
	.size	_ZN4core3ptr31_$LT$impl$u20$$BP$mut$u20$T$GT$6offset17h92037a7c21844171E, .Lfunc_end163-_ZN4core3ptr31_$LT$impl$u20$$BP$mut$u20$T$GT$6offset17h92037a7c21844171E
	.cfi_endproc

	.section	".text._ZN4core3ptr31_$LT$impl$u20$$BP$mut$u20$T$GT$7is_null17h15f10a3a87700003E","ax",@progbits
	.p2align	4, 0x90
	.type	_ZN4core3ptr31_$LT$impl$u20$$BP$mut$u20$T$GT$7is_null17h15f10a3a87700003E,@function
_ZN4core3ptr31_$LT$impl$u20$$BP$mut$u20$T$GT$7is_null17h15f10a3a87700003E:
	.cfi_startproc
	subq	$24, %rsp
	.cfi_def_cfa_offset 32
	movq	%rdi, 16(%rsp)
	callq	_ZN4core3ptr8null_mut17h8dac6181ee80b872E
	movq	%rax, 8(%rsp)
	movq	16(%rsp), %rax
	movq	8(%rsp), %rcx
	cmpq	%rcx, %rax
	sete	%dl
	andb	$1, %dl
	movzbl	%dl, %esi
	movl	%esi, %eax
	addq	$24, %rsp
	.cfi_def_cfa_offset 8
	retq
.Lfunc_end164:
	.size	_ZN4core3ptr31_$LT$impl$u20$$BP$mut$u20$T$GT$7is_null17h15f10a3a87700003E, .Lfunc_end164-_ZN4core3ptr31_$LT$impl$u20$$BP$mut$u20$T$GT$7is_null17h15f10a3a87700003E
	.cfi_endproc

	.section	".text._ZN4core3ptr31_$LT$impl$u20$$BP$mut$u20$T$GT$7is_null17h81630a2ce924e9baE","ax",@progbits
	.p2align	4, 0x90
	.type	_ZN4core3ptr31_$LT$impl$u20$$BP$mut$u20$T$GT$7is_null17h81630a2ce924e9baE,@function
_ZN4core3ptr31_$LT$impl$u20$$BP$mut$u20$T$GT$7is_null17h81630a2ce924e9baE:
	.cfi_startproc
	subq	$24, %rsp
	.cfi_def_cfa_offset 32
	movq	%rdi, 16(%rsp)
	callq	_ZN4core3ptr8null_mut17h8dac6181ee80b872E
	movq	%rax, 8(%rsp)
	movq	16(%rsp), %rax
	movq	8(%rsp), %rcx
	cmpq	%rcx, %rax
	sete	%dl
	andb	$1, %dl
	movzbl	%dl, %esi
	movl	%esi, %eax
	addq	$24, %rsp
	.cfi_def_cfa_offset 8
	retq
.Lfunc_end165:
	.size	_ZN4core3ptr31_$LT$impl$u20$$BP$mut$u20$T$GT$7is_null17h81630a2ce924e9baE, .Lfunc_end165-_ZN4core3ptr31_$LT$impl$u20$$BP$mut$u20$T$GT$7is_null17h81630a2ce924e9baE
	.cfi_endproc

	.section	".text._ZN4core3ptr33_$LT$impl$u20$$BP$const$u20$T$GT$12wrapping_add17h9987f0cfab639885E","ax",@progbits
	.p2align	4, 0x90
	.type	_ZN4core3ptr33_$LT$impl$u20$$BP$const$u20$T$GT$12wrapping_add17h9987f0cfab639885E,@function
_ZN4core3ptr33_$LT$impl$u20$$BP$const$u20$T$GT$12wrapping_add17h9987f0cfab639885E:
	.cfi_startproc
	pushq	%rax
	.cfi_def_cfa_offset 16
	callq	_ZN4core3ptr33_$LT$impl$u20$$BP$const$u20$T$GT$15wrapping_offset17h3e4cb31731a67fbbE
	movq	%rax, (%rsp)
	movq	(%rsp), %rax
	popq	%rcx
	.cfi_def_cfa_offset 8
	retq
.Lfunc_end166:
	.size	_ZN4core3ptr33_$LT$impl$u20$$BP$const$u20$T$GT$12wrapping_add17h9987f0cfab639885E, .Lfunc_end166-_ZN4core3ptr33_$LT$impl$u20$$BP$const$u20$T$GT$12wrapping_add17h9987f0cfab639885E
	.cfi_endproc

	.section	".text._ZN4core3ptr33_$LT$impl$u20$$BP$const$u20$T$GT$15wrapping_offset17h3e4cb31731a67fbbE","ax",@progbits
	.p2align	4, 0x90
	.type	_ZN4core3ptr33_$LT$impl$u20$$BP$const$u20$T$GT$15wrapping_offset17h3e4cb31731a67fbbE,@function
_ZN4core3ptr33_$LT$impl$u20$$BP$const$u20$T$GT$15wrapping_offset17h3e4cb31731a67fbbE:
	.cfi_startproc
	subq	$16, %rsp
	.cfi_def_cfa_offset 24
	addq	%rsi, %rdi
	movq	%rdi, 8(%rsp)
	movq	8(%rsp), %rax
	movq	%rax, (%rsp)
	movq	(%rsp), %rax
	addq	$16, %rsp
	.cfi_def_cfa_offset 8
	retq
.Lfunc_end167:
	.size	_ZN4core3ptr33_$LT$impl$u20$$BP$const$u20$T$GT$15wrapping_offset17h3e4cb31731a67fbbE, .Lfunc_end167-_ZN4core3ptr33_$LT$impl$u20$$BP$const$u20$T$GT$15wrapping_offset17h3e4cb31731a67fbbE
	.cfi_endproc

	.section	".text._ZN4core3ptr33_$LT$impl$u20$$BP$const$u20$T$GT$3add17h104ee3166db6d565E","ax",@progbits
	.p2align	4, 0x90
	.type	_ZN4core3ptr33_$LT$impl$u20$$BP$const$u20$T$GT$3add17h104ee3166db6d565E,@function
_ZN4core3ptr33_$LT$impl$u20$$BP$const$u20$T$GT$3add17h104ee3166db6d565E:
	.cfi_startproc
	pushq	%rax
	.cfi_def_cfa_offset 16
	callq	_ZN4core3ptr33_$LT$impl$u20$$BP$const$u20$T$GT$6offset17hf28d1907ef53bf7dE
	movq	%rax, (%rsp)
	movq	(%rsp), %rax
	popq	%rcx
	.cfi_def_cfa_offset 8
	retq
.Lfunc_end168:
	.size	_ZN4core3ptr33_$LT$impl$u20$$BP$const$u20$T$GT$3add17h104ee3166db6d565E, .Lfunc_end168-_ZN4core3ptr33_$LT$impl$u20$$BP$const$u20$T$GT$3add17h104ee3166db6d565E
	.cfi_endproc

	.section	".text._ZN4core3ptr33_$LT$impl$u20$$BP$const$u20$T$GT$3add17h6382c2a38ab424a9E","ax",@progbits
	.p2align	4, 0x90
	.type	_ZN4core3ptr33_$LT$impl$u20$$BP$const$u20$T$GT$3add17h6382c2a38ab424a9E,@function
_ZN4core3ptr33_$LT$impl$u20$$BP$const$u20$T$GT$3add17h6382c2a38ab424a9E:
	.cfi_startproc
	pushq	%rax
	.cfi_def_cfa_offset 16
	callq	_ZN4core3ptr33_$LT$impl$u20$$BP$const$u20$T$GT$6offset17h7335ff09340acbc6E
	movq	%rax, (%rsp)
	movq	(%rsp), %rax
	popq	%rcx
	.cfi_def_cfa_offset 8
	retq
.Lfunc_end169:
	.size	_ZN4core3ptr33_$LT$impl$u20$$BP$const$u20$T$GT$3add17h6382c2a38ab424a9E, .Lfunc_end169-_ZN4core3ptr33_$LT$impl$u20$$BP$const$u20$T$GT$3add17h6382c2a38ab424a9E
	.cfi_endproc

	.section	".text._ZN4core3ptr33_$LT$impl$u20$$BP$const$u20$T$GT$6offset17h7335ff09340acbc6E","ax",@progbits
	.p2align	4, 0x90
	.type	_ZN4core3ptr33_$LT$impl$u20$$BP$const$u20$T$GT$6offset17h7335ff09340acbc6E,@function
_ZN4core3ptr33_$LT$impl$u20$$BP$const$u20$T$GT$6offset17h7335ff09340acbc6E:
	.cfi_startproc
	subq	$16, %rsp
	.cfi_def_cfa_offset 24
	addq	%rsi, %rdi
	movq	%rdi, 8(%rsp)
	movq	8(%rsp), %rax
	movq	%rax, (%rsp)
	movq	(%rsp), %rax
	addq	$16, %rsp
	.cfi_def_cfa_offset 8
	retq
.Lfunc_end170:
	.size	_ZN4core3ptr33_$LT$impl$u20$$BP$const$u20$T$GT$6offset17h7335ff09340acbc6E, .Lfunc_end170-_ZN4core3ptr33_$LT$impl$u20$$BP$const$u20$T$GT$6offset17h7335ff09340acbc6E
	.cfi_endproc

	.section	".text._ZN4core3ptr33_$LT$impl$u20$$BP$const$u20$T$GT$6offset17hf28d1907ef53bf7dE","ax",@progbits
	.p2align	4, 0x90
	.type	_ZN4core3ptr33_$LT$impl$u20$$BP$const$u20$T$GT$6offset17hf28d1907ef53bf7dE,@function
_ZN4core3ptr33_$LT$impl$u20$$BP$const$u20$T$GT$6offset17hf28d1907ef53bf7dE:
	.cfi_startproc
	subq	$16, %rsp
	.cfi_def_cfa_offset 24
	shlq	$2, %rsi
	addq	%rsi, %rdi
	movq	%rdi, 8(%rsp)
	movq	8(%rsp), %rax
	movq	%rax, (%rsp)
	movq	(%rsp), %rax
	addq	$16, %rsp
	.cfi_def_cfa_offset 8
	retq
.Lfunc_end171:
	.size	_ZN4core3ptr33_$LT$impl$u20$$BP$const$u20$T$GT$6offset17hf28d1907ef53bf7dE, .Lfunc_end171-_ZN4core3ptr33_$LT$impl$u20$$BP$const$u20$T$GT$6offset17hf28d1907ef53bf7dE
	.cfi_endproc

	.section	".text._ZN4core3ptr33_$LT$impl$u20$$BP$const$u20$T$GT$7is_null17h4e8ac3715e01649dE","ax",@progbits
	.p2align	4, 0x90
	.type	_ZN4core3ptr33_$LT$impl$u20$$BP$const$u20$T$GT$7is_null17h4e8ac3715e01649dE,@function
_ZN4core3ptr33_$LT$impl$u20$$BP$const$u20$T$GT$7is_null17h4e8ac3715e01649dE:
	.cfi_startproc
	subq	$24, %rsp
	.cfi_def_cfa_offset 32
	movq	%rdi, 16(%rsp)
	callq	_ZN4core3ptr4null17h2081875afbaabcc2E
	movq	%rax, 8(%rsp)
	movq	16(%rsp), %rax
	movq	8(%rsp), %rcx
	cmpq	%rcx, %rax
	sete	%dl
	andb	$1, %dl
	movzbl	%dl, %esi
	movl	%esi, %eax
	addq	$24, %rsp
	.cfi_def_cfa_offset 8
	retq
.Lfunc_end172:
	.size	_ZN4core3ptr33_$LT$impl$u20$$BP$const$u20$T$GT$7is_null17h4e8ac3715e01649dE, .Lfunc_end172-_ZN4core3ptr33_$LT$impl$u20$$BP$const$u20$T$GT$7is_null17h4e8ac3715e01649dE
	.cfi_endproc

	.section	".text._ZN4core3ptr33_$LT$impl$u20$$BP$const$u20$T$GT$7is_null17hb6275bae240a8e80E","ax",@progbits
	.p2align	4, 0x90
	.type	_ZN4core3ptr33_$LT$impl$u20$$BP$const$u20$T$GT$7is_null17hb6275bae240a8e80E,@function
_ZN4core3ptr33_$LT$impl$u20$$BP$const$u20$T$GT$7is_null17hb6275bae240a8e80E:
	.cfi_startproc
	subq	$24, %rsp
	.cfi_def_cfa_offset 32
	movq	%rdi, 16(%rsp)
	callq	_ZN4core3ptr4null17h2081875afbaabcc2E
	movq	%rax, 8(%rsp)
	movq	16(%rsp), %rax
	movq	8(%rsp), %rcx
	cmpq	%rcx, %rax
	sete	%dl
	andb	$1, %dl
	movzbl	%dl, %esi
	movl	%esi, %eax
	addq	$24, %rsp
	.cfi_def_cfa_offset 8
	retq
.Lfunc_end173:
	.size	_ZN4core3ptr33_$LT$impl$u20$$BP$const$u20$T$GT$7is_null17hb6275bae240a8e80E, .Lfunc_end173-_ZN4core3ptr33_$LT$impl$u20$$BP$const$u20$T$GT$7is_null17hb6275bae240a8e80E
	.cfi_endproc

	.section	.text._ZN4core3ptr4null17h2081875afbaabcc2E,"ax",@progbits
	.p2align	4, 0x90
	.type	_ZN4core3ptr4null17h2081875afbaabcc2E,@function
_ZN4core3ptr4null17h2081875afbaabcc2E:
	.cfi_startproc
	xorl	%eax, %eax
	retq
.Lfunc_end174:
	.size	_ZN4core3ptr4null17h2081875afbaabcc2E, .Lfunc_end174-_ZN4core3ptr4null17h2081875afbaabcc2E
	.cfi_endproc

	.section	.text._ZN4core3ptr4read17h12a3e32a5a529932E,"ax",@progbits
	.p2align	4, 0x90
	.type	_ZN4core3ptr4read17h12a3e32a5a529932E,@function
_ZN4core3ptr4read17h12a3e32a5a529932E:
	.cfi_startproc
	subq	$56, %rsp
	.cfi_def_cfa_offset 64
	movq	40(%rsp), %rax
	movq	48(%rsp), %rcx
	movq	%rcx, 32(%rsp)
	movq	%rax, 24(%rsp)
	movq	%rdi, 16(%rsp)
	jmp	.LBB175_2
.LBB175_2:
	movq	16(%rsp), %rdi
	leaq	24(%rsp), %rsi
	movl	$1, %edx
	callq	_ZN4core10intrinsics19copy_nonoverlapping17h5c8df3309f91cf5eE
	movq	24(%rsp), %rax
	movq	32(%rsp), %rdx
	movq	%rax, 8(%rsp)
	movq	%rdx, (%rsp)
	movq	8(%rsp), %rax
	movq	(%rsp), %rdx
	addq	$56, %rsp
	.cfi_def_cfa_offset 8
	retq
.Lfunc_end175:
	.size	_ZN4core3ptr4read17h12a3e32a5a529932E, .Lfunc_end175-_ZN4core3ptr4read17h12a3e32a5a529932E
	.cfi_endproc

	.section	.text._ZN4core3ptr4read17hb0a75885f1a04642E,"ax",@progbits
	.p2align	4, 0x90
	.type	_ZN4core3ptr4read17hb0a75885f1a04642E,@function
_ZN4core3ptr4read17hb0a75885f1a04642E:
	.cfi_startproc
	subq	$40, %rsp
	.cfi_def_cfa_offset 48
	movq	%rdi, 16(%rsp)
	leaq	24(%rsp), %rax
	movq	%rax, 8(%rsp)
	movq	16(%rsp), %rdi
	movq	8(%rsp), %rsi
	movl	$1, %edx
	callq	_ZN4core10intrinsics19copy_nonoverlapping17hf2be61a87952cb10E
	jmp	.LBB176_4
.LBB176_4:
	addq	$40, %rsp
	.cfi_def_cfa_offset 8
	retq
.Lfunc_end176:
	.size	_ZN4core3ptr4read17hb0a75885f1a04642E, .Lfunc_end176-_ZN4core3ptr4read17hb0a75885f1a04642E
	.cfi_endproc

	.section	.text._ZN4core3ptr4read17hc2dabe0207c1d709E,"ax",@progbits
	.p2align	4, 0x90
	.type	_ZN4core3ptr4read17hc2dabe0207c1d709E,@function
_ZN4core3ptr4read17hc2dabe0207c1d709E:
	.cfi_startproc
	subq	$56, %rsp
	.cfi_def_cfa_offset 64
	movq	40(%rsp), %rax
	movq	48(%rsp), %rcx
	movq	%rcx, 32(%rsp)
	movq	%rax, 24(%rsp)
	movq	%rdi, 16(%rsp)
	jmp	.LBB177_2
.LBB177_2:
	movq	16(%rsp), %rdi
	leaq	24(%rsp), %rsi
	movl	$1, %edx
	callq	_ZN4core10intrinsics19copy_nonoverlapping17h40e143e08364eb65E
	movq	24(%rsp), %rax
	movq	32(%rsp), %rdx
	movq	%rax, 8(%rsp)
	movq	%rdx, (%rsp)
	movq	8(%rsp), %rax
	movq	(%rsp), %rdx
	addq	$56, %rsp
	.cfi_def_cfa_offset 8
	retq
.Lfunc_end177:
	.size	_ZN4core3ptr4read17hc2dabe0207c1d709E, .Lfunc_end177-_ZN4core3ptr4read17hc2dabe0207c1d709E
	.cfi_endproc

	.section	.text._ZN4core3ptr5write17h87b7781840248bfdE,"ax",@progbits
	.p2align	4, 0x90
	.type	_ZN4core3ptr5write17h87b7781840248bfdE,@function
_ZN4core3ptr5write17h87b7781840248bfdE:
	.cfi_startproc
	movq	%rsi, (%rdi)
	movq	%rdx, 8(%rdi)
	retq
.Lfunc_end178:
	.size	_ZN4core3ptr5write17h87b7781840248bfdE, .Lfunc_end178-_ZN4core3ptr5write17h87b7781840248bfdE
	.cfi_endproc

	.section	.text._ZN4core3ptr5write17h8ce97eab2193685dE,"ax",@progbits
	.p2align	4, 0x90
	.type	_ZN4core3ptr5write17h8ce97eab2193685dE,@function
_ZN4core3ptr5write17h8ce97eab2193685dE:
	.cfi_startproc
	movl	%esi, (%rdi)
	retq
.Lfunc_end179:
	.size	_ZN4core3ptr5write17h8ce97eab2193685dE, .Lfunc_end179-_ZN4core3ptr5write17h8ce97eab2193685dE
	.cfi_endproc

	.section	.text._ZN4core3ptr5write17hd1768e8f502150eaE,"ax",@progbits
	.p2align	4, 0x90
	.type	_ZN4core3ptr5write17hd1768e8f502150eaE,@function
_ZN4core3ptr5write17hd1768e8f502150eaE:
	.cfi_startproc
	movq	%rsi, (%rdi)
	movq	%rdx, 8(%rdi)
	retq
.Lfunc_end180:
	.size	_ZN4core3ptr5write17hd1768e8f502150eaE, .Lfunc_end180-_ZN4core3ptr5write17hd1768e8f502150eaE
	.cfi_endproc

	.section	.text._ZN4core3ptr8null_mut17h8dac6181ee80b872E,"ax",@progbits
	.p2align	4, 0x90
	.type	_ZN4core3ptr8null_mut17h8dac6181ee80b872E,@function
_ZN4core3ptr8null_mut17h8dac6181ee80b872E:
	.cfi_startproc
	xorl	%eax, %eax
	retq
.Lfunc_end181:
	.size	_ZN4core3ptr8null_mut17h8dac6181ee80b872E, .Lfunc_end181-_ZN4core3ptr8null_mut17h8dac6181ee80b872E
	.cfi_endproc

	.section	.text._ZN4core3str11unwrap_or_017h42e05b7f487d178eE,"ax",@progbits
	.p2align	4, 0x90
	.type	_ZN4core3str11unwrap_or_017h42e05b7f487d178eE,@function
_ZN4core3str11unwrap_or_017h42e05b7f487d178eE:
	.cfi_startproc
	subq	$32, %rsp
	.cfi_def_cfa_offset 40
	movq	%rdi, 16(%rsp)
	movq	16(%rsp), %rdi
	testq	%rdi, %rdi
	setne	%al
	movzbl	%al, %ecx
	movl	%ecx, %edi
	movq	%rdi, 8(%rsp)
	je	.LBB182_3
	jmp	.LBB182_5
.LBB182_5:
	movq	8(%rsp), %rax
	subq	$1, %rax
	movq	%rax, (%rsp)
	je	.LBB182_2
	jmp	.LBB182_1
.LBB182_1:
	ud2
.LBB182_2:
	movq	16(%rsp), %rax
	movb	(%rax), %cl
	movb	%cl, 31(%rsp)
	jmp	.LBB182_4
.LBB182_3:
	movb	$0, 31(%rsp)
.LBB182_4:
	movb	31(%rsp), %al
	addq	$32, %rsp
	.cfi_def_cfa_offset 8
	retq
.Lfunc_end182:
	.size	_ZN4core3str11unwrap_or_017h42e05b7f487d178eE, .Lfunc_end182-_ZN4core3str11unwrap_or_017h42e05b7f487d178eE
	.cfi_endproc

	.section	.text._ZN4core3str15utf8_first_byte17h8786d170845b2dc2E,"ax",@progbits
	.p2align	4, 0x90
	.type	_ZN4core3str15utf8_first_byte17h8786d170845b2dc2E,@function
_ZN4core3str15utf8_first_byte17h8786d170845b2dc2E:
	.cfi_startproc
	movb	%dil, %al
	movb	%sil, %cl
	andb	$7, %cl
	movb	$127, %dl
	shrb	%cl, %dl
	andb	%dl, %al
	movzbl	%al, %eax
	retq
.Lfunc_end183:
	.size	_ZN4core3str15utf8_first_byte17h8786d170845b2dc2E, .Lfunc_end183-_ZN4core3str15utf8_first_byte17h8786d170845b2dc2E
	.cfi_endproc

	.section	.text._ZN4core3str17utf8_is_cont_byte17h9e7a305a1a77aed8E,"ax",@progbits
	.p2align	4, 0x90
	.type	_ZN4core3str17utf8_is_cont_byte17h9e7a305a1a77aed8E,@function
_ZN4core3str17utf8_is_cont_byte17h9e7a305a1a77aed8E:
	.cfi_startproc
	movb	%dil, %al
	andb	$-64, %al
	cmpb	$-128, %al
	sete	%al
	andb	$1, %al
	movzbl	%al, %eax
	retq
.Lfunc_end184:
	.size	_ZN4core3str17utf8_is_cont_byte17h9e7a305a1a77aed8E, .Lfunc_end184-_ZN4core3str17utf8_is_cont_byte17h9e7a305a1a77aed8E
	.cfi_endproc

	.section	.text._ZN4core3str18utf8_acc_cont_byte17h10cc928054abdaf6E,"ax",@progbits
	.p2align	4, 0x90
	.type	_ZN4core3str18utf8_acc_cont_byte17h10cc928054abdaf6E,@function
_ZN4core3str18utf8_acc_cont_byte17h10cc928054abdaf6E:
	.cfi_startproc
	movb	%sil, %al
	shll	$6, %edi
	andb	$63, %al
	movzbl	%al, %esi
	orl	%esi, %edi
	movl	%edi, %eax
	retq
.Lfunc_end185:
	.size	_ZN4core3str18utf8_acc_cont_byte17h10cc928054abdaf6E, .Lfunc_end185-_ZN4core3str18utf8_acc_cont_byte17h10cc928054abdaf6E
	.cfi_endproc

	.section	.text._ZN4core3str19from_utf8_unchecked17h1b7fce7b9e729797E,"ax",@progbits
	.p2align	4, 0x90
	.type	_ZN4core3str19from_utf8_unchecked17h1b7fce7b9e729797E,@function
_ZN4core3str19from_utf8_unchecked17h1b7fce7b9e729797E:
	.cfi_startproc
	movq	%rdi, %rax
	movq	%rsi, %rdx
	retq
.Lfunc_end186:
	.size	_ZN4core3str19from_utf8_unchecked17h1b7fce7b9e729797E, .Lfunc_end186-_ZN4core3str19from_utf8_unchecked17h1b7fce7b9e729797E
	.cfi_endproc

	.section	".text._ZN4core3str21_$LT$impl$u20$str$GT$16is_char_boundary17hbc990623353aabe2E","ax",@progbits
	.p2align	4, 0x90
	.type	_ZN4core3str21_$LT$impl$u20$str$GT$16is_char_boundary17hbc990623353aabe2E,@function
_ZN4core3str21_$LT$impl$u20$str$GT$16is_char_boundary17hbc990623353aabe2E:
	.cfi_startproc
	subq	$104, %rsp
	.cfi_def_cfa_offset 112
	cmpq	$0, %rdx
	movq	%rdi, 64(%rsp)
	movq	%rsi, 56(%rsp)
	movq	%rdx, 48(%rsp)
	jne	.LBB187_2
	movb	$1, 79(%rsp)
	jmp	.LBB187_3
.LBB187_2:
	movq	64(%rsp), %rdi
	movq	56(%rsp), %rsi
	callq	_ZN4core3str21_$LT$impl$u20$str$GT$3len17h1dc9d2d6044c6cc3E
	movq	%rax, 40(%rsp)
	jmp	.LBB187_4
.LBB187_3:
	testb	$1, 79(%rsp)
	jne	.LBB187_5
	jmp	.LBB187_7
.LBB187_4:
	movq	48(%rsp), %rax
	movq	40(%rsp), %rcx
	cmpq	%rcx, %rax
	sete	%dl
	andb	$1, %dl
	movb	%dl, 79(%rsp)
	jmp	.LBB187_3
.LBB187_5:
	movb	$1, 78(%rsp)
.LBB187_6:
	movb	78(%rsp), %al
	andb	$1, %al
	movzbl	%al, %eax
	addq	$104, %rsp
	.cfi_def_cfa_offset 8
	retq
.LBB187_7:
	.cfi_def_cfa_offset 112
	movq	64(%rsp), %rax
	movq	%rax, 88(%rsp)
	movq	56(%rsp), %rcx
	movq	%rcx, 96(%rsp)
	movq	88(%rsp), %rdi
	movq	96(%rsp), %rsi
	movq	%rdi, 32(%rsp)
	movq	%rsi, 24(%rsp)
	movq	32(%rsp), %rdi
	movq	24(%rsp), %rsi
	movq	48(%rsp), %rdx
	callq	_ZN4core5slice29_$LT$impl$u20$$u5b$T$u5d$$GT$3get17h481edce028ea8763E
	movq	%rax, 80(%rsp)
	movq	80(%rsp), %rax
	testq	%rax, %rax
	setne	%cl
	movzbl	%cl, %edx
	movl	%edx, %eax
	movq	%rax, 16(%rsp)
	je	.LBB187_11
	jmp	.LBB187_14
.LBB187_14:
	movq	16(%rsp), %rax
	subq	$1, %rax
	movq	%rax, 8(%rsp)
	je	.LBB187_12
	jmp	.LBB187_10
.LBB187_10:
	ud2
.LBB187_11:
	movb	$0, 78(%rsp)
	jmp	.LBB187_13
.LBB187_12:
	movq	80(%rsp), %rax
	cmpb	$-64, (%rax)
	setge	%cl
	andb	$1, %cl
	movb	%cl, 78(%rsp)
.LBB187_13:
	jmp	.LBB187_6
.Lfunc_end187:
	.size	_ZN4core3str21_$LT$impl$u20$str$GT$16is_char_boundary17hbc990623353aabe2E, .Lfunc_end187-_ZN4core3str21_$LT$impl$u20$str$GT$16is_char_boundary17hbc990623353aabe2E
	.cfi_endproc

	.section	".text._ZN4core3str21_$LT$impl$u20$str$GT$3len17h1dc9d2d6044c6cc3E","ax",@progbits
	.p2align	4, 0x90
	.type	_ZN4core3str21_$LT$impl$u20$str$GT$3len17h1dc9d2d6044c6cc3E,@function
_ZN4core3str21_$LT$impl$u20$str$GT$3len17h1dc9d2d6044c6cc3E:
	.cfi_startproc
	subq	$40, %rsp
	.cfi_def_cfa_offset 48
	movq	%rdi, 24(%rsp)
	movq	%rsi, 32(%rsp)
	movq	24(%rsp), %rdi
	movq	32(%rsp), %rsi
	movq	%rdi, 16(%rsp)
	movq	%rsi, 8(%rsp)
	movq	16(%rsp), %rdi
	movq	8(%rsp), %rsi
	callq	_ZN4core5slice29_$LT$impl$u20$$u5b$T$u5d$$GT$3len17h4ded11694fc2c466E
	movq	%rax, (%rsp)
	movq	(%rsp), %rax
	addq	$40, %rsp
	.cfi_def_cfa_offset 8
	retq
.Lfunc_end188:
	.size	_ZN4core3str21_$LT$impl$u20$str$GT$3len17h1dc9d2d6044c6cc3E, .Lfunc_end188-_ZN4core3str21_$LT$impl$u20$str$GT$3len17h1dc9d2d6044c6cc3E
	.cfi_endproc

	.section	".text._ZN4core3str21_$LT$impl$u20$str$GT$5chars17h6afff5120f044b83E","ax",@progbits
	.p2align	4, 0x90
	.type	_ZN4core3str21_$LT$impl$u20$str$GT$5chars17h6afff5120f044b83E,@function
_ZN4core3str21_$LT$impl$u20$str$GT$5chars17h6afff5120f044b83E:
	.cfi_startproc
	subq	$72, %rsp
	.cfi_def_cfa_offset 80
	movq	%rdi, 56(%rsp)
	movq	%rsi, 64(%rsp)
	movq	56(%rsp), %rdi
	movq	64(%rsp), %rsi
	movq	%rdi, 32(%rsp)
	movq	%rsi, 24(%rsp)
	movq	32(%rsp), %rdi
	movq	24(%rsp), %rsi
	callq	_ZN4core5slice29_$LT$impl$u20$$u5b$T$u5d$$GT$4iter17h4587a83c6c580daeE
	movq	%rax, 16(%rsp)
	movq	%rdx, 8(%rsp)
	movq	16(%rsp), %rax
	movq	%rax, 40(%rsp)
	movq	8(%rsp), %rcx
	movq	%rcx, 48(%rsp)
	movq	40(%rsp), %rax
	movq	48(%rsp), %rdx
	addq	$72, %rsp
	.cfi_def_cfa_offset 8
	retq
.Lfunc_end189:
	.size	_ZN4core3str21_$LT$impl$u20$str$GT$5chars17h6afff5120f044b83E, .Lfunc_end189-_ZN4core3str21_$LT$impl$u20$str$GT$5chars17h6afff5120f044b83E
	.cfi_endproc

	.section	".text._ZN4core3str21_$LT$impl$u20$str$GT$5parse17h98902f9deee6090eE","ax",@progbits
	.p2align	4, 0x90
	.type	_ZN4core3str21_$LT$impl$u20$str$GT$5parse17h98902f9deee6090eE,@function
_ZN4core3str21_$LT$impl$u20$str$GT$5parse17h98902f9deee6090eE:
	.cfi_startproc
	subq	$24, %rsp
	.cfi_def_cfa_offset 32
	callq	*_ZN4core3num52_$LT$impl$u20$core..str..FromStr$u20$for$u20$u32$GT$8from_str17h60a47ebb9a2f2f32E@GOTPCREL(%rip)
	movq	%rax, 16(%rsp)
	movq	16(%rsp), %rax
	movq	%rax, 8(%rsp)
	movq	8(%rsp), %rax
	addq	$24, %rsp
	.cfi_def_cfa_offset 8
	retq
.Lfunc_end190:
	.size	_ZN4core3str21_$LT$impl$u20$str$GT$5parse17h98902f9deee6090eE, .Lfunc_end190-_ZN4core3str21_$LT$impl$u20$str$GT$5parse17h98902f9deee6090eE
	.cfi_endproc

	.section	".text._ZN4core3str21_$LT$impl$u20$str$GT$6as_ptr17hdef539896aac1871E","ax",@progbits
	.p2align	4, 0x90
	.type	_ZN4core3str21_$LT$impl$u20$str$GT$6as_ptr17hdef539896aac1871E,@function
_ZN4core3str21_$LT$impl$u20$str$GT$6as_ptr17hdef539896aac1871E:
	.cfi_startproc
	pushq	%rax
	.cfi_def_cfa_offset 16
	movq	%rdi, %rax
	movq	%rsi, (%rsp)
	popq	%rcx
	.cfi_def_cfa_offset 8
	retq
.Lfunc_end191:
	.size	_ZN4core3str21_$LT$impl$u20$str$GT$6as_ptr17hdef539896aac1871E, .Lfunc_end191-_ZN4core3str21_$LT$impl$u20$str$GT$6as_ptr17hdef539896aac1871E
	.cfi_endproc

	.section	".text._ZN4core3str21_$LT$impl$u20$str$GT$9ends_with17h8faf29b788ce3083E","ax",@progbits
	.p2align	4, 0x90
	.type	_ZN4core3str21_$LT$impl$u20$str$GT$9ends_with17h8faf29b788ce3083E,@function
_ZN4core3str21_$LT$impl$u20$str$GT$9ends_with17h8faf29b788ce3083E:
	.cfi_startproc
	subq	$24, %rsp
	.cfi_def_cfa_offset 32
	movq	%rdi, 16(%rsp)
	movq	%rdx, %rdi
	movq	%rsi, 8(%rsp)
	movq	%rcx, %rsi
	movq	16(%rsp), %rdx
	movq	8(%rsp), %rcx
	callq	_ZN55_$LT$$RF$str$u20$as$u20$core..str..pattern..Pattern$GT$12is_suffix_of17h12cec75a82f0b273E
	movb	%al, 7(%rsp)
	movb	7(%rsp), %al
	andb	$1, %al
	movzbl	%al, %eax
	addq	$24, %rsp
	.cfi_def_cfa_offset 8
	retq
.Lfunc_end192:
	.size	_ZN4core3str21_$LT$impl$u20$str$GT$9ends_with17h8faf29b788ce3083E, .Lfunc_end192-_ZN4core3str21_$LT$impl$u20$str$GT$9ends_with17h8faf29b788ce3083E
	.cfi_endproc

	.section	.text._ZN4core3str23next_code_point_reverse17hf876e98a33e7881bE,"ax",@progbits
	.p2align	4, 0x90
	.type	_ZN4core3str23next_code_point_reverse17hf876e98a33e7881bE,@function
_ZN4core3str23next_code_point_reverse17hf876e98a33e7881bE:
	.cfi_startproc
	subq	$152, %rsp
	.cfi_def_cfa_offset 160
	movq	%rdi, 120(%rsp)
	callq	_ZN100_$LT$core..slice..Iter$LT$T$GT$$u20$as$u20$core..iter..traits..double_ended..DoubleEndedIterator$GT$9next_back17h75ab70b66b86447eE
	movq	%rax, 112(%rsp)
	movq	112(%rsp), %rdi
	callq	_ZN69_$LT$core..option..Option$LT$T$GT$$u20$as$u20$core..ops..try..Try$GT$11into_result17h2d27ce842fd27b74E
	movq	%rax, 136(%rsp)
	movq	136(%rsp), %rax
	testq	%rax, %rax
	sete	%cl
	movzbl	%cl, %edx
	movl	%edx, %eax
	movq	%rax, 104(%rsp)
	jne	.LBB193_9
	jmp	.LBB193_30
.LBB193_30:
	movq	104(%rsp), %rax
	subq	$1, %rax
	movq	%rax, 96(%rsp)
	je	.LBB193_4
	jmp	.LBB193_3
.LBB193_3:
	ud2
.LBB193_4:
	callq	_ZN50_$LT$T$u20$as$u20$core..convert..From$LT$T$GT$$GT$4from17hecd8cccde7d1e353E
	callq	_ZN69_$LT$core..option..Option$LT$T$GT$$u20$as$u20$core..ops..try..Try$GT$10from_error17h2f89be98de9d2671E
	movl	%edx, 132(%rsp)
	movl	%eax, 128(%rsp)
	jmp	.LBB193_8
.LBB193_7:
	movl	128(%rsp), %eax
	movl	132(%rsp), %edx
	addq	$152, %rsp
	.cfi_def_cfa_offset 8
	retq
.LBB193_8:
	.cfi_def_cfa_offset 160
	jmp	.LBB193_7
.LBB193_9:
	movq	136(%rsp), %rax
	cmpb	$-128, (%rax)
	movq	%rax, 88(%rsp)
	jb	.LBB193_11
	movq	88(%rsp), %rax
	movb	(%rax), %cl
	movq	120(%rsp), %rdi
	movb	%cl, 87(%rsp)
	callq	_ZN100_$LT$core..slice..Iter$LT$T$GT$$u20$as$u20$core..iter..traits..double_ended..DoubleEndedIterator$GT$9next_back17h75ab70b66b86447eE
	movq	%rax, 72(%rsp)
	jmp	.LBB193_12
.LBB193_11:
	movq	88(%rsp), %rax
	movzbl	(%rax), %ecx
	movl	%ecx, 132(%rsp)
	movl	$1, 128(%rsp)
	jmp	.LBB193_8
.LBB193_12:
	movq	72(%rsp), %rdi
	callq	_ZN4core3str11unwrap_or_017h42e05b7f487d178eE
	movb	%al, 71(%rsp)
	movb	71(%rsp), %al
	movzbl	%al, %edi
	movl	$2, %esi
	callq	_ZN4core3str15utf8_first_byte17h8786d170845b2dc2E
	movl	%eax, 64(%rsp)
	movl	64(%rsp), %eax
	movl	%eax, 148(%rsp)
	movb	71(%rsp), %cl
	movzbl	%cl, %edi
	callq	_ZN4core3str17utf8_is_cont_byte17h9e7a305a1a77aed8E
	movb	%al, 63(%rsp)
	movb	63(%rsp), %al
	testb	$1, %al
	jne	.LBB193_16
	jmp	.LBB193_28
.LBB193_16:
	movq	120(%rsp), %rdi
	callq	_ZN100_$LT$core..slice..Iter$LT$T$GT$$u20$as$u20$core..iter..traits..double_ended..DoubleEndedIterator$GT$9next_back17h75ab70b66b86447eE
	movq	%rax, 48(%rsp)
	movq	48(%rsp), %rdi
	callq	_ZN4core3str11unwrap_or_017h42e05b7f487d178eE
	movb	%al, 47(%rsp)
	movb	47(%rsp), %al
	movzbl	%al, %edi
	movl	$3, %esi
	callq	_ZN4core3str15utf8_first_byte17h8786d170845b2dc2E
	movl	%eax, 40(%rsp)
	movl	40(%rsp), %eax
	movl	%eax, 148(%rsp)
	movb	47(%rsp), %cl
	movzbl	%cl, %edi
	callq	_ZN4core3str17utf8_is_cont_byte17h9e7a305a1a77aed8E
	movb	%al, 39(%rsp)
	movb	39(%rsp), %al
	testb	$1, %al
	jne	.LBB193_21
	jmp	.LBB193_26
.LBB193_21:
	movq	120(%rsp), %rdi
	callq	_ZN100_$LT$core..slice..Iter$LT$T$GT$$u20$as$u20$core..iter..traits..double_ended..DoubleEndedIterator$GT$9next_back17h75ab70b66b86447eE
	movq	%rax, 24(%rsp)
	movq	24(%rsp), %rdi
	callq	_ZN4core3str11unwrap_or_017h42e05b7f487d178eE
	movb	%al, 23(%rsp)
	movb	23(%rsp), %al
	movzbl	%al, %edi
	movl	$4, %esi
	callq	_ZN4core3str15utf8_first_byte17h8786d170845b2dc2E
	movl	%eax, 16(%rsp)
	movl	16(%rsp), %eax
	movl	%eax, 148(%rsp)
	movl	148(%rsp), %edi
	movb	47(%rsp), %cl
	movzbl	%cl, %esi
	callq	_ZN4core3str18utf8_acc_cont_byte17h10cc928054abdaf6E
	movl	%eax, 12(%rsp)
	movl	12(%rsp), %eax
	movl	%eax, 148(%rsp)
.LBB193_26:
	movl	148(%rsp), %edi
	movb	71(%rsp), %al
	movzbl	%al, %esi
	callq	_ZN4core3str18utf8_acc_cont_byte17h10cc928054abdaf6E
	movl	%eax, 8(%rsp)
	movl	8(%rsp), %eax
	movl	%eax, 148(%rsp)
.LBB193_28:
	movl	148(%rsp), %edi
	movb	87(%rsp), %al
	movzbl	%al, %esi
	callq	_ZN4core3str18utf8_acc_cont_byte17h10cc928054abdaf6E
	movl	%eax, 4(%rsp)
	movl	4(%rsp), %eax
	movl	%eax, 148(%rsp)
	movl	148(%rsp), %ecx
	movl	%ecx, 132(%rsp)
	movl	$1, 128(%rsp)
	jmp	.LBB193_7
.Lfunc_end193:
	.size	_ZN4core3str23next_code_point_reverse17hf876e98a33e7881bE, .Lfunc_end193-_ZN4core3str23next_code_point_reverse17hf876e98a33e7881bE
	.cfi_endproc

	.section	".text._ZN4core3str6traits105_$LT$impl$u20$core..slice..SliceIndex$LT$str$GT$$u20$for$u20$core..ops..range..RangeFrom$LT$usize$GT$$GT$13get_unchecked17hfebad01b5ea3ad73E","ax",@progbits
	.p2align	4, 0x90
	.type	_ZN4core3str6traits105_$LT$impl$u20$core..slice..SliceIndex$LT$str$GT$$u20$for$u20$core..ops..range..RangeFrom$LT$usize$GT$$GT$13get_unchecked17hfebad01b5ea3ad73E,@function
_ZN4core3str6traits105_$LT$impl$u20$core..slice..SliceIndex$LT$str$GT$$u20$for$u20$core..ops..range..RangeFrom$LT$usize$GT$$GT$13get_unchecked17hfebad01b5ea3ad73E:
	.cfi_startproc
	subq	$88, %rsp
	.cfi_def_cfa_offset 96
	movq	%rdi, 80(%rsp)
	movq	%rsi, %rdi
	movq	%rsi, 72(%rsp)
	movq	%rdx, %rsi
	movq	%rdx, 64(%rsp)
	callq	_ZN4core3str21_$LT$impl$u20$str$GT$6as_ptr17hdef539896aac1871E
	movq	%rax, 56(%rsp)
	movq	56(%rsp), %rdi
	movq	80(%rsp), %rsi
	callq	_ZN4core3ptr33_$LT$impl$u20$$BP$const$u20$T$GT$3add17h6382c2a38ab424a9E
	movq	%rax, 48(%rsp)
	movq	72(%rsp), %rdi
	movq	64(%rsp), %rsi
	callq	_ZN4core3str21_$LT$impl$u20$str$GT$3len17h1dc9d2d6044c6cc3E
	movq	%rax, 40(%rsp)
	movq	40(%rsp), %rax
	movq	80(%rsp), %rcx
	subq	%rcx, %rax
	movq	48(%rsp), %rdi
	movq	%rax, %rsi
	callq	_ZN4core5slice14from_raw_parts17h61ce1423689c514fE
	movq	%rax, 32(%rsp)
	movq	%rdx, 24(%rsp)
	movq	32(%rsp), %rdi
	movq	24(%rsp), %rsi
	callq	_ZN4core3str19from_utf8_unchecked17h1b7fce7b9e729797E
	movq	%rax, 16(%rsp)
	movq	%rdx, 8(%rsp)
	movq	16(%rsp), %rax
	movq	8(%rsp), %rdx
	addq	$88, %rsp
	.cfi_def_cfa_offset 8
	retq
.Lfunc_end194:
	.size	_ZN4core3str6traits105_$LT$impl$u20$core..slice..SliceIndex$LT$str$GT$$u20$for$u20$core..ops..range..RangeFrom$LT$usize$GT$$GT$13get_unchecked17hfebad01b5ea3ad73E, .Lfunc_end194-_ZN4core3str6traits105_$LT$impl$u20$core..slice..SliceIndex$LT$str$GT$$u20$for$u20$core..ops..range..RangeFrom$LT$usize$GT$$GT$13get_unchecked17hfebad01b5ea3ad73E
	.cfi_endproc

	.section	".text._ZN4core3str6traits105_$LT$impl$u20$core..slice..SliceIndex$LT$str$GT$$u20$for$u20$core..ops..range..RangeFrom$LT$usize$GT$$GT$3get17h5c85ecbf9637e492E","ax",@progbits
	.p2align	4, 0x90
	.type	_ZN4core3str6traits105_$LT$impl$u20$core..slice..SliceIndex$LT$str$GT$$u20$for$u20$core..ops..range..RangeFrom$LT$usize$GT$$GT$3get17h5c85ecbf9637e492E,@function
_ZN4core3str6traits105_$LT$impl$u20$core..slice..SliceIndex$LT$str$GT$$u20$for$u20$core..ops..range..RangeFrom$LT$usize$GT$$GT$3get17h5c85ecbf9637e492E:
	.cfi_startproc
	subq	$72, %rsp
	.cfi_def_cfa_offset 80
	movq	%rdi, 48(%rsp)
	movq	%rsi, %rdi
	movq	%rsi, 40(%rsp)
	movq	%rdx, %rsi
	movq	48(%rsp), %rax
	movq	%rdx, 32(%rsp)
	movq	%rax, %rdx
	callq	_ZN4core3str21_$LT$impl$u20$str$GT$16is_char_boundary17hbc990623353aabe2E
	movb	%al, 31(%rsp)
	movb	31(%rsp), %al
	testb	$1, %al
	jne	.LBB195_2
	jmp	.LBB195_4
.LBB195_2:
	movq	48(%rsp), %rdi
	movq	40(%rsp), %rsi
	movq	32(%rsp), %rdx
	callq	_ZN4core3str6traits105_$LT$impl$u20$core..slice..SliceIndex$LT$str$GT$$u20$for$u20$core..ops..range..RangeFrom$LT$usize$GT$$GT$13get_unchecked17hfebad01b5ea3ad73E
	movq	%rax, 16(%rsp)
	movq	%rdx, 8(%rsp)
	movq	16(%rsp), %rax
	movq	%rax, 56(%rsp)
	movq	8(%rsp), %rcx
	movq	%rcx, 64(%rsp)
	jmp	.LBB195_5
.LBB195_4:
	movq	$0, 56(%rsp)
.LBB195_5:
	movq	56(%rsp), %rax
	movq	64(%rsp), %rdx
	addq	$72, %rsp
	.cfi_def_cfa_offset 8
	retq
.Lfunc_end195:
	.size	_ZN4core3str6traits105_$LT$impl$u20$core..slice..SliceIndex$LT$str$GT$$u20$for$u20$core..ops..range..RangeFrom$LT$usize$GT$$GT$3get17h5c85ecbf9637e492E, .Lfunc_end195-_ZN4core3str6traits105_$LT$impl$u20$core..slice..SliceIndex$LT$str$GT$$u20$for$u20$core..ops..range..RangeFrom$LT$usize$GT$$GT$3get17h5c85ecbf9637e492E
	.cfi_endproc

	.section	".text._ZN4core3str6traits105_$LT$impl$u20$core..slice..SliceIndex$LT$str$GT$$u20$for$u20$core..ops..range..RangeFrom$LT$usize$GT$$GT$5index17he43ebcee775f62dbE","ax",@progbits
	.p2align	4, 0x90
	.type	_ZN4core3str6traits105_$LT$impl$u20$core..slice..SliceIndex$LT$str$GT$$u20$for$u20$core..ops..range..RangeFrom$LT$usize$GT$$GT$5index17he43ebcee775f62dbE,@function
_ZN4core3str6traits105_$LT$impl$u20$core..slice..SliceIndex$LT$str$GT$$u20$for$u20$core..ops..range..RangeFrom$LT$usize$GT$$GT$5index17he43ebcee775f62dbE:
	.cfi_startproc
	subq	$120, %rsp
	.cfi_def_cfa_offset 128
	movq	%rsi, 48(%rsp)
	movq	%rdx, 56(%rsp)
	movq	48(%rsp), %rdx
	movq	56(%rsp), %rsi
	movq	%rdi, 40(%rsp)
	movq	%rdx, %rdi
	callq	_ZN4core3str21_$LT$impl$u20$str$GT$3len17h1dc9d2d6044c6cc3E
	movq	%rax, 32(%rsp)
	movq	40(%rsp), %rax
	movq	%rax, 80(%rsp)
	movq	32(%rsp), %rcx
	movq	%rcx, 88(%rsp)
	movq	80(%rsp), %rdx
	movq	%rdx, 64(%rsp)
	movq	88(%rsp), %rdx
	movq	%rdx, 72(%rsp)
	movq	48(%rsp), %rsi
	movq	56(%rsp), %rdx
	movq	%rax, %rdi
	callq	_ZN4core3str6traits105_$LT$impl$u20$core..slice..SliceIndex$LT$str$GT$$u20$for$u20$core..ops..range..RangeFrom$LT$usize$GT$$GT$3get17h5c85ecbf9637e492E
	movq	%rax, 24(%rsp)
	movq	%rdx, 16(%rsp)
	leaq	48(%rsp), %rax
	movq	%rax, 96(%rsp)
	leaq	64(%rsp), %rax
	movq	%rax, 104(%rsp)
	leaq	72(%rsp), %rax
	movq	%rax, 112(%rsp)
	movq	24(%rsp), %rdi
	movq	16(%rsp), %rsi
	leaq	96(%rsp), %rdx
	callq	_ZN4core6option15Option$LT$T$GT$14unwrap_or_else17hec9200e92dd2c6e5E
	movq	%rax, 8(%rsp)
	movq	%rdx, (%rsp)
	movq	8(%rsp), %rax
	movq	(%rsp), %rdx
	addq	$120, %rsp
	.cfi_def_cfa_offset 8
	retq
.Lfunc_end196:
	.size	_ZN4core3str6traits105_$LT$impl$u20$core..slice..SliceIndex$LT$str$GT$$u20$for$u20$core..ops..range..RangeFrom$LT$usize$GT$$GT$5index17he43ebcee775f62dbE, .Lfunc_end196-_ZN4core3str6traits105_$LT$impl$u20$core..slice..SliceIndex$LT$str$GT$$u20$for$u20$core..ops..range..RangeFrom$LT$usize$GT$$GT$5index17he43ebcee775f62dbE
	.cfi_endproc

	.section	".text._ZN4core3str6traits105_$LT$impl$u20$core..slice..SliceIndex$LT$str$GT$$u20$for$u20$core..ops..range..RangeFrom$LT$usize$GT$$GT$5index28_$u7b$$u7b$closure$u7d$$u7d$17hf011a698be548037E","ax",@progbits
	.p2align	4, 0x90
	.type	_ZN4core3str6traits105_$LT$impl$u20$core..slice..SliceIndex$LT$str$GT$$u20$for$u20$core..ops..range..RangeFrom$LT$usize$GT$$GT$5index28_$u7b$$u7b$closure$u7d$$u7d$17hf011a698be548037E,@function
_ZN4core3str6traits105_$LT$impl$u20$core..slice..SliceIndex$LT$str$GT$$u20$for$u20$core..ops..range..RangeFrom$LT$usize$GT$$GT$5index28_$u7b$$u7b$closure$u7d$$u7d$17hf011a698be548037E:
	.cfi_startproc
	pushq	%rax
	.cfi_def_cfa_offset 16
	movq	(%rdi), %rax
	movq	8(%rdi), %rcx
	movq	(%rax), %rdx
	movq	8(%rax), %rsi
	movq	(%rcx), %rax
	movq	16(%rdi), %rcx
	movq	(%rcx), %rcx
	movq	_ZN4core3str16slice_error_fail17hc451bcd344c84b82E@GOTPCREL(%rip), %rdi
	movq	%rdi, (%rsp)
	movq	%rdx, %rdi
	movq	%rax, %rdx
	movq	(%rsp), %rax
	callq	*%rax
	ud2
.Lfunc_end197:
	.size	_ZN4core3str6traits105_$LT$impl$u20$core..slice..SliceIndex$LT$str$GT$$u20$for$u20$core..ops..range..RangeFrom$LT$usize$GT$$GT$5index28_$u7b$$u7b$closure$u7d$$u7d$17hf011a698be548037E, .Lfunc_end197-_ZN4core3str6traits105_$LT$impl$u20$core..slice..SliceIndex$LT$str$GT$$u20$for$u20$core..ops..range..RangeFrom$LT$usize$GT$$GT$5index28_$u7b$$u7b$closure$u7d$$u7d$17hf011a698be548037E
	.cfi_endproc

	.section	".text._ZN4core3str6traits54_$LT$impl$u20$core..cmp..PartialEq$u20$for$u20$str$GT$2eq17h78f85f1c53e4e4c9E","ax",@progbits
	.p2align	4, 0x90
	.type	_ZN4core3str6traits54_$LT$impl$u20$core..cmp..PartialEq$u20$for$u20$str$GT$2eq17h78f85f1c53e4e4c9E,@function
_ZN4core3str6traits54_$LT$impl$u20$core..cmp..PartialEq$u20$for$u20$str$GT$2eq17h78f85f1c53e4e4c9E:
	.cfi_startproc
	subq	$88, %rsp
	.cfi_def_cfa_offset 96
	movq	%rdi, 56(%rsp)
	movq	%rsi, 64(%rsp)
	movq	56(%rsp), %rsi
	movq	64(%rsp), %rdi
	movq	%rdi, 32(%rsp)
	movq	%rsi, 24(%rsp)
	movq	%rdx, 16(%rsp)
	movq	%rcx, 8(%rsp)
	movq	16(%rsp), %rax
	movq	%rax, 72(%rsp)
	movq	8(%rsp), %rcx
	movq	%rcx, 80(%rsp)
	movq	72(%rsp), %rdx
	movq	80(%rsp), %rsi
	movq	%rsi, 48(%rsp)
	movq	%rdx, 40(%rsp)
	leaq	24(%rsp), %rdi
	leaq	40(%rsp), %rsi
	callq	_ZN4core3cmp5impls69_$LT$impl$u20$core..cmp..PartialEq$LT$$RF$B$GT$$u20$for$u20$$RF$A$GT$2eq17hda97e4a8ae3b1fbcE
	movb	%al, 7(%rsp)
	movb	7(%rsp), %al
	andb	$1, %al
	movzbl	%al, %eax
	addq	$88, %rsp
	.cfi_def_cfa_offset 8
	retq
.Lfunc_end198:
	.size	_ZN4core3str6traits54_$LT$impl$u20$core..cmp..PartialEq$u20$for$u20$str$GT$2eq17h78f85f1c53e4e4c9E, .Lfunc_end198-_ZN4core3str6traits54_$LT$impl$u20$core..cmp..PartialEq$u20$for$u20$str$GT$2eq17h78f85f1c53e4e4c9E
	.cfi_endproc

	.section	".text._ZN4core3str6traits66_$LT$impl$u20$core..ops..index..Index$LT$I$GT$$u20$for$u20$str$GT$5index17h854b63d6e5a213b1E","ax",@progbits
	.p2align	4, 0x90
	.type	_ZN4core3str6traits66_$LT$impl$u20$core..ops..index..Index$LT$I$GT$$u20$for$u20$str$GT$5index17h854b63d6e5a213b1E,@function
_ZN4core3str6traits66_$LT$impl$u20$core..ops..index..Index$LT$I$GT$$u20$for$u20$str$GT$5index17h854b63d6e5a213b1E:
	.cfi_startproc
	subq	$40, %rsp
	.cfi_def_cfa_offset 48
	movq	%rdi, 32(%rsp)
	movq	%rdx, %rdi
	movq	32(%rsp), %rdx
	movq	%rsi, 24(%rsp)
	movq	%rdx, %rsi
	movq	24(%rsp), %rdx
	callq	_ZN4core3str6traits105_$LT$impl$u20$core..slice..SliceIndex$LT$str$GT$$u20$for$u20$core..ops..range..RangeFrom$LT$usize$GT$$GT$5index17he43ebcee775f62dbE
	movq	%rax, 16(%rsp)
	movq	%rdx, 8(%rsp)
	movq	16(%rsp), %rax
	movq	8(%rsp), %rdx
	addq	$40, %rsp
	.cfi_def_cfa_offset 8
	retq
.Lfunc_end199:
	.size	_ZN4core3str6traits66_$LT$impl$u20$core..ops..index..Index$LT$I$GT$$u20$for$u20$str$GT$5index17h854b63d6e5a213b1E, .Lfunc_end199-_ZN4core3str6traits66_$LT$impl$u20$core..ops..index..Index$LT$I$GT$$u20$for$u20$str$GT$5index17h854b63d6e5a213b1E
	.cfi_endproc

	.section	.text._ZN4core4char7convert18from_u32_unchecked17h4e568bceeb828bcdE,"ax",@progbits
	.p2align	4, 0x90
	.type	_ZN4core4char7convert18from_u32_unchecked17h4e568bceeb828bcdE,@function
_ZN4core4char7convert18from_u32_unchecked17h4e568bceeb828bcdE:
	.cfi_startproc
	pushq	%rax
	.cfi_def_cfa_offset 16
	movl	%edi, 4(%rsp)
	movl	4(%rsp), %eax
	movl	%eax, (%rsp)
	movl	(%rsp), %eax
	popq	%rcx
	.cfi_def_cfa_offset 8
	retq
.Lfunc_end200:
	.size	_ZN4core4char7convert18from_u32_unchecked17h4e568bceeb828bcdE, .Lfunc_end200-_ZN4core4char7convert18from_u32_unchecked17h4e568bceeb828bcdE
	.cfi_endproc

	.section	".text._ZN4core4char7methods22_$LT$impl$u20$char$GT$8len_utf817he839bcd2c321b9c5E","ax",@progbits
	.p2align	4, 0x90
	.type	_ZN4core4char7methods22_$LT$impl$u20$char$GT$8len_utf817he839bcd2c321b9c5E,@function
_ZN4core4char7methods22_$LT$impl$u20$char$GT$8len_utf817he839bcd2c321b9c5E:
	.cfi_startproc
	subq	$16, %rsp
	.cfi_def_cfa_offset 24
	cmpl	$128, %edi
	movl	%edi, 4(%rsp)
	jae	.LBB201_2
	movq	$1, 8(%rsp)
	jmp	.LBB201_9
.LBB201_2:
	movl	4(%rsp), %eax
	cmpl	$2048, %eax
	jae	.LBB201_4
	movq	$2, 8(%rsp)
	jmp	.LBB201_8
.LBB201_4:
	movl	4(%rsp), %eax
	cmpl	$65536, %eax
	jae	.LBB201_6
	movq	$3, 8(%rsp)
	jmp	.LBB201_7
.LBB201_6:
	movq	$4, 8(%rsp)
.LBB201_7:
	jmp	.LBB201_8
.LBB201_8:
	jmp	.LBB201_9
.LBB201_9:
	movq	8(%rsp), %rax
	addq	$16, %rsp
	.cfi_def_cfa_offset 8
	retq
.Lfunc_end201:
	.size	_ZN4core4char7methods22_$LT$impl$u20$char$GT$8len_utf817he839bcd2c321b9c5E, .Lfunc_end201-_ZN4core4char7methods22_$LT$impl$u20$char$GT$8len_utf817he839bcd2c321b9c5E
	.cfi_endproc

	.section	.text._ZN4core4iter6traits8iterator8Iterator3map17hee2149633d021fb7E,"ax",@progbits
	.p2align	4, 0x90
	.type	_ZN4core4iter6traits8iterator8Iterator3map17hee2149633d021fb7E,@function
_ZN4core4iter6traits8iterator8Iterator3map17hee2149633d021fb7E:
	.cfi_startproc
	subq	$24, %rsp
	.cfi_def_cfa_offset 32
	callq	_ZN4core4iter8adapters16Map$LT$I$C$F$GT$3new17h9f2b7363e9b78924E
	movq	%rax, 16(%rsp)
	movq	%rdx, 8(%rsp)
	movq	16(%rsp), %rax
	movq	8(%rsp), %rdx
	addq	$24, %rsp
	.cfi_def_cfa_offset 8
	retq
.Lfunc_end202:
	.size	_ZN4core4iter6traits8iterator8Iterator3map17hee2149633d021fb7E, .Lfunc_end202-_ZN4core4iter6traits8iterator8Iterator3map17hee2149633d021fb7E
	.cfi_endproc

	.section	.text._ZN4core4iter6traits8iterator8Iterator3rev17h59db50c3f7c4a6a8E,"ax",@progbits
	.p2align	4, 0x90
	.type	_ZN4core4iter6traits8iterator8Iterator3rev17h59db50c3f7c4a6a8E,@function
_ZN4core4iter6traits8iterator8Iterator3rev17h59db50c3f7c4a6a8E:
	.cfi_startproc
	subq	$24, %rsp
	.cfi_def_cfa_offset 32
	callq	_ZN4core4iter8adapters12Rev$LT$T$GT$3new17he7634a50a6541b93E
	movq	%rax, 16(%rsp)
	movq	%rdx, 8(%rsp)
	movq	16(%rsp), %rax
	movq	8(%rsp), %rdx
	addq	$24, %rsp
	.cfi_def_cfa_offset 8
	retq
.Lfunc_end203:
	.size	_ZN4core4iter6traits8iterator8Iterator3rev17h59db50c3f7c4a6a8E, .Lfunc_end203-_ZN4core4iter6traits8iterator8Iterator3rev17h59db50c3f7c4a6a8E
	.cfi_endproc

	.section	.text._ZN4core4iter6traits8iterator8Iterator3sum17hf9daba299e97471bE,"ax",@progbits
	.p2align	4, 0x90
	.type	_ZN4core4iter6traits8iterator8Iterator3sum17hf9daba299e97471bE,@function
_ZN4core4iter6traits8iterator8Iterator3sum17hf9daba299e97471bE:
	.cfi_startproc
	pushq	%rax
	.cfi_def_cfa_offset 16
	callq	_ZN54_$LT$u32$u20$as$u20$core..iter..traits..accum..Sum$GT$3sum17h61903a6c66315023E
	movl	%eax, 4(%rsp)
	movl	4(%rsp), %eax
	popq	%rcx
	.cfi_def_cfa_offset 8
	retq
.Lfunc_end204:
	.size	_ZN4core4iter6traits8iterator8Iterator3sum17hf9daba299e97471bE, .Lfunc_end204-_ZN4core4iter6traits8iterator8Iterator3sum17hf9daba299e97471bE
	.cfi_endproc

	.section	.text._ZN4core4iter6traits8iterator8Iterator9enumerate17h57223d6371a83b6bE,"ax",@progbits
	.p2align	4, 0x90
	.type	_ZN4core4iter6traits8iterator8Iterator9enumerate17h57223d6371a83b6bE,@function
_ZN4core4iter6traits8iterator8Iterator9enumerate17h57223d6371a83b6bE:
	.cfi_startproc
	subq	$72, %rsp
	.cfi_def_cfa_offset 80
	movq	%rdi, %rax
	leaq	32(%rsp), %rcx
	movq	%rcx, %rdx
	movq	%rdi, 24(%rsp)
	movq	%rdx, %rdi
	movl	$40, %edx
	movq	%rax, 16(%rsp)
	movq	%rcx, 8(%rsp)
	callq	memcpy@PLT
	movq	24(%rsp), %rdi
	movq	8(%rsp), %rsi
	callq	_ZN4core4iter8adapters18Enumerate$LT$I$GT$3new17h11fc478d9e7f576bE
	movq	16(%rsp), %rax
	addq	$72, %rsp
	.cfi_def_cfa_offset 8
	retq
.Lfunc_end205:
	.size	_ZN4core4iter6traits8iterator8Iterator9enumerate17h57223d6371a83b6bE, .Lfunc_end205-_ZN4core4iter6traits8iterator8Iterator9enumerate17h57223d6371a83b6bE
	.cfi_endproc

	.section	".text._ZN4core4iter8adapters12Rev$LT$T$GT$3new17he7634a50a6541b93E","ax",@progbits
	.p2align	4, 0x90
	.type	_ZN4core4iter8adapters12Rev$LT$T$GT$3new17he7634a50a6541b93E,@function
_ZN4core4iter8adapters12Rev$LT$T$GT$3new17he7634a50a6541b93E:
	.cfi_startproc
	subq	$16, %rsp
	.cfi_def_cfa_offset 24
	movq	%rdi, (%rsp)
	movq	%rsi, 8(%rsp)
	movq	(%rsp), %rax
	movq	8(%rsp), %rdx
	addq	$16, %rsp
	.cfi_def_cfa_offset 8
	retq
.Lfunc_end206:
	.size	_ZN4core4iter8adapters12Rev$LT$T$GT$3new17he7634a50a6541b93E, .Lfunc_end206-_ZN4core4iter8adapters12Rev$LT$T$GT$3new17he7634a50a6541b93E
	.cfi_endproc

	.section	".text._ZN4core4iter8adapters16Map$LT$I$C$F$GT$3new17h9f2b7363e9b78924E","ax",@progbits
	.p2align	4, 0x90
	.type	_ZN4core4iter8adapters16Map$LT$I$C$F$GT$3new17h9f2b7363e9b78924E,@function
_ZN4core4iter8adapters16Map$LT$I$C$F$GT$3new17h9f2b7363e9b78924E:
	.cfi_startproc
	subq	$16, %rsp
	.cfi_def_cfa_offset 24
	movq	%rdi, (%rsp)
	movq	%rsi, 8(%rsp)
	movq	(%rsp), %rax
	movq	8(%rsp), %rdx
	addq	$16, %rsp
	.cfi_def_cfa_offset 8
	retq
.Lfunc_end207:
	.size	_ZN4core4iter8adapters16Map$LT$I$C$F$GT$3new17h9f2b7363e9b78924E, .Lfunc_end207-_ZN4core4iter8adapters16Map$LT$I$C$F$GT$3new17h9f2b7363e9b78924E
	.cfi_endproc

	.section	".text._ZN4core4iter8adapters18Enumerate$LT$I$GT$3new17h11fc478d9e7f576bE","ax",@progbits
	.p2align	4, 0x90
	.type	_ZN4core4iter8adapters18Enumerate$LT$I$GT$3new17h11fc478d9e7f576bE,@function
_ZN4core4iter8adapters18Enumerate$LT$I$GT$3new17h11fc478d9e7f576bE:
	.cfi_startproc
	subq	$72, %rsp
	.cfi_def_cfa_offset 80
	movq	%rdi, %rax
	leaq	32(%rsp), %rcx
	movq	%rcx, %rdx
	movq	%rdi, 24(%rsp)
	movq	%rdx, %rdi
	movl	$40, %edx
	movq	%rdx, 16(%rsp)
	movq	%rax, 8(%rsp)
	movq	%rcx, (%rsp)
	callq	memcpy@PLT
	movq	24(%rsp), %rax
	movq	(%rsp), %rcx
	movq	%rax, %rdi
	movq	%rcx, %rsi
	movq	16(%rsp), %rdx
	callq	memcpy@PLT
	movq	24(%rsp), %rax
	movq	$0, 40(%rax)
	movq	8(%rsp), %rax
	addq	$72, %rsp
	.cfi_def_cfa_offset 8
	retq
.Lfunc_end208:
	.size	_ZN4core4iter8adapters18Enumerate$LT$I$GT$3new17h11fc478d9e7f576bE, .Lfunc_end208-_ZN4core4iter8adapters18Enumerate$LT$I$GT$3new17h11fc478d9e7f576bE
	.cfi_endproc

	.section	.text._ZN4core5alloc10size_align17ha2bf5ef8156f7dfaE,"ax",@progbits
	.p2align	4, 0x90
	.type	_ZN4core5alloc10size_align17ha2bf5ef8156f7dfaE,@function
_ZN4core5alloc10size_align17ha2bf5ef8156f7dfaE:
	.cfi_startproc
	subq	$40, %rsp
	.cfi_def_cfa_offset 48
	callq	_ZN4core3mem7size_of17h592060904b8a69ffE
	movq	%rax, 16(%rsp)
	callq	_ZN4core3mem8align_of17h30a748a3d7e04e54E
	movq	%rax, 8(%rsp)
	movq	16(%rsp), %rax
	movq	%rax, 24(%rsp)
	movq	8(%rsp), %rcx
	movq	%rcx, 32(%rsp)
	movq	24(%rsp), %rax
	movq	32(%rsp), %rdx
	addq	$40, %rsp
	.cfi_def_cfa_offset 8
	retq
.Lfunc_end209:
	.size	_ZN4core5alloc10size_align17ha2bf5ef8156f7dfaE, .Lfunc_end209-_ZN4core5alloc10size_align17ha2bf5ef8156f7dfaE
	.cfi_endproc

	.section	.text._ZN4core5alloc10size_align17hfd4b510f0608b848E,"ax",@progbits
	.p2align	4, 0x90
	.type	_ZN4core5alloc10size_align17hfd4b510f0608b848E,@function
_ZN4core5alloc10size_align17hfd4b510f0608b848E:
	.cfi_startproc
	subq	$40, %rsp
	.cfi_def_cfa_offset 48
	callq	_ZN4core3mem7size_of17h47b2d41015953472E
	movq	%rax, 16(%rsp)
	callq	_ZN4core3mem8align_of17h68b0f665a0d271d2E
	movq	%rax, 8(%rsp)
	movq	16(%rsp), %rax
	movq	%rax, 24(%rsp)
	movq	8(%rsp), %rcx
	movq	%rcx, 32(%rsp)
	movq	24(%rsp), %rax
	movq	32(%rsp), %rdx
	addq	$40, %rsp
	.cfi_def_cfa_offset 8
	retq
.Lfunc_end210:
	.size	_ZN4core5alloc10size_align17hfd4b510f0608b848E, .Lfunc_end210-_ZN4core5alloc10size_align17hfd4b510f0608b848E
	.cfi_endproc

	.section	.text._ZN4core5alloc6Layout15from_size_align17h6d6073e83facac76E,"ax",@progbits
	.p2align	4, 0x90
	.type	_ZN4core5alloc6Layout15from_size_align17h6d6073e83facac76E,@function
_ZN4core5alloc6Layout15from_size_align17h6d6073e83facac76E:
	.cfi_startproc
	subq	$88, %rsp
	.cfi_def_cfa_offset 96
	movq	%rdi, 32(%rsp)
	movq	%rsi, %rdi
	movq	%rsi, 24(%rsp)
	callq	_ZN4core3num23_$LT$impl$u20$usize$GT$15is_power_of_two17h1d901604f963b0cdE
	movb	%al, 23(%rsp)
	movb	23(%rsp), %al
	xorb	$-1, %al
	testb	$1, %al
	jne	.LBB211_2
	jmp	.LBB211_4
.LBB211_2:
	movq	$0, 48(%rsp)
.LBB211_3:
	movq	40(%rsp), %rax
	movq	48(%rsp), %rdx
	addq	$88, %rsp
	.cfi_def_cfa_offset 8
	retq
.LBB211_4:
	.cfi_def_cfa_offset 96
	movq	24(%rsp), %rax
	subq	$1, %rax
	movq	$-1, %rcx
	subq	%rax, %rcx
	movq	32(%rsp), %rax
	cmpq	%rcx, %rax
	jbe	.LBB211_6
	movq	$0, 48(%rsp)
	jmp	.LBB211_3
.LBB211_6:
	movq	32(%rsp), %rdi
	movq	24(%rsp), %rsi
	callq	_ZN4core5alloc6Layout25from_size_align_unchecked17ha140260ce2606e94E
	movq	%rax, 8(%rsp)
	movq	%rdx, (%rsp)
	movq	8(%rsp), %rax
	movq	%rax, 40(%rsp)
	movq	(%rsp), %rcx
	movq	%rcx, 48(%rsp)
	jmp	.LBB211_3
.Lfunc_end211:
	.size	_ZN4core5alloc6Layout15from_size_align17h6d6073e83facac76E, .Lfunc_end211-_ZN4core5alloc6Layout15from_size_align17h6d6073e83facac76E
	.cfi_endproc

	.section	.text._ZN4core5alloc6Layout18padding_needed_for17he7219b88d00a41edE,"ax",@progbits
	.p2align	4, 0x90
	.type	_ZN4core5alloc6Layout18padding_needed_for17he7219b88d00a41edE,@function
_ZN4core5alloc6Layout18padding_needed_for17he7219b88d00a41edE:
	.cfi_startproc
	subq	$56, %rsp
	.cfi_def_cfa_offset 64
	movq	%rsi, 48(%rsp)
	callq	_ZN4core5alloc6Layout4size17hadcd95866d38ea37E
	movq	%rax, 40(%rsp)
	movq	40(%rsp), %rdi
	movq	48(%rsp), %rsi
	callq	_ZN4core3num23_$LT$impl$u20$usize$GT$12wrapping_add17h28ede189b055d8a8E
	movq	%rax, 32(%rsp)
	movq	32(%rsp), %rdi
	movl	$1, %esi
	callq	_ZN4core3num23_$LT$impl$u20$usize$GT$12wrapping_sub17h5bf317e30ed70c00E
	movq	%rax, 24(%rsp)
	movq	48(%rsp), %rdi
	movl	$1, %esi
	callq	_ZN4core3num23_$LT$impl$u20$usize$GT$12wrapping_sub17h5bf317e30ed70c00E
	movq	%rax, 16(%rsp)
	movq	16(%rsp), %rax
	xorq	$-1, %rax
	movq	24(%rsp), %rcx
	andq	%rax, %rcx
	movq	%rcx, %rdi
	movq	40(%rsp), %rsi
	callq	_ZN4core3num23_$LT$impl$u20$usize$GT$12wrapping_sub17h5bf317e30ed70c00E
	movq	%rax, 8(%rsp)
	movq	8(%rsp), %rax
	addq	$56, %rsp
	.cfi_def_cfa_offset 8
	retq
.Lfunc_end212:
	.size	_ZN4core5alloc6Layout18padding_needed_for17he7219b88d00a41edE, .Lfunc_end212-_ZN4core5alloc6Layout18padding_needed_for17he7219b88d00a41edE
	.cfi_endproc

	.section	.text._ZN4core5alloc6Layout25from_size_align_unchecked17ha140260ce2606e94E,"ax",@progbits
	.p2align	4, 0x90
	.type	_ZN4core5alloc6Layout25from_size_align_unchecked17ha140260ce2606e94E,@function
_ZN4core5alloc6Layout25from_size_align_unchecked17ha140260ce2606e94E:
	.cfi_startproc
	subq	$40, %rsp
	.cfi_def_cfa_offset 48
	movq	%rdi, 16(%rsp)
	movq	%rsi, %rdi
	callq	_ZN4core3num12NonZeroUsize13new_unchecked17hf1139cab4bf22240E
	movq	%rax, 8(%rsp)
	movq	16(%rsp), %rax
	movq	%rax, 24(%rsp)
	movq	8(%rsp), %rcx
	movq	%rcx, 32(%rsp)
	movq	24(%rsp), %rax
	movq	32(%rsp), %rdx
	addq	$40, %rsp
	.cfi_def_cfa_offset 8
	retq
.Lfunc_end213:
	.size	_ZN4core5alloc6Layout25from_size_align_unchecked17ha140260ce2606e94E, .Lfunc_end213-_ZN4core5alloc6Layout25from_size_align_unchecked17ha140260ce2606e94E
	.cfi_endproc

	.section	.text._ZN4core5alloc6Layout3new17h4f1edd7f54a2161bE,"ax",@progbits
	.p2align	4, 0x90
	.type	_ZN4core5alloc6Layout3new17h4f1edd7f54a2161bE,@function
_ZN4core5alloc6Layout3new17h4f1edd7f54a2161bE:
	.cfi_startproc
	subq	$56, %rsp
	.cfi_def_cfa_offset 64
	callq	_ZN4core5alloc10size_align17hfd4b510f0608b848E
	movq	%rax, 32(%rsp)
	movq	%rdx, 24(%rsp)
	xorl	%eax, %eax
	movb	%al, %cl
	testb	$1, %cl
	jne	.LBB214_2
	jmp	.LBB214_7
.LBB214_2:
	movq	32(%rsp), %rdi
	movq	24(%rsp), %rsi
	callq	_ZN4core5alloc6Layout15from_size_align17h6d6073e83facac76E
	movq	%rdx, 48(%rsp)
	movq	%rax, 40(%rsp)
	leaq	40(%rsp), %rdi
	callq	_ZN4core6result19Result$LT$T$C$E$GT$5is_ok17h8af5902c4128fa77E
	movb	%al, 23(%rsp)
	movb	23(%rsp), %al
	xorb	$-1, %al
	testb	$1, %al
	jne	.LBB214_5
	jmp	.LBB214_6
.LBB214_5:
	leaq	.L__unnamed_7(%rip), %rdi
	movq	_ZN4core9panicking5panic17h322450b91db0e87eE@GOTPCREL(%rip), %rax
	callq	*%rax
	ud2
.LBB214_6:
	jmp	.LBB214_7
.LBB214_7:
	movq	32(%rsp), %rdi
	movq	24(%rsp), %rsi
	callq	_ZN4core5alloc6Layout25from_size_align_unchecked17ha140260ce2606e94E
	movq	%rax, 8(%rsp)
	movq	%rdx, (%rsp)
	movq	8(%rsp), %rax
	movq	(%rsp), %rdx
	addq	$56, %rsp
	.cfi_def_cfa_offset 8
	retq
.Lfunc_end214:
	.size	_ZN4core5alloc6Layout3new17h4f1edd7f54a2161bE, .Lfunc_end214-_ZN4core5alloc6Layout3new17h4f1edd7f54a2161bE
	.cfi_endproc

	.section	.text._ZN4core5alloc6Layout3new17h64b7e00bfe5e53b1E,"ax",@progbits
	.p2align	4, 0x90
	.type	_ZN4core5alloc6Layout3new17h64b7e00bfe5e53b1E,@function
_ZN4core5alloc6Layout3new17h64b7e00bfe5e53b1E:
	.cfi_startproc
	subq	$56, %rsp
	.cfi_def_cfa_offset 64
	callq	_ZN4core5alloc10size_align17ha2bf5ef8156f7dfaE
	movq	%rax, 32(%rsp)
	movq	%rdx, 24(%rsp)
	xorl	%eax, %eax
	movb	%al, %cl
	testb	$1, %cl
	jne	.LBB215_2
	jmp	.LBB215_7
.LBB215_2:
	movq	32(%rsp), %rdi
	movq	24(%rsp), %rsi
	callq	_ZN4core5alloc6Layout15from_size_align17h6d6073e83facac76E
	movq	%rdx, 48(%rsp)
	movq	%rax, 40(%rsp)
	leaq	40(%rsp), %rdi
	callq	_ZN4core6result19Result$LT$T$C$E$GT$5is_ok17h8af5902c4128fa77E
	movb	%al, 23(%rsp)
	movb	23(%rsp), %al
	xorb	$-1, %al
	testb	$1, %al
	jne	.LBB215_5
	jmp	.LBB215_6
.LBB215_5:
	leaq	.L__unnamed_7(%rip), %rdi
	movq	_ZN4core9panicking5panic17h322450b91db0e87eE@GOTPCREL(%rip), %rax
	callq	*%rax
	ud2
.LBB215_6:
	jmp	.LBB215_7
.LBB215_7:
	movq	32(%rsp), %rdi
	movq	24(%rsp), %rsi
	callq	_ZN4core5alloc6Layout25from_size_align_unchecked17ha140260ce2606e94E
	movq	%rax, 8(%rsp)
	movq	%rdx, (%rsp)
	movq	8(%rsp), %rax
	movq	(%rsp), %rdx
	addq	$56, %rsp
	.cfi_def_cfa_offset 8
	retq
.Lfunc_end215:
	.size	_ZN4core5alloc6Layout3new17h64b7e00bfe5e53b1E, .Lfunc_end215-_ZN4core5alloc6Layout3new17h64b7e00bfe5e53b1E
	.cfi_endproc

	.section	.text._ZN4core5alloc6Layout4size17hadcd95866d38ea37E,"ax",@progbits
	.p2align	4, 0x90
	.type	_ZN4core5alloc6Layout4size17hadcd95866d38ea37E,@function
_ZN4core5alloc6Layout4size17hadcd95866d38ea37E:
	.cfi_startproc
	movq	(%rdi), %rax
	retq
.Lfunc_end216:
	.size	_ZN4core5alloc6Layout4size17hadcd95866d38ea37E, .Lfunc_end216-_ZN4core5alloc6Layout4size17hadcd95866d38ea37E
	.cfi_endproc

	.section	.text._ZN4core5alloc6Layout5align17hc304748f8ce0c5feE,"ax",@progbits
	.p2align	4, 0x90
	.type	_ZN4core5alloc6Layout5align17hc304748f8ce0c5feE,@function
_ZN4core5alloc6Layout5align17hc304748f8ce0c5feE:
	.cfi_startproc
	pushq	%rax
	.cfi_def_cfa_offset 16
	movq	8(%rdi), %rdi
	callq	_ZN4core3num12NonZeroUsize3get17h5a3de4aca8950627E
	movq	%rax, (%rsp)
	movq	(%rsp), %rax
	popq	%rcx
	.cfi_def_cfa_offset 8
	retq
.Lfunc_end217:
	.size	_ZN4core5alloc6Layout5align17hc304748f8ce0c5feE, .Lfunc_end217-_ZN4core5alloc6Layout5align17hc304748f8ce0c5feE
	.cfi_endproc

	.section	.text._ZN4core5alloc6Layout5array17h44c61d784d4488afE,"ax",@progbits
	.p2align	4, 0x90
	.type	_ZN4core5alloc6Layout5array17h44c61d784d4488afE,@function
_ZN4core5alloc6Layout5array17h44c61d784d4488afE:
	.cfi_startproc
	subq	$72, %rsp
	.cfi_def_cfa_offset 80
	movq	%rdi, 16(%rsp)
	callq	_ZN4core5alloc6Layout3new17h4f1edd7f54a2161bE
	movq	%rdx, 56(%rsp)
	movq	%rax, 48(%rsp)
	leaq	24(%rsp), %rdi
	leaq	48(%rsp), %rsi
	movq	16(%rsp), %rdx
	callq	_ZN4core5alloc6Layout6repeat17hd19ed8c0468403dfE
	leaq	24(%rsp), %rdi
	callq	_ZN4core6result19Result$LT$T$C$E$GT$3map17h0cbad6176a3a39f6E
	movq	%rax, 8(%rsp)
	movq	%rdx, (%rsp)
	movq	8(%rsp), %rax
	movq	(%rsp), %rdx
	addq	$72, %rsp
	.cfi_def_cfa_offset 8
	retq
.Lfunc_end218:
	.size	_ZN4core5alloc6Layout5array17h44c61d784d4488afE, .Lfunc_end218-_ZN4core5alloc6Layout5array17h44c61d784d4488afE
	.cfi_endproc

	.section	.text._ZN4core5alloc6Layout5array17h963d77217f740491E,"ax",@progbits
	.p2align	4, 0x90
	.type	_ZN4core5alloc6Layout5array17h963d77217f740491E,@function
_ZN4core5alloc6Layout5array17h963d77217f740491E:
	.cfi_startproc
	subq	$72, %rsp
	.cfi_def_cfa_offset 80
	movq	%rdi, 16(%rsp)
	callq	_ZN4core5alloc6Layout3new17h64b7e00bfe5e53b1E
	movq	%rdx, 56(%rsp)
	movq	%rax, 48(%rsp)
	leaq	24(%rsp), %rdi
	leaq	48(%rsp), %rsi
	movq	16(%rsp), %rdx
	callq	_ZN4core5alloc6Layout6repeat17hd19ed8c0468403dfE
	leaq	24(%rsp), %rdi
	callq	_ZN4core6result19Result$LT$T$C$E$GT$3map17hd4077ab670019765E
	movq	%rax, 8(%rsp)
	movq	%rdx, (%rsp)
	movq	8(%rsp), %rax
	movq	(%rsp), %rdx
	addq	$72, %rsp
	.cfi_def_cfa_offset 8
	retq
.Lfunc_end219:
	.size	_ZN4core5alloc6Layout5array17h963d77217f740491E, .Lfunc_end219-_ZN4core5alloc6Layout5array17h963d77217f740491E
	.cfi_endproc

	.section	".text._ZN4core5alloc6Layout5array28_$u7b$$u7b$closure$u7d$$u7d$17h33d081a224816dfcE","ax",@progbits
	.p2align	4, 0x90
	.type	_ZN4core5alloc6Layout5array28_$u7b$$u7b$closure$u7d$$u7d$17h33d081a224816dfcE,@function
_ZN4core5alloc6Layout5array28_$u7b$$u7b$closure$u7d$$u7d$17h33d081a224816dfcE:
	.cfi_startproc
	subq	$40, %rsp
	.cfi_def_cfa_offset 48
	xorl	%eax, %eax
	movb	%al, %cl
	movq	(%rdi), %rax
	movq	8(%rdi), %rdx
	movq	16(%rdi), %rdi
	testb	$1, %cl
	movq	%rax, 32(%rsp)
	movq	%rdx, 24(%rsp)
	movq	%rdi, 16(%rsp)
	jne	.LBB220_1
	jmp	.LBB220_5
.LBB220_1:
	callq	_ZN4core3mem7size_of17h592060904b8a69ffE
	movq	%rax, 8(%rsp)
	movq	16(%rsp), %rax
	movq	8(%rsp), %rcx
	cmpq	%rcx, %rax
	sete	%dl
	xorb	$-1, %dl
	testb	$1, %dl
	jne	.LBB220_3
	jmp	.LBB220_4
.LBB220_3:
	leaq	.L__unnamed_8(%rip), %rdi
	movq	_ZN4core9panicking5panic17h322450b91db0e87eE@GOTPCREL(%rip), %rax
	callq	*%rax
	ud2
.LBB220_4:
	jmp	.LBB220_5
.LBB220_5:
	movq	32(%rsp), %rax
	movq	24(%rsp), %rdx
	addq	$40, %rsp
	.cfi_def_cfa_offset 8
	retq
.Lfunc_end220:
	.size	_ZN4core5alloc6Layout5array28_$u7b$$u7b$closure$u7d$$u7d$17h33d081a224816dfcE, .Lfunc_end220-_ZN4core5alloc6Layout5array28_$u7b$$u7b$closure$u7d$$u7d$17h33d081a224816dfcE
	.cfi_endproc

	.section	".text._ZN4core5alloc6Layout5array28_$u7b$$u7b$closure$u7d$$u7d$17h987e9c1a9cd77457E","ax",@progbits
	.p2align	4, 0x90
	.type	_ZN4core5alloc6Layout5array28_$u7b$$u7b$closure$u7d$$u7d$17h987e9c1a9cd77457E,@function
_ZN4core5alloc6Layout5array28_$u7b$$u7b$closure$u7d$$u7d$17h987e9c1a9cd77457E:
	.cfi_startproc
	subq	$40, %rsp
	.cfi_def_cfa_offset 48
	xorl	%eax, %eax
	movb	%al, %cl
	movq	(%rdi), %rax
	movq	8(%rdi), %rdx
	movq	16(%rdi), %rdi
	testb	$1, %cl
	movq	%rax, 32(%rsp)
	movq	%rdx, 24(%rsp)
	movq	%rdi, 16(%rsp)
	jne	.LBB221_1
	jmp	.LBB221_5
.LBB221_1:
	callq	_ZN4core3mem7size_of17h47b2d41015953472E
	movq	%rax, 8(%rsp)
	movq	16(%rsp), %rax
	movq	8(%rsp), %rcx
	cmpq	%rcx, %rax
	sete	%dl
	xorb	$-1, %dl
	testb	$1, %dl
	jne	.LBB221_3
	jmp	.LBB221_4
.LBB221_3:
	leaq	.L__unnamed_8(%rip), %rdi
	movq	_ZN4core9panicking5panic17h322450b91db0e87eE@GOTPCREL(%rip), %rax
	callq	*%rax
	ud2
.LBB221_4:
	jmp	.LBB221_5
.LBB221_5:
	movq	32(%rsp), %rax
	movq	24(%rsp), %rdx
	addq	$40, %rsp
	.cfi_def_cfa_offset 8
	retq
.Lfunc_end221:
	.size	_ZN4core5alloc6Layout5array28_$u7b$$u7b$closure$u7d$$u7d$17h987e9c1a9cd77457E, .Lfunc_end221-_ZN4core5alloc6Layout5array28_$u7b$$u7b$closure$u7d$$u7d$17h987e9c1a9cd77457E
	.cfi_endproc

	.section	.text._ZN4core5alloc6Layout6repeat17hd19ed8c0468403dfE,"ax",@progbits
	.p2align	4, 0x90
	.type	_ZN4core5alloc6Layout6repeat17hd19ed8c0468403dfE,@function
_ZN4core5alloc6Layout6repeat17hd19ed8c0468403dfE:
	.cfi_startproc
	subq	$280, %rsp
	.cfi_def_cfa_offset 288
	movq	%rdi, %rax
	movq	%rdi, 184(%rsp)
	movq	%rsi, %rdi
	movq	%rax, 176(%rsp)
	movq	%rdx, 168(%rsp)
	movq	%rsi, 160(%rsp)
	callq	_ZN4core5alloc6Layout4size17hadcd95866d38ea37E
	movq	%rax, 152(%rsp)
	movq	160(%rsp), %rdi
	callq	_ZN4core5alloc6Layout5align17hc304748f8ce0c5feE
	movq	%rax, 144(%rsp)
	movq	160(%rsp), %rdi
	movq	144(%rsp), %rsi
	callq	_ZN4core5alloc6Layout18padding_needed_for17he7219b88d00a41edE
	movq	%rax, 136(%rsp)
	movq	152(%rsp), %rdi
	movq	136(%rsp), %rsi
	callq	_ZN4core3num23_$LT$impl$u20$usize$GT$11checked_add17hfd3b276676d6545cE
	movq	%rax, 128(%rsp)
	movq	%rdx, 120(%rsp)
	movq	128(%rsp), %rdi
	movq	120(%rsp), %rsi
	callq	_ZN4core6option15Option$LT$T$GT$5ok_or17ha02a29d217f431fbE
	movq	%rax, 112(%rsp)
	movq	%rdx, 104(%rsp)
	movq	112(%rsp), %rdi
	movq	104(%rsp), %rsi
	callq	_ZN73_$LT$core..result..Result$LT$T$C$E$GT$$u20$as$u20$core..ops..try..Try$GT$11into_result17h8e54b5d36964f30bE
	movq	%rdx, 200(%rsp)
	movq	%rax, 192(%rsp)
	movq	192(%rsp), %rax
	testq	%rax, %rax
	movq	%rax, 96(%rsp)
	je	.LBB222_13
	jmp	.LBB222_23
.LBB222_23:
	movq	96(%rsp), %rax
	subq	$1, %rax
	movq	%rax, 88(%rsp)
	je	.LBB222_8
	jmp	.LBB222_7
.LBB222_7:
	ud2
.LBB222_8:
	callq	_ZN50_$LT$T$u20$as$u20$core..convert..From$LT$T$GT$$GT$4from17hdc1817bda7362ccfE
	movq	184(%rsp), %rdi
	callq	_ZN73_$LT$core..result..Result$LT$T$C$E$GT$$u20$as$u20$core..ops..try..Try$GT$10from_error17h41f0bda670223f38E
	jmp	.LBB222_12
.LBB222_11:
	movq	176(%rsp), %rax
	addq	$280, %rsp
	.cfi_def_cfa_offset 8
	retq
.LBB222_12:
	.cfi_def_cfa_offset 288
	jmp	.LBB222_11
.LBB222_13:
	movq	200(%rsp), %rax
	movq	%rax, %rdi
	movq	168(%rsp), %rsi
	movq	%rax, 80(%rsp)
	callq	_ZN4core3num23_$LT$impl$u20$usize$GT$11checked_mul17h68611ef6e3a3d663E
	movq	%rax, 72(%rsp)
	movq	%rdx, 64(%rsp)
	movq	72(%rsp), %rdi
	movq	64(%rsp), %rsi
	callq	_ZN4core6option15Option$LT$T$GT$5ok_or17ha02a29d217f431fbE
	movq	%rax, 56(%rsp)
	movq	%rdx, 48(%rsp)
	movq	56(%rsp), %rdi
	movq	48(%rsp), %rsi
	callq	_ZN73_$LT$core..result..Result$LT$T$C$E$GT$$u20$as$u20$core..ops..try..Try$GT$11into_result17h8e54b5d36964f30bE
	movq	%rdx, 232(%rsp)
	movq	%rax, 224(%rsp)
	movq	224(%rsp), %rax
	testq	%rax, %rax
	movq	%rax, 40(%rsp)
	je	.LBB222_20
	jmp	.LBB222_24
.LBB222_24:
	movq	40(%rsp), %rax
	subq	$1, %rax
	movq	%rax, 32(%rsp)
	jne	.LBB222_7
	jmp	.LBB222_17
.LBB222_17:
	callq	_ZN50_$LT$T$u20$as$u20$core..convert..From$LT$T$GT$$GT$4from17hdc1817bda7362ccfE
	movq	184(%rsp), %rdi
	callq	_ZN73_$LT$core..result..Result$LT$T$C$E$GT$$u20$as$u20$core..ops..try..Try$GT$10from_error17h41f0bda670223f38E
	jmp	.LBB222_12
.LBB222_20:
	movq	232(%rsp), %rdi
	movq	160(%rsp), %rax
	movq	%rdi, 24(%rsp)
	movq	%rax, %rdi
	callq	_ZN4core5alloc6Layout5align17hc304748f8ce0c5feE
	movq	%rax, 16(%rsp)
	movq	24(%rsp), %rdi
	movq	16(%rsp), %rsi
	callq	_ZN4core5alloc6Layout25from_size_align_unchecked17ha140260ce2606e94E
	movq	%rax, 8(%rsp)
	movq	%rdx, (%rsp)
	movq	8(%rsp), %rax
	movq	%rax, 256(%rsp)
	movq	(%rsp), %rcx
	movq	%rcx, 264(%rsp)
	movq	80(%rsp), %rdx
	movq	%rdx, 272(%rsp)
	movq	256(%rsp), %rsi
	movq	184(%rsp), %rdi
	movq	%rsi, (%rdi)
	movq	264(%rsp), %rsi
	movq	%rsi, 8(%rdi)
	movq	272(%rsp), %rsi
	movq	%rsi, 16(%rdi)
	jmp	.LBB222_11
.Lfunc_end222:
	.size	_ZN4core5alloc6Layout6repeat17hd19ed8c0468403dfE, .Lfunc_end222-_ZN4core5alloc6Layout6repeat17hd19ed8c0468403dfE
	.cfi_endproc

	.section	".text._ZN4core5slice13Iter$LT$T$GT$8as_slice17h19819ef1a03a152dE","ax",@progbits
	.p2align	4, 0x90
	.type	_ZN4core5slice13Iter$LT$T$GT$8as_slice17h19819ef1a03a152dE,@function
_ZN4core5slice13Iter$LT$T$GT$8as_slice17h19819ef1a03a152dE:
	.cfi_startproc
	subq	$56, %rsp
	.cfi_def_cfa_offset 64
	movq	(%rdi), %rax
	movq	(%rdi), %rsi
	movq	8(%rdi), %rdi
	movq	%rax, 40(%rsp)
	callq	_ZN4core3num23_$LT$impl$u20$usize$GT$12wrapping_sub17h5bf317e30ed70c00E
	movq	%rax, 32(%rsp)
	callq	_ZN4core3mem7size_of17h592060904b8a69ffE
	cmpq	$0, %rax
	movq	%rax, 24(%rsp)
	jne	.LBB223_2
	movq	32(%rsp), %rax
	movq	%rax, 48(%rsp)
	jmp	.LBB223_5
.LBB223_2:
	movq	24(%rsp), %rax
	cmpq	$0, %rax
	sete	%cl
	testb	$1, %cl
	jne	.LBB223_4
	movq	32(%rsp), %rax
	xorl	%ecx, %ecx
	movl	%ecx, %edx
	movq	24(%rsp), %rsi
	divq	%rsi
	movq	%rax, 48(%rsp)
	jmp	.LBB223_5
.LBB223_4:
	leaq	.L__unnamed_9(%rip), %rdi
	movq	_ZN4core9panicking5panic17h322450b91db0e87eE@GOTPCREL(%rip), %rax
	callq	*%rax
	ud2
.LBB223_5:
	movq	48(%rsp), %rsi
	movq	40(%rsp), %rdi
	callq	_ZN4core5slice14from_raw_parts17h61ce1423689c514fE
	movq	%rax, 16(%rsp)
	movq	%rdx, 8(%rsp)
	movq	16(%rsp), %rax
	movq	8(%rsp), %rdx
	addq	$56, %rsp
	.cfi_def_cfa_offset 8
	retq
.Lfunc_end223:
	.size	_ZN4core5slice13Iter$LT$T$GT$8as_slice17h19819ef1a03a152dE, .Lfunc_end223-_ZN4core5slice13Iter$LT$T$GT$8as_slice17h19819ef1a03a152dE
	.cfi_endproc

	.section	.text._ZN4core5slice14from_raw_parts17h2c738df3b45220caE,"ax",@progbits
	.p2align	4, 0x90
	.type	_ZN4core5slice14from_raw_parts17h2c738df3b45220caE,@function
_ZN4core5slice14from_raw_parts17h2c738df3b45220caE:
	.cfi_startproc
	subq	$72, %rsp
	.cfi_def_cfa_offset 80
	xorl	%eax, %eax
	movb	%al, %cl
	testb	$1, %cl
	movq	%rdi, 32(%rsp)
	movq	%rsi, 24(%rsp)
	jne	.LBB224_1
	jmp	.LBB224_6
.LBB224_1:
	callq	_ZN4core3mem8align_of17h68b0f665a0d271d2E
	movq	%rax, 16(%rsp)
	movq	16(%rsp), %rax
	cmpq	$0, %rax
	sete	%cl
	testb	$1, %cl
	jne	.LBB224_13
	movq	32(%rsp), %rax
	xorl	%ecx, %ecx
	movl	%ecx, %edx
	movq	16(%rsp), %rsi
	divq	%rsi
	cmpq	$0, %rdx
	sete	%dil
	xorb	$-1, %dil
	testb	$1, %dil
	jne	.LBB224_4
	jmp	.LBB224_5
.LBB224_4:
	leaq	.L__unnamed_10(%rip), %rdi
	movq	_ZN4core9panicking5panic17h322450b91db0e87eE@GOTPCREL(%rip), %rax
	callq	*%rax
	ud2
.LBB224_5:
	jmp	.LBB224_6
.LBB224_6:
	xorl	%eax, %eax
	movb	%al, %cl
	testb	$1, %cl
	jne	.LBB224_7
	jmp	.LBB224_12
.LBB224_7:
	callq	_ZN4core3mem7size_of17h47b2d41015953472E
	movq	%rax, 8(%rsp)
	movq	8(%rsp), %rdi
	movq	24(%rsp), %rsi
	callq	_ZN4core3num23_$LT$impl$u20$usize$GT$14saturating_mul17h6d89b9f70b692ea8E
	movq	%rax, (%rsp)
	movabsq	$9223372036854775807, %rax
	movq	(%rsp), %rcx
	cmpq	%rax, %rcx
	setbe	%dl
	xorb	$-1, %dl
	testb	$1, %dl
	jne	.LBB224_10
	jmp	.LBB224_11
.LBB224_10:
	leaq	.L__unnamed_11(%rip), %rdi
	movq	_ZN4core9panicking5panic17h322450b91db0e87eE@GOTPCREL(%rip), %rax
	callq	*%rax
	ud2
.LBB224_11:
	jmp	.LBB224_12
.LBB224_12:
	movq	32(%rsp), %rax
	movq	%rax, 56(%rsp)
	movq	24(%rsp), %rcx
	movq	%rcx, 64(%rsp)
	movq	56(%rsp), %rdx
	movq	64(%rsp), %rsi
	movq	%rdx, 40(%rsp)
	movq	%rsi, 48(%rsp)
	movq	40(%rsp), %rax
	movq	48(%rsp), %rdx
	addq	$72, %rsp
	.cfi_def_cfa_offset 8
	retq
.LBB224_13:
	.cfi_def_cfa_offset 80
	leaq	.L__unnamed_12(%rip), %rdi
	movq	_ZN4core9panicking5panic17h322450b91db0e87eE@GOTPCREL(%rip), %rax
	callq	*%rax
	ud2
.Lfunc_end224:
	.size	_ZN4core5slice14from_raw_parts17h2c738df3b45220caE, .Lfunc_end224-_ZN4core5slice14from_raw_parts17h2c738df3b45220caE
	.cfi_endproc

	.section	.text._ZN4core5slice14from_raw_parts17h61ce1423689c514fE,"ax",@progbits
	.p2align	4, 0x90
	.type	_ZN4core5slice14from_raw_parts17h61ce1423689c514fE,@function
_ZN4core5slice14from_raw_parts17h61ce1423689c514fE:
	.cfi_startproc
	subq	$72, %rsp
	.cfi_def_cfa_offset 80
	xorl	%eax, %eax
	movb	%al, %cl
	testb	$1, %cl
	movq	%rdi, 32(%rsp)
	movq	%rsi, 24(%rsp)
	jne	.LBB225_1
	jmp	.LBB225_6
.LBB225_1:
	callq	_ZN4core3mem8align_of17h30a748a3d7e04e54E
	movq	%rax, 16(%rsp)
	movq	16(%rsp), %rax
	cmpq	$0, %rax
	sete	%cl
	testb	$1, %cl
	jne	.LBB225_13
	movq	32(%rsp), %rax
	xorl	%ecx, %ecx
	movl	%ecx, %edx
	movq	16(%rsp), %rsi
	divq	%rsi
	cmpq	$0, %rdx
	sete	%dil
	xorb	$-1, %dil
	testb	$1, %dil
	jne	.LBB225_4
	jmp	.LBB225_5
.LBB225_4:
	leaq	.L__unnamed_10(%rip), %rdi
	movq	_ZN4core9panicking5panic17h322450b91db0e87eE@GOTPCREL(%rip), %rax
	callq	*%rax
	ud2
.LBB225_5:
	jmp	.LBB225_6
.LBB225_6:
	xorl	%eax, %eax
	movb	%al, %cl
	testb	$1, %cl
	jne	.LBB225_7
	jmp	.LBB225_12
.LBB225_7:
	callq	_ZN4core3mem7size_of17h592060904b8a69ffE
	movq	%rax, 8(%rsp)
	movq	8(%rsp), %rdi
	movq	24(%rsp), %rsi
	callq	_ZN4core3num23_$LT$impl$u20$usize$GT$14saturating_mul17h6d89b9f70b692ea8E
	movq	%rax, (%rsp)
	movabsq	$9223372036854775807, %rax
	movq	(%rsp), %rcx
	cmpq	%rax, %rcx
	setbe	%dl
	xorb	$-1, %dl
	testb	$1, %dl
	jne	.LBB225_10
	jmp	.LBB225_11
.LBB225_10:
	leaq	.L__unnamed_11(%rip), %rdi
	movq	_ZN4core9panicking5panic17h322450b91db0e87eE@GOTPCREL(%rip), %rax
	callq	*%rax
	ud2
.LBB225_11:
	jmp	.LBB225_12
.LBB225_12:
	movq	32(%rsp), %rax
	movq	%rax, 56(%rsp)
	movq	24(%rsp), %rcx
	movq	%rcx, 64(%rsp)
	movq	56(%rsp), %rdx
	movq	64(%rsp), %rsi
	movq	%rdx, 40(%rsp)
	movq	%rsi, 48(%rsp)
	movq	40(%rsp), %rax
	movq	48(%rsp), %rdx
	addq	$72, %rsp
	.cfi_def_cfa_offset 8
	retq
.LBB225_13:
	.cfi_def_cfa_offset 80
	leaq	.L__unnamed_12(%rip), %rdi
	movq	_ZN4core9panicking5panic17h322450b91db0e87eE@GOTPCREL(%rip), %rax
	callq	*%rax
	ud2
.Lfunc_end225:
	.size	_ZN4core5slice14from_raw_parts17h61ce1423689c514fE, .Lfunc_end225-_ZN4core5slice14from_raw_parts17h61ce1423689c514fE
	.cfi_endproc

	.section	.text._ZN4core5slice18from_raw_parts_mut17h6ee543b9c50f6bb9E,"ax",@progbits
	.p2align	4, 0x90
	.type	_ZN4core5slice18from_raw_parts_mut17h6ee543b9c50f6bb9E,@function
_ZN4core5slice18from_raw_parts_mut17h6ee543b9c50f6bb9E:
	.cfi_startproc
	subq	$72, %rsp
	.cfi_def_cfa_offset 80
	xorl	%eax, %eax
	movb	%al, %cl
	testb	$1, %cl
	movq	%rdi, 32(%rsp)
	movq	%rsi, 24(%rsp)
	jne	.LBB226_1
	jmp	.LBB226_6
.LBB226_1:
	callq	_ZN4core3mem8align_of17h68b0f665a0d271d2E
	movq	%rax, 16(%rsp)
	movq	16(%rsp), %rax
	cmpq	$0, %rax
	sete	%cl
	testb	$1, %cl
	jne	.LBB226_13
	movq	32(%rsp), %rax
	xorl	%ecx, %ecx
	movl	%ecx, %edx
	movq	16(%rsp), %rsi
	divq	%rsi
	cmpq	$0, %rdx
	sete	%dil
	xorb	$-1, %dil
	testb	$1, %dil
	jne	.LBB226_4
	jmp	.LBB226_5
.LBB226_4:
	leaq	.L__unnamed_13(%rip), %rdi
	movq	_ZN4core9panicking5panic17h322450b91db0e87eE@GOTPCREL(%rip), %rax
	callq	*%rax
	ud2
.LBB226_5:
	jmp	.LBB226_6
.LBB226_6:
	xorl	%eax, %eax
	movb	%al, %cl
	testb	$1, %cl
	jne	.LBB226_7
	jmp	.LBB226_12
.LBB226_7:
	callq	_ZN4core3mem7size_of17h47b2d41015953472E
	movq	%rax, 8(%rsp)
	movq	8(%rsp), %rdi
	movq	24(%rsp), %rsi
	callq	_ZN4core3num23_$LT$impl$u20$usize$GT$14saturating_mul17h6d89b9f70b692ea8E
	movq	%rax, (%rsp)
	movabsq	$9223372036854775807, %rax
	movq	(%rsp), %rcx
	cmpq	%rax, %rcx
	setbe	%dl
	xorb	$-1, %dl
	testb	$1, %dl
	jne	.LBB226_10
	jmp	.LBB226_11
.LBB226_10:
	leaq	.L__unnamed_14(%rip), %rdi
	movq	_ZN4core9panicking5panic17h322450b91db0e87eE@GOTPCREL(%rip), %rax
	callq	*%rax
	ud2
.LBB226_11:
	jmp	.LBB226_12
.LBB226_12:
	movq	32(%rsp), %rax
	movq	%rax, 56(%rsp)
	movq	24(%rsp), %rcx
	movq	%rcx, 64(%rsp)
	movq	56(%rsp), %rdx
	movq	64(%rsp), %rsi
	movq	%rdx, 40(%rsp)
	movq	%rsi, 48(%rsp)
	movq	40(%rsp), %rax
	movq	48(%rsp), %rdx
	addq	$72, %rsp
	.cfi_def_cfa_offset 8
	retq
.LBB226_13:
	.cfi_def_cfa_offset 80
	leaq	.L__unnamed_15(%rip), %rdi
	movq	_ZN4core9panicking5panic17h322450b91db0e87eE@GOTPCREL(%rip), %rax
	callq	*%rax
	ud2
.Lfunc_end226:
	.size	_ZN4core5slice18from_raw_parts_mut17h6ee543b9c50f6bb9E, .Lfunc_end226-_ZN4core5slice18from_raw_parts_mut17h6ee543b9c50f6bb9E
	.cfi_endproc

	.section	.text._ZN4core5slice18from_raw_parts_mut17hf687a010146ec8f0E,"ax",@progbits
	.p2align	4, 0x90
	.type	_ZN4core5slice18from_raw_parts_mut17hf687a010146ec8f0E,@function
_ZN4core5slice18from_raw_parts_mut17hf687a010146ec8f0E:
	.cfi_startproc
	subq	$72, %rsp
	.cfi_def_cfa_offset 80
	xorl	%eax, %eax
	movb	%al, %cl
	testb	$1, %cl
	movq	%rdi, 32(%rsp)
	movq	%rsi, 24(%rsp)
	jne	.LBB227_1
	jmp	.LBB227_6
.LBB227_1:
	callq	_ZN4core3mem8align_of17h30a748a3d7e04e54E
	movq	%rax, 16(%rsp)
	movq	16(%rsp), %rax
	cmpq	$0, %rax
	sete	%cl
	testb	$1, %cl
	jne	.LBB227_13
	movq	32(%rsp), %rax
	xorl	%ecx, %ecx
	movl	%ecx, %edx
	movq	16(%rsp), %rsi
	divq	%rsi
	cmpq	$0, %rdx
	sete	%dil
	xorb	$-1, %dil
	testb	$1, %dil
	jne	.LBB227_4
	jmp	.LBB227_5
.LBB227_4:
	leaq	.L__unnamed_13(%rip), %rdi
	movq	_ZN4core9panicking5panic17h322450b91db0e87eE@GOTPCREL(%rip), %rax
	callq	*%rax
	ud2
.LBB227_5:
	jmp	.LBB227_6
.LBB227_6:
	xorl	%eax, %eax
	movb	%al, %cl
	testb	$1, %cl
	jne	.LBB227_7
	jmp	.LBB227_12
.LBB227_7:
	callq	_ZN4core3mem7size_of17h592060904b8a69ffE
	movq	%rax, 8(%rsp)
	movq	8(%rsp), %rdi
	movq	24(%rsp), %rsi
	callq	_ZN4core3num23_$LT$impl$u20$usize$GT$14saturating_mul17h6d89b9f70b692ea8E
	movq	%rax, (%rsp)
	movabsq	$9223372036854775807, %rax
	movq	(%rsp), %rcx
	cmpq	%rax, %rcx
	setbe	%dl
	xorb	$-1, %dl
	testb	$1, %dl
	jne	.LBB227_10
	jmp	.LBB227_11
.LBB227_10:
	leaq	.L__unnamed_14(%rip), %rdi
	movq	_ZN4core9panicking5panic17h322450b91db0e87eE@GOTPCREL(%rip), %rax
	callq	*%rax
	ud2
.LBB227_11:
	jmp	.LBB227_12
.LBB227_12:
	movq	32(%rsp), %rax
	movq	%rax, 56(%rsp)
	movq	24(%rsp), %rcx
	movq	%rcx, 64(%rsp)
	movq	56(%rsp), %rdx
	movq	64(%rsp), %rsi
	movq	%rdx, 40(%rsp)
	movq	%rsi, 48(%rsp)
	movq	40(%rsp), %rax
	movq	48(%rsp), %rdx
	addq	$72, %rsp
	.cfi_def_cfa_offset 8
	retq
.LBB227_13:
	.cfi_def_cfa_offset 80
	leaq	.L__unnamed_15(%rip), %rdi
	movq	_ZN4core9panicking5panic17h322450b91db0e87eE@GOTPCREL(%rip), %rax
	callq	*%rax
	ud2
.Lfunc_end227:
	.size	_ZN4core5slice18from_raw_parts_mut17hf687a010146ec8f0E, .Lfunc_end227-_ZN4core5slice18from_raw_parts_mut17hf687a010146ec8f0E
	.cfi_endproc

	.section	".text._ZN4core5slice29_$LT$impl$u20$$u5b$T$u5d$$GT$10as_mut_ptr17h34d6a621f5558919E","ax",@progbits
	.p2align	4, 0x90
	.type	_ZN4core5slice29_$LT$impl$u20$$u5b$T$u5d$$GT$10as_mut_ptr17h34d6a621f5558919E,@function
_ZN4core5slice29_$LT$impl$u20$$u5b$T$u5d$$GT$10as_mut_ptr17h34d6a621f5558919E:
	.cfi_startproc
	pushq	%rax
	.cfi_def_cfa_offset 16
	movq	%rdi, %rax
	movq	%rsi, (%rsp)
	popq	%rcx
	.cfi_def_cfa_offset 8
	retq
.Lfunc_end228:
	.size	_ZN4core5slice29_$LT$impl$u20$$u5b$T$u5d$$GT$10as_mut_ptr17h34d6a621f5558919E, .Lfunc_end228-_ZN4core5slice29_$LT$impl$u20$$u5b$T$u5d$$GT$10as_mut_ptr17h34d6a621f5558919E
	.cfi_endproc

	.section	".text._ZN4core5slice29_$LT$impl$u20$$u5b$T$u5d$$GT$10as_mut_ptr17hf9735092727bee5cE","ax",@progbits
	.p2align	4, 0x90
	.type	_ZN4core5slice29_$LT$impl$u20$$u5b$T$u5d$$GT$10as_mut_ptr17hf9735092727bee5cE,@function
_ZN4core5slice29_$LT$impl$u20$$u5b$T$u5d$$GT$10as_mut_ptr17hf9735092727bee5cE:
	.cfi_startproc
	pushq	%rax
	.cfi_def_cfa_offset 16
	movq	%rdi, %rax
	movq	%rsi, (%rsp)
	popq	%rcx
	.cfi_def_cfa_offset 8
	retq
.Lfunc_end229:
	.size	_ZN4core5slice29_$LT$impl$u20$$u5b$T$u5d$$GT$10as_mut_ptr17hf9735092727bee5cE, .Lfunc_end229-_ZN4core5slice29_$LT$impl$u20$$u5b$T$u5d$$GT$10as_mut_ptr17hf9735092727bee5cE
	.cfi_endproc

	.section	".text._ZN4core5slice29_$LT$impl$u20$$u5b$T$u5d$$GT$15copy_from_slice17h8464ab3c04eea6adE","ax",@progbits
	.p2align	4, 0x90
	.type	_ZN4core5slice29_$LT$impl$u20$$u5b$T$u5d$$GT$15copy_from_slice17h8464ab3c04eea6adE,@function
_ZN4core5slice29_$LT$impl$u20$$u5b$T$u5d$$GT$15copy_from_slice17h8464ab3c04eea6adE:
	.cfi_startproc
	subq	$360, %rsp
	.cfi_def_cfa_offset 368
	movq	%rdi, 136(%rsp)
	movq	%rsi, 128(%rsp)
	movq	%rdx, 120(%rsp)
	movq	%rcx, 112(%rsp)
	callq	_ZN4core5slice29_$LT$impl$u20$$u5b$T$u5d$$GT$3len17h4ded11694fc2c466E
	movq	%rax, 160(%rsp)
	movq	120(%rsp), %rdi
	movq	112(%rsp), %rsi
	callq	_ZN4core5slice29_$LT$impl$u20$$u5b$T$u5d$$GT$3len17h4ded11694fc2c466E
	movq	%rax, 168(%rsp)
	leaq	160(%rsp), %rax
	movq	%rax, 144(%rsp)
	leaq	168(%rsp), %rax
	movq	%rax, 152(%rsp)
	movq	144(%rsp), %rax
	movq	152(%rsp), %rcx
	movq	(%rax), %rdx
	cmpq	(%rcx), %rdx
	sete	%sil
	xorb	$-1, %sil
	testb	$1, %sil
	movq	%rax, 104(%rsp)
	movq	%rcx, 96(%rsp)
	jne	.LBB230_3
	jmp	.LBB230_4
.LBB230_3:
	leaq	.L__unnamed_16(%rip), %rax
	leaq	.L__unnamed_17(%rip), %rcx
	xorl	%edx, %edx
	movl	%edx, %r8d
	movq	104(%rsp), %rsi
	movq	%rsi, 296(%rsp)
	movq	96(%rsp), %rdi
	movq	%rdi, 304(%rsp)
	leaq	312(%rsp), %rdi
	movq	%rax, %rsi
	movl	$1, %edx
	callq	_ZN4core3fmt9Arguments6new_v117h38246756a055f81bE
	jmp	.LBB230_5
.LBB230_4:
	movq	120(%rsp), %rdi
	movq	112(%rsp), %rsi
	callq	_ZN4core5slice29_$LT$impl$u20$$u5b$T$u5d$$GT$6as_ptr17h6489b6b33f8f7d00E
	movq	%rax, 88(%rsp)
	jmp	.LBB230_10
.LBB230_5:
	leaq	296(%rsp), %rax
	movq	%rax, 272(%rsp)
	leaq	304(%rsp), %rax
	movq	%rax, 280(%rsp)
	leaq	312(%rsp), %rax
	movq	%rax, 288(%rsp)
	movq	272(%rsp), %rdi
	movq	280(%rsp), %rax
	movq	288(%rsp), %rcx
	leaq	_ZN42_$LT$$RF$T$u20$as$u20$core..fmt..Debug$GT$3fmt17hac518cac536385a9E(%rip), %rsi
	movq	%rax, 80(%rsp)
	movq	%rcx, 72(%rsp)
	callq	_ZN4core3fmt10ArgumentV13new17hb39a036a1d06b306E
	movq	%rax, 64(%rsp)
	movq	%rdx, 56(%rsp)
	movq	80(%rsp), %rdi
	leaq	_ZN42_$LT$$RF$T$u20$as$u20$core..fmt..Debug$GT$3fmt17hac518cac536385a9E(%rip), %rsi
	callq	_ZN4core3fmt10ArgumentV13new17hb39a036a1d06b306E
	movq	%rax, 48(%rsp)
	movq	%rdx, 40(%rsp)
	movq	_ZN59_$LT$core..fmt..Arguments$u20$as$u20$core..fmt..Display$GT$3fmt17h4f1f6e031efe982fE@GOTPCREL(%rip), %rsi
	movq	72(%rsp), %rdi
	callq	_ZN4core3fmt10ArgumentV13new17hbf867313cc1a17a6E
	movq	%rax, 32(%rsp)
	movq	%rdx, 24(%rsp)
	leaq	.L__unnamed_18(%rip), %rax
	movq	64(%rsp), %rcx
	movq	%rcx, 224(%rsp)
	movq	56(%rsp), %rdx
	movq	%rdx, 232(%rsp)
	movq	48(%rsp), %rsi
	movq	%rsi, 240(%rsp)
	movq	40(%rsp), %rdi
	movq	%rdi, 248(%rsp)
	movq	32(%rsp), %r8
	movq	%r8, 256(%rsp)
	movq	24(%rsp), %r9
	movq	%r9, 264(%rsp)
	leaq	224(%rsp), %r10
	leaq	176(%rsp), %rdi
	movq	%rax, %rsi
	movl	$3, %eax
	movq	%rax, %rdx
	movq	%r10, %rcx
	movq	%rax, %r8
	callq	_ZN4core3fmt9Arguments6new_v117h38246756a055f81bE
	leaq	.L__unnamed_19(%rip), %rsi
	movq	_ZN4core9panicking9panic_fmt17h3d735cbb4b6fcb5bE@GOTPCREL(%rip), %rax
	leaq	176(%rsp), %rdi
	callq	*%rax
	ud2
.LBB230_10:
	movq	136(%rsp), %rdi
	movq	128(%rsp), %rsi
	callq	_ZN4core5slice29_$LT$impl$u20$$u5b$T$u5d$$GT$10as_mut_ptr17hf9735092727bee5cE
	movq	%rax, 16(%rsp)
	movq	136(%rsp), %rdi
	movq	128(%rsp), %rsi
	callq	_ZN4core5slice29_$LT$impl$u20$$u5b$T$u5d$$GT$3len17h4ded11694fc2c466E
	movq	%rax, 8(%rsp)
	movq	88(%rsp), %rdi
	movq	16(%rsp), %rsi
	movq	8(%rsp), %rdx
	callq	_ZN4core10intrinsics19copy_nonoverlapping17h5e5a55767a224286E
	addq	$360, %rsp
	.cfi_def_cfa_offset 8
	retq
.Lfunc_end230:
	.size	_ZN4core5slice29_$LT$impl$u20$$u5b$T$u5d$$GT$15copy_from_slice17h8464ab3c04eea6adE, .Lfunc_end230-_ZN4core5slice29_$LT$impl$u20$$u5b$T$u5d$$GT$15copy_from_slice17h8464ab3c04eea6adE
	.cfi_endproc

	.section	".text._ZN4core5slice29_$LT$impl$u20$$u5b$T$u5d$$GT$17get_unchecked_mut17hbe8447c9e7683e88E","ax",@progbits
	.p2align	4, 0x90
	.type	_ZN4core5slice29_$LT$impl$u20$$u5b$T$u5d$$GT$17get_unchecked_mut17hbe8447c9e7683e88E,@function
_ZN4core5slice29_$LT$impl$u20$$u5b$T$u5d$$GT$17get_unchecked_mut17hbe8447c9e7683e88E:
	.cfi_startproc
	subq	$40, %rsp
	.cfi_def_cfa_offset 48
	movq	%rdi, 32(%rsp)
	movq	%rdx, %rdi
	movq	32(%rsp), %rdx
	movq	%rsi, 24(%rsp)
	movq	%rdx, %rsi
	movq	24(%rsp), %rdx
	callq	_ZN103_$LT$core..ops..range..RangeFrom$LT$usize$GT$$u20$as$u20$core..slice..SliceIndex$LT$$u5b$T$u5d$$GT$$GT$17get_unchecked_mut17heee8884c5eb0e636E
	movq	%rax, 16(%rsp)
	movq	%rdx, 8(%rsp)
	movq	16(%rsp), %rax
	movq	8(%rsp), %rdx
	addq	$40, %rsp
	.cfi_def_cfa_offset 8
	retq
.Lfunc_end231:
	.size	_ZN4core5slice29_$LT$impl$u20$$u5b$T$u5d$$GT$17get_unchecked_mut17hbe8447c9e7683e88E, .Lfunc_end231-_ZN4core5slice29_$LT$impl$u20$$u5b$T$u5d$$GT$17get_unchecked_mut17hbe8447c9e7683e88E
	.cfi_endproc

	.section	".text._ZN4core5slice29_$LT$impl$u20$$u5b$T$u5d$$GT$3get17h481edce028ea8763E","ax",@progbits
	.p2align	4, 0x90
	.type	_ZN4core5slice29_$LT$impl$u20$$u5b$T$u5d$$GT$3get17h481edce028ea8763E,@function
_ZN4core5slice29_$LT$impl$u20$$u5b$T$u5d$$GT$3get17h481edce028ea8763E:
	.cfi_startproc
	subq	$24, %rsp
	.cfi_def_cfa_offset 32
	movq	%rdi, 16(%rsp)
	movq	%rdx, %rdi
	movq	16(%rsp), %rdx
	movq	%rsi, 8(%rsp)
	movq	%rdx, %rsi
	movq	8(%rsp), %rdx
	callq	_ZN68_$LT$usize$u20$as$u20$core..slice..SliceIndex$LT$$u5b$T$u5d$$GT$$GT$3get17h14239c3f1498be6fE
	movq	%rax, (%rsp)
	movq	(%rsp), %rax
	addq	$24, %rsp
	.cfi_def_cfa_offset 8
	retq
.Lfunc_end232:
	.size	_ZN4core5slice29_$LT$impl$u20$$u5b$T$u5d$$GT$3get17h481edce028ea8763E, .Lfunc_end232-_ZN4core5slice29_$LT$impl$u20$$u5b$T$u5d$$GT$3get17h481edce028ea8763E
	.cfi_endproc

	.section	".text._ZN4core5slice29_$LT$impl$u20$$u5b$T$u5d$$GT$3len17h4ded11694fc2c466E","ax",@progbits
	.p2align	4, 0x90
	.type	_ZN4core5slice29_$LT$impl$u20$$u5b$T$u5d$$GT$3len17h4ded11694fc2c466E,@function
_ZN4core5slice29_$LT$impl$u20$$u5b$T$u5d$$GT$3len17h4ded11694fc2c466E:
	.cfi_startproc
	subq	$16, %rsp
	.cfi_def_cfa_offset 24
	movq	%rdi, (%rsp)
	movq	%rsi, 8(%rsp)
	movq	8(%rsp), %rax
	addq	$16, %rsp
	.cfi_def_cfa_offset 8
	retq
.Lfunc_end233:
	.size	_ZN4core5slice29_$LT$impl$u20$$u5b$T$u5d$$GT$3len17h4ded11694fc2c466E, .Lfunc_end233-_ZN4core5slice29_$LT$impl$u20$$u5b$T$u5d$$GT$3len17h4ded11694fc2c466E
	.cfi_endproc

	.section	".text._ZN4core5slice29_$LT$impl$u20$$u5b$T$u5d$$GT$3len17hc70d987a2163e8adE","ax",@progbits
	.p2align	4, 0x90
	.type	_ZN4core5slice29_$LT$impl$u20$$u5b$T$u5d$$GT$3len17hc70d987a2163e8adE,@function
_ZN4core5slice29_$LT$impl$u20$$u5b$T$u5d$$GT$3len17hc70d987a2163e8adE:
	.cfi_startproc
	subq	$16, %rsp
	.cfi_def_cfa_offset 24
	movq	%rdi, (%rsp)
	movq	%rsi, 8(%rsp)
	movq	8(%rsp), %rax
	addq	$16, %rsp
	.cfi_def_cfa_offset 8
	retq
.Lfunc_end234:
	.size	_ZN4core5slice29_$LT$impl$u20$$u5b$T$u5d$$GT$3len17hc70d987a2163e8adE, .Lfunc_end234-_ZN4core5slice29_$LT$impl$u20$$u5b$T$u5d$$GT$3len17hc70d987a2163e8adE
	.cfi_endproc

	.section	".text._ZN4core5slice29_$LT$impl$u20$$u5b$T$u5d$$GT$4iter17h4587a83c6c580daeE","ax",@progbits
	.p2align	4, 0x90
	.type	_ZN4core5slice29_$LT$impl$u20$$u5b$T$u5d$$GT$4iter17h4587a83c6c580daeE,@function
_ZN4core5slice29_$LT$impl$u20$$u5b$T$u5d$$GT$4iter17h4587a83c6c580daeE:
	.cfi_startproc
	subq	$104, %rsp
	.cfi_def_cfa_offset 112
	movq	%rdi, 64(%rsp)
	movq	%rsi, 56(%rsp)
	callq	_ZN4core5slice29_$LT$impl$u20$$u5b$T$u5d$$GT$6as_ptr17h6489b6b33f8f7d00E
	movq	%rax, 48(%rsp)
	movq	48(%rsp), %rdi
	callq	_ZN4core3ptr33_$LT$impl$u20$$BP$const$u20$T$GT$7is_null17h4e8ac3715e01649dE
	movb	%al, 47(%rsp)
	callq	_ZN4core3mem7size_of17h592060904b8a69ffE
	movq	%rax, 32(%rsp)
	movq	32(%rsp), %rax
	cmpq	$0, %rax
	jne	.LBB235_8
	movq	64(%rsp), %rdi
	movq	56(%rsp), %rsi
	callq	_ZN4core5slice29_$LT$impl$u20$$u5b$T$u5d$$GT$3len17h4ded11694fc2c466E
	movq	%rax, 24(%rsp)
	movq	48(%rsp), %rdi
	movq	24(%rsp), %rsi
	callq	_ZN4core3ptr33_$LT$impl$u20$$BP$const$u20$T$GT$12wrapping_add17h9987f0cfab639885E
	movq	%rax, 16(%rsp)
	movq	16(%rsp), %rax
	movq	%rax, 88(%rsp)
	jmp	.LBB235_11
.LBB235_8:
	movq	64(%rsp), %rdi
	movq	56(%rsp), %rsi
	callq	_ZN4core5slice29_$LT$impl$u20$$u5b$T$u5d$$GT$3len17h4ded11694fc2c466E
	movq	%rax, 8(%rsp)
	movq	48(%rsp), %rdi
	movq	8(%rsp), %rsi
	callq	_ZN4core3ptr33_$LT$impl$u20$$BP$const$u20$T$GT$3add17h6382c2a38ab424a9E
	movq	%rax, 88(%rsp)
	jmp	.LBB235_11
.LBB235_11:
	movq	88(%rsp), %rax
	movq	48(%rsp), %rcx
	movq	%rcx, 72(%rsp)
	movq	%rax, 80(%rsp)
	movq	72(%rsp), %rax
	movq	80(%rsp), %rdx
	addq	$104, %rsp
	.cfi_def_cfa_offset 8
	retq
.Lfunc_end235:
	.size	_ZN4core5slice29_$LT$impl$u20$$u5b$T$u5d$$GT$4iter17h4587a83c6c580daeE, .Lfunc_end235-_ZN4core5slice29_$LT$impl$u20$$u5b$T$u5d$$GT$4iter17h4587a83c6c580daeE
	.cfi_endproc

	.section	".text._ZN4core5slice29_$LT$impl$u20$$u5b$T$u5d$$GT$4iter17hf342370c7971263bE","ax",@progbits
	.p2align	4, 0x90
	.type	_ZN4core5slice29_$LT$impl$u20$$u5b$T$u5d$$GT$4iter17hf342370c7971263bE,@function
_ZN4core5slice29_$LT$impl$u20$$u5b$T$u5d$$GT$4iter17hf342370c7971263bE:
	.cfi_startproc
	subq	$104, %rsp
	.cfi_def_cfa_offset 112
	movq	%rdi, 64(%rsp)
	movq	%rsi, 56(%rsp)
	callq	_ZN4core5slice29_$LT$impl$u20$$u5b$T$u5d$$GT$6as_ptr17hedd377caa7bbd02cE
	movq	%rax, 48(%rsp)
	movq	48(%rsp), %rdi
	callq	_ZN4core3ptr33_$LT$impl$u20$$BP$const$u20$T$GT$7is_null17hb6275bae240a8e80E
	movb	%al, 47(%rsp)
	callq	_ZN4core3mem7size_of17h47b2d41015953472E
	movq	%rax, 32(%rsp)
	movq	32(%rsp), %rax
	cmpq	$0, %rax
	jne	.LBB236_8
	movq	48(%rsp), %rax
	movq	64(%rsp), %rdi
	movq	56(%rsp), %rsi
	movq	%rax, 24(%rsp)
	callq	_ZN4core5slice29_$LT$impl$u20$$u5b$T$u5d$$GT$3len17hc70d987a2163e8adE
	movq	%rax, 16(%rsp)
	movq	24(%rsp), %rdi
	movq	16(%rsp), %rsi
	callq	_ZN4core3ptr33_$LT$impl$u20$$BP$const$u20$T$GT$12wrapping_add17h9987f0cfab639885E
	movq	%rax, 8(%rsp)
	movq	8(%rsp), %rax
	movq	%rax, 88(%rsp)
	jmp	.LBB236_11
.LBB236_8:
	movq	64(%rsp), %rdi
	movq	56(%rsp), %rsi
	callq	_ZN4core5slice29_$LT$impl$u20$$u5b$T$u5d$$GT$3len17hc70d987a2163e8adE
	movq	%rax, (%rsp)
	movq	48(%rsp), %rdi
	movq	(%rsp), %rsi
	callq	_ZN4core3ptr33_$LT$impl$u20$$BP$const$u20$T$GT$3add17h104ee3166db6d565E
	movq	%rax, 88(%rsp)
	jmp	.LBB236_11
.LBB236_11:
	movq	88(%rsp), %rax
	movq	48(%rsp), %rcx
	movq	%rcx, 72(%rsp)
	movq	%rax, 80(%rsp)
	movq	72(%rsp), %rax
	movq	80(%rsp), %rdx
	addq	$104, %rsp
	.cfi_def_cfa_offset 8
	retq
.Lfunc_end236:
	.size	_ZN4core5slice29_$LT$impl$u20$$u5b$T$u5d$$GT$4iter17hf342370c7971263bE, .Lfunc_end236-_ZN4core5slice29_$LT$impl$u20$$u5b$T$u5d$$GT$4iter17hf342370c7971263bE
	.cfi_endproc

	.section	".text._ZN4core5slice29_$LT$impl$u20$$u5b$T$u5d$$GT$6as_ptr17h6489b6b33f8f7d00E","ax",@progbits
	.p2align	4, 0x90
	.type	_ZN4core5slice29_$LT$impl$u20$$u5b$T$u5d$$GT$6as_ptr17h6489b6b33f8f7d00E,@function
_ZN4core5slice29_$LT$impl$u20$$u5b$T$u5d$$GT$6as_ptr17h6489b6b33f8f7d00E:
	.cfi_startproc
	pushq	%rax
	.cfi_def_cfa_offset 16
	movq	%rdi, %rax
	movq	%rsi, (%rsp)
	popq	%rcx
	.cfi_def_cfa_offset 8
	retq
.Lfunc_end237:
	.size	_ZN4core5slice29_$LT$impl$u20$$u5b$T$u5d$$GT$6as_ptr17h6489b6b33f8f7d00E, .Lfunc_end237-_ZN4core5slice29_$LT$impl$u20$$u5b$T$u5d$$GT$6as_ptr17h6489b6b33f8f7d00E
	.cfi_endproc

	.section	".text._ZN4core5slice29_$LT$impl$u20$$u5b$T$u5d$$GT$6as_ptr17hedd377caa7bbd02cE","ax",@progbits
	.p2align	4, 0x90
	.type	_ZN4core5slice29_$LT$impl$u20$$u5b$T$u5d$$GT$6as_ptr17hedd377caa7bbd02cE,@function
_ZN4core5slice29_$LT$impl$u20$$u5b$T$u5d$$GT$6as_ptr17hedd377caa7bbd02cE:
	.cfi_startproc
	pushq	%rax
	.cfi_def_cfa_offset 16
	movq	%rdi, %rax
	movq	%rsi, (%rsp)
	popq	%rcx
	.cfi_def_cfa_offset 8
	retq
.Lfunc_end238:
	.size	_ZN4core5slice29_$LT$impl$u20$$u5b$T$u5d$$GT$6as_ptr17hedd377caa7bbd02cE, .Lfunc_end238-_ZN4core5slice29_$LT$impl$u20$$u5b$T$u5d$$GT$6as_ptr17hedd377caa7bbd02cE
	.cfi_endproc

	.section	".text._ZN4core5slice74_$LT$impl$u20$core..ops..index..Index$LT$I$GT$$u20$for$u20$$u5b$T$u5d$$GT$5index17h633111c86077452eE","ax",@progbits
	.p2align	4, 0x90
	.type	_ZN4core5slice74_$LT$impl$u20$core..ops..index..Index$LT$I$GT$$u20$for$u20$$u5b$T$u5d$$GT$5index17h633111c86077452eE,@function
_ZN4core5slice74_$LT$impl$u20$core..ops..index..Index$LT$I$GT$$u20$for$u20$$u5b$T$u5d$$GT$5index17h633111c86077452eE:
	.cfi_startproc
	subq	$40, %rsp
	.cfi_def_cfa_offset 48
	movq	%rdi, 32(%rsp)
	movq	%rdx, %rdi
	movq	32(%rsp), %rdx
	movq	%rsi, 24(%rsp)
	movq	%rdx, %rsi
	movq	24(%rsp), %rdx
	callq	_ZN110_$LT$core..ops..range..RangeToInclusive$LT$usize$GT$$u20$as$u20$core..slice..SliceIndex$LT$$u5b$T$u5d$$GT$$GT$5index17h8a2895c165f83406E
	movq	%rax, 16(%rsp)
	movq	%rdx, 8(%rsp)
	movq	16(%rsp), %rax
	movq	8(%rsp), %rdx
	addq	$40, %rsp
	.cfi_def_cfa_offset 8
	retq
.Lfunc_end239:
	.size	_ZN4core5slice74_$LT$impl$u20$core..ops..index..Index$LT$I$GT$$u20$for$u20$$u5b$T$u5d$$GT$5index17h633111c86077452eE, .Lfunc_end239-_ZN4core5slice74_$LT$impl$u20$core..ops..index..Index$LT$I$GT$$u20$for$u20$$u5b$T$u5d$$GT$5index17h633111c86077452eE
	.cfi_endproc

	.section	".text._ZN4core5slice74_$LT$impl$u20$core..ops..index..Index$LT$I$GT$$u20$for$u20$$u5b$T$u5d$$GT$5index17h883d682ea82dff43E","ax",@progbits
	.p2align	4, 0x90
	.type	_ZN4core5slice74_$LT$impl$u20$core..ops..index..Index$LT$I$GT$$u20$for$u20$$u5b$T$u5d$$GT$5index17h883d682ea82dff43E,@function
_ZN4core5slice74_$LT$impl$u20$core..ops..index..Index$LT$I$GT$$u20$for$u20$$u5b$T$u5d$$GT$5index17h883d682ea82dff43E:
	.cfi_startproc
	subq	$40, %rsp
	.cfi_def_cfa_offset 48
	movq	%rdi, 32(%rsp)
	movq	%rdx, %rdi
	movq	%rsi, 24(%rsp)
	movq	%rcx, %rsi
	movq	32(%rsp), %rdx
	movq	24(%rsp), %rcx
	callq	_ZN99_$LT$core..ops..range..Range$LT$usize$GT$$u20$as$u20$core..slice..SliceIndex$LT$$u5b$T$u5d$$GT$$GT$5index17hb5c6615cd8cb2325E
	movq	%rax, 16(%rsp)
	movq	%rdx, 8(%rsp)
	movq	16(%rsp), %rax
	movq	8(%rsp), %rdx
	addq	$40, %rsp
	.cfi_def_cfa_offset 8
	retq
.Lfunc_end240:
	.size	_ZN4core5slice74_$LT$impl$u20$core..ops..index..Index$LT$I$GT$$u20$for$u20$$u5b$T$u5d$$GT$5index17h883d682ea82dff43E, .Lfunc_end240-_ZN4core5slice74_$LT$impl$u20$core..ops..index..Index$LT$I$GT$$u20$for$u20$$u5b$T$u5d$$GT$5index17h883d682ea82dff43E
	.cfi_endproc

	.section	".text._ZN4core5slice74_$LT$impl$u20$core..ops..index..Index$LT$I$GT$$u20$for$u20$$u5b$T$u5d$$GT$5index17ha8bcd627867e2570E","ax",@progbits
	.p2align	4, 0x90
	.type	_ZN4core5slice74_$LT$impl$u20$core..ops..index..Index$LT$I$GT$$u20$for$u20$$u5b$T$u5d$$GT$5index17ha8bcd627867e2570E,@function
_ZN4core5slice74_$LT$impl$u20$core..ops..index..Index$LT$I$GT$$u20$for$u20$$u5b$T$u5d$$GT$5index17ha8bcd627867e2570E:
	.cfi_startproc
	subq	$40, %rsp
	.cfi_def_cfa_offset 48
	movq	%rdi, 32(%rsp)
	movq	%rdx, %rdi
	movq	32(%rsp), %rdx
	movq	%rsi, 24(%rsp)
	movq	%rdx, %rsi
	movq	24(%rsp), %rdx
	callq	_ZN103_$LT$core..ops..range..RangeFrom$LT$usize$GT$$u20$as$u20$core..slice..SliceIndex$LT$$u5b$T$u5d$$GT$$GT$5index17hd3e7c413aabc6513E
	movq	%rax, 16(%rsp)
	movq	%rdx, 8(%rsp)
	movq	16(%rsp), %rax
	movq	8(%rsp), %rdx
	addq	$40, %rsp
	.cfi_def_cfa_offset 8
	retq
.Lfunc_end241:
	.size	_ZN4core5slice74_$LT$impl$u20$core..ops..index..Index$LT$I$GT$$u20$for$u20$$u5b$T$u5d$$GT$5index17ha8bcd627867e2570E, .Lfunc_end241-_ZN4core5slice74_$LT$impl$u20$core..ops..index..Index$LT$I$GT$$u20$for$u20$$u5b$T$u5d$$GT$5index17ha8bcd627867e2570E
	.cfi_endproc

	.section	".text._ZN4core5slice77_$LT$impl$u20$core..ops..index..IndexMut$LT$I$GT$$u20$for$u20$$u5b$T$u5d$$GT$9index_mut17h411a32176e8856cfE","ax",@progbits
	.p2align	4, 0x90
	.type	_ZN4core5slice77_$LT$impl$u20$core..ops..index..IndexMut$LT$I$GT$$u20$for$u20$$u5b$T$u5d$$GT$9index_mut17h411a32176e8856cfE,@function
_ZN4core5slice77_$LT$impl$u20$core..ops..index..IndexMut$LT$I$GT$$u20$for$u20$$u5b$T$u5d$$GT$9index_mut17h411a32176e8856cfE:
	.cfi_startproc
	subq	$24, %rsp
	.cfi_def_cfa_offset 32
	callq	_ZN90_$LT$core..ops..range..RangeFull$u20$as$u20$core..slice..SliceIndex$LT$$u5b$T$u5d$$GT$$GT$9index_mut17hdfe45f572f261208E
	movq	%rax, 16(%rsp)
	movq	%rdx, 8(%rsp)
	movq	16(%rsp), %rax
	movq	8(%rsp), %rdx
	addq	$24, %rsp
	.cfi_def_cfa_offset 8
	retq
.Lfunc_end242:
	.size	_ZN4core5slice77_$LT$impl$u20$core..ops..index..IndexMut$LT$I$GT$$u20$for$u20$$u5b$T$u5d$$GT$9index_mut17h411a32176e8856cfE, .Lfunc_end242-_ZN4core5slice77_$LT$impl$u20$core..ops..index..IndexMut$LT$I$GT$$u20$for$u20$$u5b$T$u5d$$GT$9index_mut17h411a32176e8856cfE
	.cfi_endproc

	.section	".text._ZN4core5slice77_$LT$impl$u20$core..ops..index..IndexMut$LT$I$GT$$u20$for$u20$$u5b$T$u5d$$GT$9index_mut17h9b32eae241cf3fcdE","ax",@progbits
	.p2align	4, 0x90
	.type	_ZN4core5slice77_$LT$impl$u20$core..ops..index..IndexMut$LT$I$GT$$u20$for$u20$$u5b$T$u5d$$GT$9index_mut17h9b32eae241cf3fcdE,@function
_ZN4core5slice77_$LT$impl$u20$core..ops..index..IndexMut$LT$I$GT$$u20$for$u20$$u5b$T$u5d$$GT$9index_mut17h9b32eae241cf3fcdE:
	.cfi_startproc
	subq	$24, %rsp
	.cfi_def_cfa_offset 32
	callq	_ZN90_$LT$core..ops..range..RangeFull$u20$as$u20$core..slice..SliceIndex$LT$$u5b$T$u5d$$GT$$GT$9index_mut17h79fa7e22ad71cbdcE
	movq	%rax, 16(%rsp)
	movq	%rdx, 8(%rsp)
	movq	16(%rsp), %rax
	movq	8(%rsp), %rdx
	addq	$24, %rsp
	.cfi_def_cfa_offset 8
	retq
.Lfunc_end243:
	.size	_ZN4core5slice77_$LT$impl$u20$core..ops..index..IndexMut$LT$I$GT$$u20$for$u20$$u5b$T$u5d$$GT$9index_mut17h9b32eae241cf3fcdE, .Lfunc_end243-_ZN4core5slice77_$LT$impl$u20$core..ops..index..IndexMut$LT$I$GT$$u20$for$u20$$u5b$T$u5d$$GT$9index_mut17h9b32eae241cf3fcdE
	.cfi_endproc

	.section	".text._ZN4core5slice81_$LT$impl$u20$core..cmp..PartialEq$LT$$u5b$B$u5d$$GT$$u20$for$u20$$u5b$A$u5d$$GT$2eq17hd798ecba6f7e74b9E","ax",@progbits
	.p2align	4, 0x90
	.type	_ZN4core5slice81_$LT$impl$u20$core..cmp..PartialEq$LT$$u5b$B$u5d$$GT$$u20$for$u20$$u5b$A$u5d$$GT$2eq17hd798ecba6f7e74b9E,@function
_ZN4core5slice81_$LT$impl$u20$core..cmp..PartialEq$LT$$u5b$B$u5d$$GT$$u20$for$u20$$u5b$A$u5d$$GT$2eq17hd798ecba6f7e74b9E:
	.cfi_startproc
	pushq	%rax
	.cfi_def_cfa_offset 16
	callq	_ZN68_$LT$$u5b$A$u5d$$u20$as$u20$core..slice..SlicePartialEq$LT$A$GT$$GT$5equal17hb8549e6aeb3d0844E
	movb	%al, 7(%rsp)
	movb	7(%rsp), %al
	andb	$1, %al
	movzbl	%al, %eax
	popq	%rcx
	.cfi_def_cfa_offset 8
	retq
.Lfunc_end244:
	.size	_ZN4core5slice81_$LT$impl$u20$core..cmp..PartialEq$LT$$u5b$B$u5d$$GT$$u20$for$u20$$u5b$A$u5d$$GT$2eq17hd798ecba6f7e74b9E, .Lfunc_end244-_ZN4core5slice81_$LT$impl$u20$core..cmp..PartialEq$LT$$u5b$B$u5d$$GT$$u20$for$u20$$u5b$A$u5d$$GT$2eq17hd798ecba6f7e74b9E
	.cfi_endproc

	.section	".text._ZN4core6option15Option$LT$T$GT$14unwrap_or_else17hd21b8965df6d4fbdE","ax",@progbits
	.p2align	4, 0x90
	.type	_ZN4core6option15Option$LT$T$GT$14unwrap_or_else17hd21b8965df6d4fbdE,@function
_ZN4core6option15Option$LT$T$GT$14unwrap_or_else17hd21b8965df6d4fbdE:
.Lfunc_begin18:
	.cfi_startproc
	.cfi_personality 155, DW.ref.rust_eh_personality
	.cfi_lsda 27, .Lexception18
	subq	$72, %rsp
	.cfi_def_cfa_offset 80
	movq	%rdi, 24(%rsp)
	movq	%rsi, 32(%rsp)
	movb	$0, 54(%rsp)
	movb	$0, 55(%rsp)
	movb	$1, 54(%rsp)
	movb	$1, 55(%rsp)
	movq	24(%rsp), %rsi
	testq	%rsi, %rsi
	movq	%rsi, 16(%rsp)
	je	.LBB245_4
	jmp	.LBB245_18
.LBB245_18:
	movq	16(%rsp), %rax
	subq	$1, %rax
	movq	%rax, 8(%rsp)
	je	.LBB245_3
	jmp	.LBB245_2
.LBB245_1:
	movq	56(%rsp), %rdi
	callq	_Unwind_Resume@PLT
	ud2
.LBB245_2:
	ud2
.LBB245_3:
	movb	$0, 54(%rsp)
	movq	32(%rsp), %rax
	movq	%rax, 40(%rsp)
	jmp	.LBB245_6
.LBB245_4:
	movb	$0, 55(%rsp)
.Ltmp102:
	callq	_ZN5alloc7raw_vec19RawVec$LT$T$C$A$GT$11allocate_in28_$u7b$$u7b$closure$u7d$$u7d$17h86d7d4dd69e3dac7E
.Ltmp103:
	movq	%rax, (%rsp)
	jmp	.LBB245_5
.LBB245_5:
	movq	(%rsp), %rax
	movq	%rax, 40(%rsp)
.LBB245_6:
	testb	$1, 55(%rsp)
	jne	.LBB245_12
.LBB245_7:
	cmpq	$1, 24(%rsp)
	je	.LBB245_14
	jmp	.LBB245_16
.LBB245_8:
	testb	$1, 54(%rsp)
	je	.LBB245_1
	movb	$0, 54(%rsp)
	jmp	.LBB245_1
.LBB245_10:
	jmp	.LBB245_1
.LBB245_11:
	cmpq	$1, 24(%rsp)
	je	.LBB245_8
	jmp	.LBB245_10
.LBB245_12:
	movb	$0, 55(%rsp)
	jmp	.LBB245_7
.LBB245_13:
	movq	40(%rsp), %rax
	addq	$72, %rsp
	.cfi_def_cfa_offset 8
	retq
.LBB245_14:
	.cfi_def_cfa_offset 80
	testb	$1, 54(%rsp)
	je	.LBB245_13
	movb	$0, 54(%rsp)
	jmp	.LBB245_13
.LBB245_16:
	jmp	.LBB245_13
.LBB245_17:
.Ltmp104:
	movl	%edx, %ecx
	movq	%rax, 56(%rsp)
	movl	%ecx, 64(%rsp)
	jmp	.LBB245_11
.Lfunc_end245:
	.size	_ZN4core6option15Option$LT$T$GT$14unwrap_or_else17hd21b8965df6d4fbdE, .Lfunc_end245-_ZN4core6option15Option$LT$T$GT$14unwrap_or_else17hd21b8965df6d4fbdE
	.cfi_endproc
	.section	.gcc_except_table,"a",@progbits
	.p2align	2
GCC_except_table245:
.Lexception18:
	.byte	255
	.byte	255
	.byte	1
	.uleb128 .Lcst_end18-.Lcst_begin18
.Lcst_begin18:
	.uleb128 .Lfunc_begin18-.Lfunc_begin18
	.uleb128 .Ltmp102-.Lfunc_begin18
	.byte	0
	.byte	0
	.uleb128 .Ltmp102-.Lfunc_begin18
	.uleb128 .Ltmp103-.Ltmp102
	.uleb128 .Ltmp104-.Lfunc_begin18
	.byte	0
.Lcst_end18:
	.p2align	2

	.section	".text._ZN4core6option15Option$LT$T$GT$14unwrap_or_else17hec9200e92dd2c6e5E","ax",@progbits
	.p2align	4, 0x90
	.type	_ZN4core6option15Option$LT$T$GT$14unwrap_or_else17hec9200e92dd2c6e5E,@function
_ZN4core6option15Option$LT$T$GT$14unwrap_or_else17hec9200e92dd2c6e5E:
.Lfunc_begin19:
	.cfi_startproc
	.cfi_personality 155, DW.ref.rust_eh_personality
	.cfi_lsda 27, .Lexception19
	subq	$136, %rsp
	.cfi_def_cfa_offset 144
	movq	%rdi, 48(%rsp)
	movq	%rsi, 56(%rsp)
	movb	$0, 118(%rsp)
	movb	$0, 119(%rsp)
	movb	$1, 118(%rsp)
	movb	$1, 119(%rsp)
	movq	48(%rsp), %rsi
	testq	%rsi, %rsi
	setne	%al
	movzbl	%al, %ecx
	movl	%ecx, %esi
	movq	%rdx, 40(%rsp)
	movq	%rsi, 32(%rsp)
	je	.LBB246_4
	jmp	.LBB246_18
.LBB246_18:
	movq	32(%rsp), %rax
	subq	$1, %rax
	movq	%rax, 24(%rsp)
	je	.LBB246_3
	jmp	.LBB246_2
.LBB246_1:
	movq	120(%rsp), %rdi
	callq	_Unwind_Resume@PLT
	ud2
.LBB246_2:
	ud2
.LBB246_3:
	movb	$0, 118(%rsp)
	movq	48(%rsp), %rax
	movq	56(%rsp), %rcx
	movq	%rax, 64(%rsp)
	movq	%rcx, 72(%rsp)
	jmp	.LBB246_6
.LBB246_4:
	movb	$0, 119(%rsp)
	movq	40(%rsp), %rax
	movq	16(%rax), %rcx
	movq	%rcx, 96(%rsp)
	movups	(%rax), %xmm0
	movaps	%xmm0, 80(%rsp)
.Ltmp105:
	leaq	80(%rsp), %rdi
	callq	_ZN4core3str6traits105_$LT$impl$u20$core..slice..SliceIndex$LT$str$GT$$u20$for$u20$core..ops..range..RangeFrom$LT$usize$GT$$GT$5index28_$u7b$$u7b$closure$u7d$$u7d$17hf011a698be548037E
.Ltmp106:
	movq	%rdx, 16(%rsp)
	movq	%rax, 8(%rsp)
	jmp	.LBB246_5
.LBB246_5:
	movq	8(%rsp), %rax
	movq	%rax, 64(%rsp)
	movq	16(%rsp), %rcx
	movq	%rcx, 72(%rsp)
.LBB246_6:
	testb	$1, 119(%rsp)
	jne	.LBB246_12
.LBB246_7:
	xorl	%eax, %eax
	movl	%eax, %ecx
	cmpq	$0, 48(%rsp)
	movl	$1, %edx
	cmoveq	%rcx, %rdx
	cmpq	$1, %rdx
	je	.LBB246_14
	jmp	.LBB246_16
.LBB246_8:
	testb	$1, 118(%rsp)
	je	.LBB246_1
	movb	$0, 118(%rsp)
	jmp	.LBB246_1
.LBB246_10:
	jmp	.LBB246_1
.LBB246_11:
	xorl	%eax, %eax
	movl	%eax, %ecx
	cmpq	$0, 48(%rsp)
	movl	$1, %edx
	cmoveq	%rcx, %rdx
	cmpq	$1, %rdx
	je	.LBB246_8
	jmp	.LBB246_10
.LBB246_12:
	movb	$0, 119(%rsp)
	jmp	.LBB246_7
.LBB246_13:
	movq	64(%rsp), %rax
	movq	72(%rsp), %rdx
	addq	$136, %rsp
	.cfi_def_cfa_offset 8
	retq
.LBB246_14:
	.cfi_def_cfa_offset 144
	testb	$1, 118(%rsp)
	je	.LBB246_13
	movb	$0, 118(%rsp)
	jmp	.LBB246_13
.LBB246_16:
	jmp	.LBB246_13
.LBB246_17:
.Ltmp107:
	movl	%edx, %ecx
	movq	%rax, 120(%rsp)
	movl	%ecx, 128(%rsp)
	jmp	.LBB246_11
.Lfunc_end246:
	.size	_ZN4core6option15Option$LT$T$GT$14unwrap_or_else17hec9200e92dd2c6e5E, .Lfunc_end246-_ZN4core6option15Option$LT$T$GT$14unwrap_or_else17hec9200e92dd2c6e5E
	.cfi_endproc
	.section	.gcc_except_table,"a",@progbits
	.p2align	2
GCC_except_table246:
.Lexception19:
	.byte	255
	.byte	255
	.byte	1
	.uleb128 .Lcst_end19-.Lcst_begin19
.Lcst_begin19:
	.uleb128 .Lfunc_begin19-.Lfunc_begin19
	.uleb128 .Ltmp105-.Lfunc_begin19
	.byte	0
	.byte	0
	.uleb128 .Ltmp105-.Lfunc_begin19
	.uleb128 .Ltmp106-.Ltmp105
	.uleb128 .Ltmp107-.Lfunc_begin19
	.byte	0
.Lcst_end19:
	.p2align	2

	.section	".text._ZN4core6option15Option$LT$T$GT$3map17h8c166908f6865ad1E","ax",@progbits
	.p2align	4, 0x90
	.type	_ZN4core6option15Option$LT$T$GT$3map17h8c166908f6865ad1E,@function
_ZN4core6option15Option$LT$T$GT$3map17h8c166908f6865ad1E:
.Lfunc_begin20:
	.cfi_startproc
	.cfi_personality 155, DW.ref.rust_eh_personality
	.cfi_lsda 27, .Lexception20
	subq	$232, %rsp
	.cfi_def_cfa_offset 240
	movq	%rdi, %rax
	movb	$0, 214(%rsp)
	movb	$0, 215(%rsp)
	movb	$1, 214(%rsp)
	movb	$1, 215(%rsp)
	movq	(%rsi), %rcx
	subq	$2, %rcx
	setne	%r8b
	movzbl	%r8b, %r9d
	movl	%r9d, %r10d
	movq	%rax, 56(%rsp)
	movq	%rdx, 48(%rsp)
	movq	%rsi, 40(%rsp)
	movq	%rdi, 32(%rsp)
	movq	%rcx, 24(%rsp)
	movq	%r10, 16(%rsp)
	je	.LBB247_5
	jmp	.LBB247_18
.LBB247_18:
	movq	16(%rsp), %rax
	subq	$1, %rax
	movq	%rax, 8(%rsp)
	je	.LBB247_3
	jmp	.LBB247_2
.LBB247_1:
	movq	216(%rsp), %rdi
	callq	_Unwind_Resume@PLT
	ud2
.LBB247_2:
	ud2
.LBB247_3:
	movb	$0, 214(%rsp)
	movq	40(%rsp), %rax
	movups	(%rax), %xmm0
	movups	16(%rax), %xmm1
	movaps	%xmm1, 80(%rsp)
	movaps	%xmm0, 64(%rsp)
	movb	$0, 215(%rsp)
	movaps	64(%rsp), %xmm0
	movaps	80(%rsp), %xmm1
	movaps	%xmm1, 192(%rsp)
	movaps	%xmm0, 176(%rsp)
	movaps	176(%rsp), %xmm0
	movaps	192(%rsp), %xmm1
	movaps	%xmm1, 160(%rsp)
	movaps	%xmm0, 144(%rsp)
.Ltmp108:
	leaq	104(%rsp), %rdi
	leaq	144(%rsp), %rdx
	movq	48(%rsp), %rsi
	callq	_ZN99_$LT$core..iter..adapters..Enumerate$LT$I$GT$$u20$as$u20$core..iter..traits..iterator..Iterator$GT$4next28_$u7b$$u7b$closure$u7d$$u7d$17he4f1f30cd46069edE
.Ltmp109:
	jmp	.LBB247_4
.LBB247_4:
	movq	32(%rsp), %rax
	leaq	104(%rsp), %rcx
	movq	%rax, %rdi
	movq	%rcx, %rsi
	movl	$40, %edx
	callq	memcpy@PLT
	jmp	.LBB247_6
.LBB247_5:
	movq	32(%rsp), %rax
	movq	$2, 8(%rax)
.LBB247_6:
	testb	$1, 215(%rsp)
	jne	.LBB247_12
.LBB247_7:
	xorl	%eax, %eax
	movl	%eax, %ecx
	movq	40(%rsp), %rdx
	cmpq	$2, (%rdx)
	movl	$1, %esi
	cmoveq	%rcx, %rsi
	cmpq	$1, %rsi
	je	.LBB247_14
	jmp	.LBB247_16
.LBB247_8:
	testb	$1, 214(%rsp)
	je	.LBB247_1
	movb	$0, 214(%rsp)
	movq	40(%rsp), %rax
	movq	%rax, %rdi
	callq	_ZN4core3ptr18real_drop_in_place17h274a8a217f6b2a6eE
	jmp	.LBB247_1
.LBB247_10:
	movq	40(%rsp), %rdi
	callq	_ZN4core3ptr18real_drop_in_place17h8cfcae9b4504e94cE
	jmp	.LBB247_1
.LBB247_11:
	xorl	%eax, %eax
	movl	%eax, %ecx
	movq	40(%rsp), %rdx
	cmpq	$2, (%rdx)
	movl	$1, %esi
	cmoveq	%rcx, %rsi
	cmpq	$1, %rsi
	je	.LBB247_8
	jmp	.LBB247_10
.LBB247_12:
	movb	$0, 215(%rsp)
	jmp	.LBB247_7
.LBB247_13:
	movq	56(%rsp), %rax
	addq	$232, %rsp
	.cfi_def_cfa_offset 8
	retq
.LBB247_14:
	.cfi_def_cfa_offset 240
	testb	$1, 214(%rsp)
	je	.LBB247_13
	movb	$0, 214(%rsp)
	movq	40(%rsp), %rax
	movq	%rax, %rdi
	callq	_ZN4core3ptr18real_drop_in_place17h274a8a217f6b2a6eE
	jmp	.LBB247_13
.LBB247_16:
	movq	40(%rsp), %rdi
	callq	_ZN4core3ptr18real_drop_in_place17h8cfcae9b4504e94cE
	jmp	.LBB247_13
.LBB247_17:
.Ltmp110:
	movl	%edx, %ecx
	movq	%rax, 216(%rsp)
	movl	%ecx, 224(%rsp)
	jmp	.LBB247_11
.Lfunc_end247:
	.size	_ZN4core6option15Option$LT$T$GT$3map17h8c166908f6865ad1E, .Lfunc_end247-_ZN4core6option15Option$LT$T$GT$3map17h8c166908f6865ad1E
	.cfi_endproc
	.section	.gcc_except_table,"a",@progbits
	.p2align	2
GCC_except_table247:
.Lexception20:
	.byte	255
	.byte	255
	.byte	1
	.uleb128 .Lcst_end20-.Lcst_begin20
.Lcst_begin20:
	.uleb128 .Lfunc_begin20-.Lfunc_begin20
	.uleb128 .Ltmp108-.Lfunc_begin20
	.byte	0
	.byte	0
	.uleb128 .Ltmp108-.Lfunc_begin20
	.uleb128 .Ltmp109-.Ltmp108
	.uleb128 .Ltmp110-.Lfunc_begin20
	.byte	0
	.uleb128 .Ltmp109-.Lfunc_begin20
	.uleb128 .Lfunc_end247-.Ltmp109
	.byte	0
	.byte	0
.Lcst_end20:
	.p2align	2

	.section	".text._ZN4core6option15Option$LT$T$GT$3map17h9dda55991ac16bf9E","ax",@progbits
	.p2align	4, 0x90
	.type	_ZN4core6option15Option$LT$T$GT$3map17h9dda55991ac16bf9E,@function
_ZN4core6option15Option$LT$T$GT$3map17h9dda55991ac16bf9E:
.Lfunc_begin21:
	.cfi_startproc
	.cfi_personality 155, DW.ref.rust_eh_personality
	.cfi_lsda 27, .Lexception21
	subq	$72, %rsp
	.cfi_def_cfa_offset 80
	movl	%edi, 32(%rsp)
	movl	%esi, 36(%rsp)
	movb	$0, 54(%rsp)
	movb	$0, 55(%rsp)
	movb	$1, 54(%rsp)
	movb	$1, 55(%rsp)
	movl	32(%rsp), %esi
	movl	%esi, %eax
	testq	%rax, %rax
	movq	%rax, 24(%rsp)
	je	.LBB248_5
	jmp	.LBB248_18
.LBB248_18:
	movq	24(%rsp), %rax
	subq	$1, %rax
	movq	%rax, 16(%rsp)
	je	.LBB248_3
	jmp	.LBB248_2
.LBB248_1:
	movq	56(%rsp), %rdi
	callq	_Unwind_Resume@PLT
	ud2
.LBB248_2:
	ud2
.LBB248_3:
	movb	$0, 54(%rsp)
	movl	36(%rsp), %eax
	movb	$0, 55(%rsp)
	movl	%eax, 48(%rsp)
	movl	48(%rsp), %edi
.Ltmp111:
	callq	_ZN90_$LT$core..str..Chars$u20$as$u20$core..iter..traits..double_ended..DoubleEndedIterator$GT$9next_back28_$u7b$$u7b$closure$u7d$$u7d$17hbdbd706a8dcfa6a5E
.Ltmp112:
	movl	%eax, 12(%rsp)
	jmp	.LBB248_4
.LBB248_4:
	movl	12(%rsp), %eax
	movl	%eax, 44(%rsp)
	jmp	.LBB248_6
.LBB248_5:
	movl	$1114112, 44(%rsp)
.LBB248_6:
	testb	$1, 55(%rsp)
	jne	.LBB248_12
.LBB248_7:
	movl	32(%rsp), %eax
	movl	%eax, %ecx
	cmpq	$1, %rcx
	je	.LBB248_14
	jmp	.LBB248_16
.LBB248_8:
	testb	$1, 54(%rsp)
	je	.LBB248_1
	movb	$0, 54(%rsp)
	jmp	.LBB248_1
.LBB248_10:
	jmp	.LBB248_1
.LBB248_11:
	movl	32(%rsp), %eax
	movl	%eax, %ecx
	cmpq	$1, %rcx
	je	.LBB248_8
	jmp	.LBB248_10
.LBB248_12:
	movb	$0, 55(%rsp)
	jmp	.LBB248_7
.LBB248_13:
	movl	44(%rsp), %eax
	addq	$72, %rsp
	.cfi_def_cfa_offset 8
	retq
.LBB248_14:
	.cfi_def_cfa_offset 80
	testb	$1, 54(%rsp)
	je	.LBB248_13
	movb	$0, 54(%rsp)
	jmp	.LBB248_13
.LBB248_16:
	jmp	.LBB248_13
.LBB248_17:
.Ltmp113:
	movl	%edx, %ecx
	movq	%rax, 56(%rsp)
	movl	%ecx, 64(%rsp)
	jmp	.LBB248_11
.Lfunc_end248:
	.size	_ZN4core6option15Option$LT$T$GT$3map17h9dda55991ac16bf9E, .Lfunc_end248-_ZN4core6option15Option$LT$T$GT$3map17h9dda55991ac16bf9E
	.cfi_endproc
	.section	.gcc_except_table,"a",@progbits
	.p2align	2
GCC_except_table248:
.Lexception21:
	.byte	255
	.byte	255
	.byte	1
	.uleb128 .Lcst_end21-.Lcst_begin21
.Lcst_begin21:
	.uleb128 .Lfunc_begin21-.Lfunc_begin21
	.uleb128 .Ltmp111-.Lfunc_begin21
	.byte	0
	.byte	0
	.uleb128 .Ltmp111-.Lfunc_begin21
	.uleb128 .Ltmp112-.Ltmp111
	.uleb128 .Ltmp113-.Lfunc_begin21
	.byte	0
.Lcst_end21:
	.p2align	2

	.section	".text._ZN4core6option15Option$LT$T$GT$4take17hfd36c9f81d5a42daE","ax",@progbits
	.p2align	4, 0x90
	.type	_ZN4core6option15Option$LT$T$GT$4take17hfd36c9f81d5a42daE,@function
_ZN4core6option15Option$LT$T$GT$4take17hfd36c9f81d5a42daE:
	.cfi_startproc
	subq	$40, %rsp
	.cfi_def_cfa_offset 48
	movq	$0, 24(%rsp)
	movq	24(%rsp), %rsi
	movq	32(%rsp), %rdx
	callq	_ZN4core3mem7replace17hace80fd0e472d5dfE
	movq	%rax, 16(%rsp)
	movq	%rdx, 8(%rsp)
	movq	16(%rsp), %rax
	movq	8(%rsp), %rdx
	addq	$40, %rsp
	.cfi_def_cfa_offset 8
	retq
.Lfunc_end249:
	.size	_ZN4core6option15Option$LT$T$GT$4take17hfd36c9f81d5a42daE, .Lfunc_end249-_ZN4core6option15Option$LT$T$GT$4take17hfd36c9f81d5a42daE
	.cfi_endproc

	.section	".text._ZN4core6option15Option$LT$T$GT$5ok_or17h1452fbaa2e91e9adE","ax",@progbits
	.p2align	4, 0x90
	.type	_ZN4core6option15Option$LT$T$GT$5ok_or17h1452fbaa2e91e9adE,@function
_ZN4core6option15Option$LT$T$GT$5ok_or17h1452fbaa2e91e9adE:
	.cfi_startproc
	subq	$80, %rsp
	.cfi_def_cfa_offset 88
	movb	%cl, %al
	movq	%rdi, %r8
	movq	%rsi, 40(%rsp)
	movq	%rdx, 48(%rsp)
	movb	$0, 62(%rsp)
	movb	$0, 63(%rsp)
	movb	$1, 62(%rsp)
	movb	$1, 63(%rsp)
	movq	40(%rsp), %rdx
	testq	%rdx, %rdx
	movb	%al, 39(%rsp)
	movq	%r8, 24(%rsp)
	movq	%rdi, 16(%rsp)
	movq	%rdx, 8(%rsp)
	je	.LBB250_3
	jmp	.LBB250_11
.LBB250_11:
	movq	8(%rsp), %rax
	subq	$1, %rax
	movq	%rax, (%rsp)
	je	.LBB250_2
	jmp	.LBB250_1
.LBB250_1:
	ud2
.LBB250_2:
	movb	$0, 62(%rsp)
	movq	48(%rsp), %rax
	movq	16(%rsp), %rcx
	movq	%rax, 8(%rcx)
	movb	$0, (%rcx)
	jmp	.LBB250_4
.LBB250_3:
	movb	$0, 63(%rsp)
	movb	39(%rsp), %al
	andb	$1, %al
	movq	16(%rsp), %rcx
	movb	%al, 1(%rcx)
	movb	$1, (%rcx)
.LBB250_4:
	testb	$1, 63(%rsp)
	jne	.LBB250_6
.LBB250_5:
	cmpq	$1, 40(%rsp)
	je	.LBB250_8
	jmp	.LBB250_10
.LBB250_6:
	movb	$0, 63(%rsp)
	jmp	.LBB250_5
.LBB250_7:
	movq	24(%rsp), %rax
