; ModuleID = 'main.7rcbfp3g-cgu.0'
source_filename = "main.7rcbfp3g-cgu.0"
target datalayout = "e-m:e-i64:64-f80:128-n8:16:32:64-S128"
target triple = "x86_64-unknown-linux-gnu"

%"core::fmt::Formatter" = type { [0 x i64], { i64, i64 }, [0 x i64], { i64, i64 }, [0 x i64], { {}*, [3 x i64]* }, [0 x i64], { i64*, i64* }, [0 x i64], { [0 x { i8*, i8* }]*, i64 }, [0 x i32], i32, [0 x i32], i32, [0 x i8], i8, [7 x i8] }
%"core::marker::PhantomData<u32>" = type {}
%"core::marker::PhantomData<u8>" = type {}
%"core::ops::range::RangeInclusive<usize>" = type { [0 x i64], i64, [0 x i64], i64, [0 x i8], i8, [7 x i8] }
%"alloc::vec::Vec<u8>" = type { [0 x i64], { i8*, i64 }, [0 x i64], i64, [0 x i64] }
%"core::result::Result<std::fs::File, std::io::error::Error>" = type { [0 x i32], i32, [5 x i32] }
%"std::fs::OpenOptions" = type { [0 x i32], %"std::sys::unix::fs::OpenOptions", [0 x i32] }
%"std::sys::unix::fs::OpenOptions" = type { [0 x i32], i32, [0 x i32], i32, [0 x i8], i8, [0 x i8], i8, [0 x i8], i8, [0 x i8], i8, [0 x i8], i8, [0 x i8], i8, [2 x i8] }
%"std::path::Path" = type { [0 x i8], %"std::ffi::os_str::OsStr" }
%"std::ffi::os_str::OsStr" = type { [0 x i8], %"std::sys_common::os_str_bytes::Slice" }
%"std::sys_common::os_str_bytes::Slice" = type { [0 x i8], [0 x i8] }
%"core::result::Result<usize, std::io::error::Error>" = type { [0 x i64], i64, [2 x i64] }
%"std::io::buffered::BufReader<std::fs::File>" = type { [0 x i64], { [0 x i8]*, i64 }, [0 x i64], i64, [0 x i64], i64, [0 x i32], i32, [1 x i32] }
%"std::io::error::Error" = type { [0 x i64], %"std::io::error::Repr", [0 x i64] }
%"std::io::error::Repr" = type { [0 x i8], i8, [15 x i8] }
%"core::result::Result<&[u8], std::io::error::Error>" = type { [0 x i64], i64, [2 x i64] }
%"core::result::Result<&[u8], std::io::error::Error>::Err" = type { [1 x i64], %"std::io::error::Error", [0 x i64] }
%"core::result::Result<usize, std::io::error::Error>::Err" = type { [1 x i64], %"std::io::error::Error", [0 x i64] }
%"core::result::Result<&[u8], std::io::error::Error>::Ok" = type { [1 x i64], { [0 x i8]*, i64 }, [0 x i64] }
%"core::option::Option<usize>::Some" = type { [1 x i64], i64, [0 x i64] }
%"core::result::Result<usize, std::io::error::Error>::Ok" = type { [1 x i64], i64, [0 x i64] }
%"alloc::string::String" = type { [0 x i64], %"alloc::vec::Vec<u8>", [0 x i64] }
%"std::io::append_to_string::{{closure}}<std::io::BufRead::read_line::{{closure}}<std::io::buffered::BufReader<std::fs::File>>>" = type {}
%"core::result::Result<&str, core::str::Utf8Error>" = type { [0 x i64], i64, [2 x i64] }
%"std::io::Lines<std::io::buffered::BufReader<std::fs::File>>" = type { [0 x i64], %"std::io::buffered::BufReader<std::fs::File>", [0 x i64] }
%"core::fmt::builders::DebugList" = type { [0 x i64], %"core::fmt::builders::DebugInner", [0 x i64] }
%"core::fmt::builders::DebugInner" = type { [0 x i64], %"core::fmt::Formatter"*, [0 x i8], i8, [0 x i8], i8, [6 x i8] }
%"alloc::alloc::Global" = type {}
%"core::fmt::Void" = type { [0 x i8], {}, [0 x i8], %"core::marker::PhantomData<*mut core::ops::function::Fn<(), Output=()>>", [0 x i8] }
%"core::marker::PhantomData<*mut core::ops::function::Fn<(), Output=()>>" = type {}
%"core::alloc::LayoutErr" = type { [0 x i8], {}, [0 x i8] }
%"core::fmt::Arguments" = type { [0 x i64], { [0 x { [0 x i8]*, i64 }]*, i64 }, [0 x i64], { i64*, i64 }, [0 x i64], { [0 x { i8*, i8* }]*, i64 }, [0 x i64] }
%"alloc::vec::Vec<u32>" = type { [0 x i64], { i32*, i64 }, [0 x i64], i64, [0 x i64] }
%"core::mem::ManuallyDrop<alloc::vec::Vec<u8>>" = type { [0 x i64], %"alloc::vec::Vec<u8>", [0 x i64] }
%"core::marker::PhantomData<core::any::Any>" = type {}
%"core::marker::PhantomData<[u8]>" = type {}
%"std::io::error::Custom" = type { [0 x i64], { {}*, [3 x i64]* }, [0 x i8], i8, [7 x i8] }
%"core::result::Result<alloc::string::String, std::io::error::Error>" = type { [0 x i64], i64, [3 x i64] }
%"core::result::Result<alloc::string::String, std::io::error::Error>::Ok" = type { [1 x i64], %"alloc::string::String", [0 x i64] }
%"core::result::Result<alloc::string::String, std::io::error::Error>::Err" = type { [1 x i64], %"std::io::error::Error", [0 x i64] }
%"std::io::error::Repr::Custom" = type { [1 x i64], %"std::io::error::Custom"*, [0 x i64] }
%"core::option::Option<core::result::Result<alloc::string::String, std::io::error::Error>>" = type { [0 x i64], i64, [3 x i64] }
%"core::option::Option<core::result::Result<alloc::string::String, std::io::error::Error>>::Some" = type { [0 x i64], %"core::result::Result<alloc::string::String, std::io::error::Error>", [0 x i64] }
%"core::iter::adapters::Enumerate<std::io::Lines<std::io::buffered::BufReader<std::fs::File>>>" = type { [0 x i64], %"std::io::Lines<std::io::buffered::BufReader<std::fs::File>>", [0 x i64], i64, [0 x i64] }
%"core::option::Option<(usize, core::result::Result<alloc::string::String, std::io::error::Error>)>" = type { [1 x i64], i64, [3 x i64] }
%"core::option::Option<(usize, core::result::Result<alloc::string::String, std::io::error::Error>)>::Some" = type { [0 x i64], { [0 x i64], i64, [0 x i64], %"core::result::Result<alloc::string::String, std::io::error::Error>", [0 x i64] }, [0 x i64] }
%"core::mem::MaybeUninit<core::ptr::swap_nonoverlapping_bytes::UnalignedBlock>" = type { [4 x i64] }
%"core::mem::ManuallyDrop<core::ptr::swap_nonoverlapping_bytes::UnalignedBlock>" = type { [0 x i64], %"core::ptr::swap_nonoverlapping_bytes::UnalignedBlock", [0 x i64] }
%"core::ptr::swap_nonoverlapping_bytes::UnalignedBlock" = type { [0 x i64], i64, [0 x i64], i64, [0 x i64], i64, [0 x i64], i64, [0 x i64] }
%"core::mem::MaybeUninit<alloc::alloc::Global>" = type { [0 x i8] }
%"core::mem::ManuallyDrop<alloc::alloc::Global>" = type { [0 x i8], %"alloc::alloc::Global", [0 x i8] }
%"core::result::Result<u32, core::num::ParseIntError>" = type { [0 x i8], i8, [7 x i8] }
%"core::option::Option<u32>::Some" = type { [1 x i32], i32, [0 x i32] }
%"core::str::traits::{{impl}}::index::{{closure}}" = type { [0 x i64], { [0 x i8]*, i64 }*, [0 x i64], i64*, [0 x i64], i64*, [0 x i64] }
%"main::{{closure}}" = type {}
%"core::result::Result<core::alloc::Layout, core::alloc::LayoutErr>::Err" = type { [0 x i8], %"core::alloc::LayoutErr", [0 x i8] }
%"core::alloc::{{impl}}::array::{{closure}}<u32>" = type {}
%"core::result::Result<(core::alloc::Layout, usize), core::alloc::LayoutErr>" = type { [1 x i64], i64, [1 x i64] }
%"core::alloc::{{impl}}::array::{{closure}}<u8>" = type {}
%"core::result::Result<usize, core::alloc::LayoutErr>::Ok" = type { [1 x i64], i64, [0 x i64] }
%"core::result::Result<(core::alloc::Layout, usize), core::alloc::LayoutErr>::Ok" = type { [0 x i64], { [0 x i64], { i64, i64 }, [0 x i64], i64, [0 x i64] }, [0 x i64] }
%"core::slice::Repr<u32>" = type { [2 x i64] }
%"core::slice::Repr<u8>" = type { [2 x i64] }
%"core::marker::PhantomData<&u8>" = type {}
%"core::marker::PhantomData<&u32>" = type {}
%"core::result::Result<usize, alloc::collections::CollectionAllocErr>" = type { [0 x i8], i8, [15 x i8] }
%"core::result::Result<usize, alloc::collections::CollectionAllocErr>::Ok" = type { [1 x i64], i64, [0 x i64] }
%"core::result::Result<usize, alloc::collections::CollectionAllocErr>::Err" = type { [1 x i8], i8, [0 x i8] }
%"core::result::Result<usize, core::alloc::LayoutErr>::Err" = type { [8 x i8], %"core::alloc::LayoutErr", [0 x i8] }
%"core::result::Result<&u8, core::option::NoneError>::Err" = type { [0 x i8], %"core::option::NoneError", [0 x i8] }
%"core::option::NoneError" = type {}
%"core::result::Result<core::ptr::NonNull<u8>, core::alloc::AllocErr>::Err" = type { [0 x i8], %"core::alloc::AllocErr", [0 x i8] }
%"core::alloc::AllocErr" = type {}
%"core::result::Result<char, core::option::NoneError>::Err" = type { [0 x i8], %"core::option::NoneError", [0 x i8] }
%"core::result::Result<core::alloc::Layout, alloc::collections::CollectionAllocErr>" = type { [0 x i8], i8, [23 x i8] }
%"core::result::Result<core::alloc::Layout, alloc::collections::CollectionAllocErr>::Ok" = type { [1 x i64], { i64, i64 }, [0 x i64] }
%"core::result::Result<core::alloc::Layout, alloc::collections::CollectionAllocErr>::Err" = type { [1 x i8], i8, [0 x i8] }
%"core::result::Result<(), alloc::collections::CollectionAllocErr>::Ok" = type { [0 x i8], {}, [0 x i8] }
%"alloc::raw_vec::{{impl}}::allocate_in::{{closure}}<u8, alloc::alloc::Global>.1" = type {}
%"alloc::raw_vec::{{impl}}::allocate_in::{{closure}}<u8, alloc::alloc::Global>" = type {}
%"alloc::raw_vec::{{impl}}::reserve_internal::{{closure}}<u8, alloc::alloc::Global>" = type {}
%"alloc::raw_vec::{{impl}}::reserve_internal::{{closure}}<u32, alloc::alloc::Global>" = type {}
%"core::ops::range::RangeFull" = type {}
%"core::result::Result<(core::alloc::Layout, usize), core::alloc::LayoutErr>::Err" = type { [0 x i8], %"core::alloc::LayoutErr", [0 x i8] }
%"main::{{closure}}.0" = type {}
%"core::iter::adapters::{{impl}}::fold::{{closure}}<u32, core::slice::Iter<u32>, main::{{closure}}, u32, fn(u32, u32) -> u32>" = type { [0 x i8], {}, [0 x i8], %"main::{{closure}}", [0 x i8] }
%"core::str::{{impl}}::next_back::{{closure}}" = type {}
%"core::result::Result<std::fs::File, std::io::error::Error>::Err" = type { [1 x i64], %"std::io::error::Error", [0 x i64] }
%"core::result::Result<std::fs::File, std::io::error::Error>::Ok" = type { [1 x i32], i32, [0 x i32] }
%"core::result::Result<u32, core::num::ParseIntError>::Err" = type { [1 x i8], i8, [0 x i8] }
%"core::result::Result<u32, core::num::ParseIntError>::Ok" = type { [1 x i32], i32, [0 x i32] }
%"unwind::libunwind::_Unwind_Exception" = type { [0 x i64], i64, [0 x i64], void (i32, %"unwind::libunwind::_Unwind_Exception"*)*, [0 x i64], [6 x i64], [0 x i64] }
%"unwind::libunwind::_Unwind_Context" = type { [0 x i8] }

@0 = private unnamed_addr constant <{ [1 x i8] }> <{ [1 x i8] c"\0F" }>, align 1
@1 = private unnamed_addr constant <{ [34 x i8] }> <{ [34 x i8] c"stream did not contain valid UTF-8" }>, align 1
@vtable.0 = private unnamed_addr constant { void (i8**)*, i64, i64, i32 (i8**)*, i32 (i8**)*, i32 (i8**)* } { void (i8**)* @_ZN4core3ptr18real_drop_in_place17h6a2b31df727b4a4eE, i64 8, i64 8, i32 (i8**)* @"_ZN3std2rt10lang_start28_$u7b$$u7b$closure$u7d$$u7d$17h0e190d26b7152ab9E", i32 (i8**)* @"_ZN3std2rt10lang_start28_$u7b$$u7b$closure$u7d$$u7d$17h0e190d26b7152ab9E", i32 (i8**)* @"_ZN4core3ops8function6FnOnce40call_once$u7b$$u7b$vtable.shim$u7d$$u7d$17hae663ab919a77e25E" }, align 8
@vtable.1 = private unnamed_addr constant { void ({ i8*, i64 }*)*, i64, i64, { {}*, [3 x i64]* } ({ i8*, i64 }*)*, { {}*, [3 x i64]* } ({ i8*, i64 }*)* } { void ({ i8*, i64 }*)* @_ZN4core3ptr18real_drop_in_place17h858fb983229c8843E, i64 16, i64 8, { {}*, [3 x i64]* } ({ i8*, i64 }*)* @"_ZN91_$LT$std..panicking..begin_panic..PanicPayload$LT$A$GT$$u20$as$u20$core..panic..BoxMeUp$GT$9box_me_up17hc3ffd14048f32af6E", { {}*, [3 x i64]* } ({ i8*, i64 }*)* @"_ZN91_$LT$std..panicking..begin_panic..PanicPayload$LT$A$GT$$u20$as$u20$core..panic..BoxMeUp$GT$3get17h475ffefc38270354E" }, align 8
@str.2 = internal constant [46 x i8] c"/usr/src/rustc-1.36.0/src/libcore/ops/arith.rs"
@str.3 = internal constant [28 x i8] c"attempt to add with overflow"
@panic_loc.4 = private unnamed_addr constant { { [0 x i8]*, i64 }, { [0 x i8]*, i64 }, i32, i32 } { { [0 x i8]*, i64 } { [0 x i8]* bitcast ([28 x i8]* @str.3 to [0 x i8]*), i64 28 }, { [0 x i8]*, i64 } { [0 x i8]* bitcast ([46 x i8]* @str.2 to [0 x i8]*), i64 46 }, i32 100, i32 45 }, align 8
@vtable.5 = private unnamed_addr constant { void (i32**)*, i64, i64, i1 (i32**, %"core::fmt::Formatter"*)* } { void (i32**)* @_ZN4core3ptr18real_drop_in_place17h1465bfca74e90596E, i64 8, i64 8, i1 (i32**, %"core::fmt::Formatter"*)* @"_ZN42_$LT$$RF$T$u20$as$u20$core..fmt..Debug$GT$3fmt17h3fbcd9f413dc809cE" }, align 8
@2 = private unnamed_addr constant <{ [62 x i8] }> <{ [62 x i8] c"assertion failed: Layout::from_size_align(size, align).is_ok()" }>, align 1
@3 = private unnamed_addr constant <{ [20 x i8] }> <{ [20 x i8] c"src/libcore/alloc.rs" }>, align 1
@4 = private unnamed_addr constant <{ i8*, [8 x i8], i8*, [16 x i8] }> <{ i8* getelementptr inbounds (<{ [62 x i8] }>, <{ [62 x i8] }>* @2, i32 0, i32 0, i32 0), [8 x i8] c">\00\00\00\00\00\00\00", i8* getelementptr inbounds (<{ [20 x i8] }>, <{ [20 x i8] }>* @3, i32 0, i32 0, i32 0), [16 x i8] c"\14\00\00\00\00\00\00\00}\00\00\00\09\00\00\00" }>, align 8
@5 = private unnamed_addr constant <{ [45 x i8] }> <{ [45 x i8] c"assertion failed: offs == mem::size_of::<T>()" }>, align 1
@6 = private unnamed_addr constant <{ i8*, [8 x i8], i8*, [16 x i8] }> <{ i8* getelementptr inbounds (<{ [45 x i8] }>, <{ [45 x i8] }>* @5, i32 0, i32 0, i32 0), [8 x i8] c"-\00\00\00\00\00\00\00", i8* getelementptr inbounds (<{ [20 x i8] }>, <{ [20 x i8] }>* @3, i32 0, i32 0, i32 0), [16 x i8] c"\14\00\00\00\00\00\00\00C\01\00\00\11\00\00\00" }>, align 8
@str.6 = internal constant [46 x i8] c"/usr/src/rustc-1.36.0/src/libcore/slice/mod.rs"
@str.7 = internal constant [25 x i8] c"attempt to divide by zero"
@panic_loc.8 = private unnamed_addr constant { { [0 x i8]*, i64 }, { [0 x i8]*, i64 }, i32, i32 } { { [0 x i8]*, i64 } { [0 x i8]* bitcast ([25 x i8]* @str.7 to [0 x i8]*), i64 25 }, { [0 x i8]*, i64 } { [0 x i8]* bitcast ([46 x i8]* @str.6 to [0 x i8]*), i64 46 }, i32 3009, i32 13 }, align 8
@str.9 = internal constant [57 x i8] c"attempt to calculate the remainder with a divisor of zero"
@panic_loc.a = private unnamed_addr constant { { [0 x i8]*, i64 }, { [0 x i8]*, i64 }, i32, i32 } { { [0 x i8]*, i64 } { [0 x i8]* bitcast ([57 x i8]* @str.9 to [0 x i8]*), i64 57 }, { [0 x i8]*, i64 } { [0 x i8]* bitcast ([46 x i8]* @str.6 to [0 x i8]*), i64 46 }, i32 5093, i32 19 }, align 8
@7 = private unnamed_addr constant <{ [33 x i8] }> <{ [33 x i8] c"attempt to create unaligned slice" }>, align 1
@8 = private unnamed_addr constant <{ [24 x i8] }> <{ [24 x i8] c"src/libcore/slice/mod.rs" }>, align 1
@9 = private unnamed_addr constant <{ i8*, [8 x i8], i8*, [16 x i8] }> <{ i8* getelementptr inbounds (<{ [33 x i8] }>, <{ [33 x i8] }>* @7, i32 0, i32 0, i32 0), [8 x i8] c"!\00\00\00\00\00\00\00", i8* getelementptr inbounds (<{ [24 x i8] }>, <{ [24 x i8] }>* @8, i32 0, i32 0, i32 0), [16 x i8] c"\18\00\00\00\00\00\00\00\E5\13\00\00\05\00\00\00" }>, align 8
@10 = private unnamed_addr constant <{ [55 x i8] }> <{ [55 x i8] c"attempt to create slice covering half the address space" }>, align 1
@11 = private unnamed_addr constant <{ i8*, [8 x i8], i8*, [16 x i8] }> <{ i8* getelementptr inbounds (<{ [55 x i8] }>, <{ [55 x i8] }>* @10, i32 0, i32 0, i32 0), [8 x i8] c"7\00\00\00\00\00\00\00", i8* getelementptr inbounds (<{ [24 x i8] }>, <{ [24 x i8] }>* @8, i32 0, i32 0, i32 0), [16 x i8] c"\18\00\00\00\00\00\00\00\E6\13\00\00\05\00\00\00" }>, align 8
@panic_loc.b = private unnamed_addr constant { { [0 x i8]*, i64 }, { [0 x i8]*, i64 }, i32, i32 } { { [0 x i8]*, i64 } { [0 x i8]* bitcast ([57 x i8]* @str.9 to [0 x i8]*), i64 57 }, { [0 x i8]*, i64 } { [0 x i8]* bitcast ([46 x i8]* @str.6 to [0 x i8]*), i64 46 }, i32 5114, i32 19 }, align 8
@12 = private unnamed_addr constant <{ i8*, [8 x i8], i8*, [16 x i8] }> <{ i8* getelementptr inbounds (<{ [33 x i8] }>, <{ [33 x i8] }>* @7, i32 0, i32 0, i32 0), [8 x i8] c"!\00\00\00\00\00\00\00", i8* getelementptr inbounds (<{ [24 x i8] }>, <{ [24 x i8] }>* @8, i32 0, i32 0, i32 0), [16 x i8] c"\18\00\00\00\00\00\00\00\FA\13\00\00\05\00\00\00" }>, align 8
@13 = private unnamed_addr constant <{ i8*, [8 x i8], i8*, [16 x i8] }> <{ i8* getelementptr inbounds (<{ [55 x i8] }>, <{ [55 x i8] }>* @10, i32 0, i32 0, i32 0), [8 x i8] c"7\00\00\00\00\00\00\00", i8* getelementptr inbounds (<{ [24 x i8] }>, <{ [24 x i8] }>* @8, i32 0, i32 0, i32 0), [16 x i8] c"\18\00\00\00\00\00\00\00\FB\13\00\00\05\00\00\00" }>, align 8
@14 = private unnamed_addr constant <{ [45 x i8] }> <{ [45 x i8] c"assertion failed: `(left == right)`\0A  left: `" }>, align 1
@15 = private unnamed_addr constant <{ [12 x i8] }> <{ [12 x i8] c"`,\0A right: `" }>, align 1
@16 = private unnamed_addr constant <{ [3 x i8] }> <{ [3 x i8] c"`: " }>, align 1
@17 = private unnamed_addr constant <{ i8*, [8 x i8], i8*, [8 x i8], i8*, [8 x i8] }> <{ i8* getelementptr inbounds (<{ [45 x i8] }>, <{ [45 x i8] }>* @14, i32 0, i32 0, i32 0), [8 x i8] c"-\00\00\00\00\00\00\00", i8* getelementptr inbounds (<{ [12 x i8] }>, <{ [12 x i8] }>* @15, i32 0, i32 0, i32 0), [8 x i8] c"\0C\00\00\00\00\00\00\00", i8* getelementptr inbounds (<{ [3 x i8] }>, <{ [3 x i8] }>* @16, i32 0, i32 0, i32 0), [8 x i8] c"\03\00\00\00\00\00\00\00" }>, align 8
@18 = private unnamed_addr constant <{ [52 x i8] }> <{ [52 x i8] c"destination and source slices have different lengths" }>, align 1
@19 = private unnamed_addr constant <{ i8*, [8 x i8] }> <{ i8* getelementptr inbounds (<{ [52 x i8] }>, <{ [52 x i8] }>* @18, i32 0, i32 0, i32 0), [8 x i8] c"4\00\00\00\00\00\00\00" }>, align 8
@20 = private unnamed_addr constant <{ [0 x i8] }> zeroinitializer, align 8
@21 = private unnamed_addr constant <{ i8*, [16 x i8] }> <{ i8* getelementptr inbounds (<{ [24 x i8] }>, <{ [24 x i8] }>* @8, i32 0, i32 0, i32 0), [16 x i8] c"\18\00\00\00\00\00\00\00K\08\00\00\09\00\00\00" }>, align 8
@22 = private unnamed_addr constant <{ [2 x i8] }> <{ [2 x i8] c": " }>, align 1
@23 = private unnamed_addr constant <{ i8*, [8 x i8], i8*, [8 x i8] }> <{ i8* getelementptr inbounds (<{ [0 x i8] }>, <{ [0 x i8] }>* @20, i32 0, i32 0, i32 0), [8 x i8] zeroinitializer, i8* getelementptr inbounds (<{ [2 x i8] }>, <{ [2 x i8] }>* @22, i32 0, i32 0, i32 0), [8 x i8] c"\02\00\00\00\00\00\00\00" }>, align 8
@24 = private unnamed_addr constant <{ [21 x i8] }> <{ [21 x i8] c"src/libcore/result.rs" }>, align 1
@25 = private unnamed_addr constant <{ i8*, [16 x i8] }> <{ i8* getelementptr inbounds (<{ [21 x i8] }>, <{ [21 x i8] }>* @24, i32 0, i32 0, i32 0), [16 x i8] c"\15\00\00\00\00\00\00\00\E7\03\00\00\05\00\00\00" }>, align 8
@26 = private unnamed_addr constant <{ [43 x i8] }> <{ [43 x i8] c"called `Result::unwrap()` on an `Err` value" }>, align 1
@27 = private unnamed_addr constant <{ [44 x i8] }> <{ [44 x i8] c"assertion failed: new_len <= self.capacity()" }>, align 1
@28 = private unnamed_addr constant <{ [19 x i8] }> <{ [19 x i8] c"src/liballoc/vec.rs" }>, align 1
@29 = private unnamed_addr constant <{ i8*, [8 x i8], i8*, [16 x i8] }> <{ i8* getelementptr inbounds (<{ [44 x i8] }>, <{ [44 x i8] }>* @27, i32 0, i32 0, i32 0), [8 x i8] c",\00\00\00\00\00\00\00", i8* getelementptr inbounds (<{ [19 x i8] }>, <{ [19 x i8] }>* @28, i32 0, i32 0, i32 0), [16 x i8] c"\13\00\00\00\00\00\00\003\03\00\00\09\00\00\00" }>, align 8
@30 = private unnamed_addr constant <{ [36 x i8] }> <{ [36 x i8] c"Tried to shrink to a larger capacity" }>, align 1
@31 = private unnamed_addr constant <{ [23 x i8] }> <{ [23 x i8] c"src/liballoc/raw_vec.rs" }>, align 1
@32 = private unnamed_addr constant <{ i8*, [8 x i8], i8*, [16 x i8] }> <{ i8* getelementptr inbounds (<{ [36 x i8] }>, <{ [36 x i8] }>* @30, i32 0, i32 0, i32 0), [8 x i8] c"$\00\00\00\00\00\00\00", i8* getelementptr inbounds (<{ [23 x i8] }>, <{ [23 x i8] }>* @31, i32 0, i32 0, i32 0), [16 x i8] c"\17\00\00\00\00\00\00\00@\02\00\00\09\00\00\00" }>, align 8
@33 = private unnamed_addr constant <{ [54 x i8] }> <{ [54 x i8] c"assertion failed: new_layout.align() == layout.align()" }>, align 1
@34 = private unnamed_addr constant <{ i8*, [8 x i8], i8*, [16 x i8] }> <{ i8* getelementptr inbounds (<{ [54 x i8] }>, <{ [54 x i8] }>* @33, i32 0, i32 0, i32 0), [8 x i8] c"6\00\00\00\00\00\00\00", i8* getelementptr inbounds (<{ [23 x i8] }>, <{ [23 x i8] }>* @31, i32 0, i32 0, i32 0), [16 x i8] c"\17\00\00\00\00\00\00\00\99\02\00\00\15\00\00\00" }>, align 8
@str.c = internal constant [45 x i8] c"/usr/src/rustc-1.36.0/src/liballoc/raw_vec.rs"
@panic_bounds_check_loc.d = private unnamed_addr constant { { [0 x i8]*, i64 }, i32, i32 } { { [0 x i8]*, i64 } { [0 x i8]* bitcast ([45 x i8]* @str.c to [0 x i8]*), i64 45 }, i32 60, i32 18 }, align 8
@35 = private unnamed_addr constant <{ [40 x i8] }> <{ [40 x i8] c"internal error: entered unreachable code" }>, align 1
@36 = private unnamed_addr constant <{ i8*, [8 x i8], i8*, [16 x i8] }> <{ i8* getelementptr inbounds (<{ [40 x i8] }>, <{ [40 x i8] }>* @35, i32 0, i32 0, i32 0), [8 x i8] c"(\00\00\00\00\00\00\00", i8* getelementptr inbounds (<{ [23 x i8] }>, <{ [23 x i8] }>* @31, i32 0, i32 0, i32 0), [16 x i8] c"\17\00\00\00\00\00\00\00\ED\01\00\00\1E\00\00\00" }>, align 8
@37 = private unnamed_addr constant <{ [25 x i8] }> <{ [25 x i8] c"src/libstd/io/buffered.rs" }>, align 1
@38 = private unnamed_addr constant <{ i8*, [16 x i8] }> <{ i8* getelementptr inbounds (<{ [25 x i8] }>, <{ [25 x i8] }>* @37, i32 0, i32 0, i32 0), [16 x i8] c"\19\00\00\00\00\00\00\00\19\01\00\00\0D\00\00\00" }>, align 8
@39 = private unnamed_addr constant <{ [38 x i8] }> <{ [38 x i8] c"assertion failed: self.pos == self.cap" }>, align 1
@40 = private unnamed_addr constant <{ [1 x i8] }> <{ [1 x i8] c"\0A" }>, align 1
@41 = private unnamed_addr constant <{ [1 x i8] }> <{ [1 x i8] c"\0D" }>, align 1
@vtable.e = private unnamed_addr constant { void ({ [0 x i8]*, i64 }*)*, i64, i64, i64 ({ [0 x i8]*, i64 }*)* } { void ({ [0 x i8]*, i64 }*)* @_ZN4core3ptr18real_drop_in_place17hfc1d37c7a08f955dE, i64 16, i64 8, i64 ({ [0 x i8]*, i64 }*)* @"_ZN36_$LT$T$u20$as$u20$core..any..Any$GT$7type_id17h9dcc0a35da4df93dE" }, align 8
@vtable.f = private unnamed_addr constant { void ({}*)*, i64, i64, i64 ({}*)* } { void ({}*)* @_ZN4core3ptr18real_drop_in_place17h2b85e02e7b412fe3E, i64 0, i64 1, i64 ({}*)* @"_ZN36_$LT$T$u20$as$u20$core..any..Any$GT$7type_id17h5a19295821b6a5eeE" }, align 8
@42 = private unnamed_addr constant <{ [14 x i8] }> <{ [14 x i8] c"couldn't open " }>, align 1
@43 = private unnamed_addr constant <{ i8*, [8 x i8], i8*, [8 x i8] }> <{ i8* getelementptr inbounds (<{ [14 x i8] }>, <{ [14 x i8] }>* @42, i32 0, i32 0, i32 0), [8 x i8] c"\0E\00\00\00\00\00\00\00", i8* getelementptr inbounds (<{ [2 x i8] }>, <{ [2 x i8] }>* @22, i32 0, i32 0, i32 0), [8 x i8] c"\02\00\00\00\00\00\00\00" }>, align 8
@44 = private unnamed_addr constant <{ [7 x i8] }> <{ [7 x i8] c"main.rs" }>, align 1
@45 = private unnamed_addr constant <{ i8*, [16 x i8] }> <{ i8* getelementptr inbounds (<{ [7 x i8] }>, <{ [7 x i8] }>* @44, i32 0, i32 0, i32 0), [16 x i8] c"\07\00\00\00\00\00\00\00\13\00\00\00\15\00\00\00" }>, align 8
@46 = private unnamed_addr constant <{ [26 x i8] }> <{ [26 x i8] c"error while reading line: " }>, align 1
@47 = private unnamed_addr constant <{ i8*, [8 x i8] }> <{ i8* getelementptr inbounds (<{ [26 x i8] }>, <{ [26 x i8] }>* @46, i32 0, i32 0, i32 0), [8 x i8] c"\1A\00\00\00\00\00\00\00" }>, align 8
@48 = private unnamed_addr constant <{ i8*, [16 x i8] }> <{ i8* getelementptr inbounds (<{ [7 x i8] }>, <{ [7 x i8] }>* @44, i32 0, i32 0, i32 0), [16 x i8] c"\07\00\00\00\00\00\00\00\1B\00\00\00\19\00\00\00" }>, align 8
@49 = private unnamed_addr constant <{ [17 x i8] }> <{ [17 x i8] c"could not parse \22" }>, align 1
@50 = private unnamed_addr constant <{ [10 x i8] }> <{ [10 x i8] c"\22 on line " }>, align 1
@51 = private unnamed_addr constant <{ i8*, [8 x i8], i8*, [8 x i8], i8*, [8 x i8] }> <{ i8* getelementptr inbounds (<{ [17 x i8] }>, <{ [17 x i8] }>* @49, i32 0, i32 0, i32 0), [8 x i8] c"\11\00\00\00\00\00\00\00", i8* getelementptr inbounds (<{ [10 x i8] }>, <{ [10 x i8] }>* @50, i32 0, i32 0, i32 0), [8 x i8] c"\0A\00\00\00\00\00\00\00", i8* getelementptr inbounds (<{ [2 x i8] }>, <{ [2 x i8] }>* @22, i32 0, i32 0, i32 0), [8 x i8] c"\02\00\00\00\00\00\00\00" }>, align 8
@52 = private unnamed_addr constant <{ i8*, [16 x i8] }> <{ i8* getelementptr inbounds (<{ [7 x i8] }>, <{ [7 x i8] }>* @44, i32 0, i32 0, i32 0), [16 x i8] c"\07\00\00\00\00\00\00\00\1F\00\00\00\19\00\00\00" }>, align 8
@str.g = internal constant [7 x i8] c"main.rs"
@str.h = internal constant [33 x i8] c"attempt to subtract with overflow"
@panic_loc.i = private unnamed_addr constant { { [0 x i8]*, i64 }, { [0 x i8]*, i64 }, i32, i32 } { { [0 x i8]*, i64 } { [0 x i8]* bitcast ([33 x i8]* @str.h to [0 x i8]*), i64 33 }, { [0 x i8]*, i64 } { [0 x i8]* bitcast ([7 x i8]* @str.g to [0 x i8]*), i64 7 }, i32 45, i32 5 }, align 8
@53 = private unnamed_addr constant <{ [13 x i8] }> <{ [13 x i8] c"challenge1.in" }>, align 1
@54 = private unnamed_addr constant <{ [4 x i8] }> <{ [4 x i8] c"out " }>, align 1
@55 = private unnamed_addr constant <{ i8*, [8 x i8], i8*, [8 x i8] }> <{ i8* getelementptr inbounds (<{ [4 x i8] }>, <{ [4 x i8] }>* @54, i32 0, i32 0, i32 0), [8 x i8] c"\04\00\00\00\00\00\00\00", i8* getelementptr inbounds (<{ [1 x i8] }>, <{ [1 x i8] }>* @40, i32 0, i32 0, i32 0), [8 x i8] c"\01\00\00\00\00\00\00\00" }>, align 8
@56 = private unnamed_addr constant <{ [14 x i8] }> <{ [14 x i8] c"module_masses " }>, align 1
@57 = private unnamed_addr constant <{ i8*, [8 x i8], i8*, [8 x i8] }> <{ i8* getelementptr inbounds (<{ [14 x i8] }>, <{ [14 x i8] }>* @56, i32 0, i32 0, i32 0), [8 x i8] c"\0E\00\00\00\00\00\00\00", i8* getelementptr inbounds (<{ [1 x i8] }>, <{ [1 x i8] }>* @40, i32 0, i32 0, i32 0), [8 x i8] c"\01\00\00\00\00\00\00\00" }>, align 8
@panic_loc.j = private unnamed_addr constant { { [0 x i8]*, i64 }, { [0 x i8]*, i64 }, i32, i32 } { { [0 x i8]*, i64 } { [0 x i8]* bitcast ([28 x i8]* @str.3 to [0 x i8]*), i64 28 }, { [0 x i8]*, i64 } { [0 x i8]* bitcast ([7 x i8]* @str.g to [0 x i8]*), i64 7 }, i32 54, i32 37 }, align 8

; <core::slice::Iter<T> as core::iter::traits::double_ended::DoubleEndedIterator>::next_back
; Function Attrs: inlinehint nonlazybind uwtable
define internal align 1 dereferenceable_or_null(1) i8* @"_ZN100_$LT$core..slice..Iter$LT$T$GT$$u20$as$u20$core..iter..traits..double_ended..DoubleEndedIterator$GT$9next_back17h75ab70b66b86447eE"({ i8*, i8* }* align 8 dereferenceable(16) %self) unnamed_addr #0 {
start:
  %_0.i = alloca i8*, align 8
  %_0 = alloca i8*, align 8
  %0 = bitcast { i8*, i8* }* %self to i8**
  %1 = load i8*, i8** %0, align 8
; call core::ptr::<impl *const T>::is_null
  %2 = call zeroext i1 @"_ZN4core3ptr33_$LT$impl$u20$$BP$const$u20$T$GT$7is_null17h4e8ac3715e01649dE"(i8* %1)
  br label %bb1

bb1:                                              ; preds = %start
  %3 = xor i1 %2, true
  call void @llvm.assume(i1 %3)
  br label %bb2

bb2:                                              ; preds = %bb1
; call core::mem::size_of
  %4 = call i64 @_ZN4core3mem7size_of17h592060904b8a69ffE()
  br label %bb3

bb3:                                              ; preds = %bb2
  %5 = icmp ne i64 %4, 0
  br i1 %5, label %bb4, label %bb7

bb4:                                              ; preds = %bb3
  %6 = getelementptr inbounds { i8*, i8* }, { i8*, i8* }* %self, i32 0, i32 1
  %7 = load i8*, i8** %6, align 8
; call core::ptr::<impl *const T>::is_null
  %8 = call zeroext i1 @"_ZN4core3ptr33_$LT$impl$u20$$BP$const$u20$T$GT$7is_null17h4e8ac3715e01649dE"(i8* %7)
  br label %bb5

bb5:                                              ; preds = %bb4
  %9 = xor i1 %8, true
  call void @llvm.assume(i1 %9)
  br label %bb6

bb6:                                              ; preds = %bb5
  br label %bb7

bb7:                                              ; preds = %bb6, %bb3
  %10 = bitcast { i8*, i8* }* %self to i8**
  %11 = load i8*, i8** %10, align 8
  %12 = getelementptr inbounds { i8*, i8* }, { i8*, i8* }* %self, i32 0, i32 1
  %13 = load i8*, i8** %12, align 8
  %14 = icmp eq i8* %11, %13
  br i1 %14, label %bb8, label %bb9

bb8:                                              ; preds = %bb7
  %15 = bitcast i8** %_0 to {}**
  store {}* null, {}** %15, align 8
  br label %bb11

bb9:                                              ; preds = %bb7
; call core::mem::size_of
  %16 = call i64 @_ZN4core3mem7size_of17h592060904b8a69ffE()
  %17 = icmp eq i64 %16, 0
  br i1 %17, label %bb2.i, label %bb4.i

bb2.i:                                            ; preds = %bb9
  %18 = getelementptr inbounds { i8*, i8* }, { i8*, i8* }* %self, i32 0, i32 1
  %19 = load i8*, i8** %18, align 8
; call core::ptr::<impl *const T>::wrapping_offset
  %20 = call i8* @"_ZN4core3ptr33_$LT$impl$u20$$BP$const$u20$T$GT$15wrapping_offset17h3e4cb31731a67fbbE"(i8* %19, i64 -1)
  %21 = getelementptr inbounds { i8*, i8* }, { i8*, i8* }* %self, i32 0, i32 1
  store i8* %20, i8** %21, align 8
  %22 = bitcast { i8*, i8* }* %self to i8**
  %23 = load i8*, i8** %22, align 8
  store i8* %23, i8** %_0.i, align 8
  br label %"_ZN4core5slice13Iter$LT$T$GT$11pre_dec_end17hbe4e5aa317f47a61E.exit"

bb4.i:                                            ; preds = %bb9
  %24 = getelementptr inbounds { i8*, i8* }, { i8*, i8* }* %self, i32 0, i32 1
  %25 = load i8*, i8** %24, align 8
; call core::ptr::<impl *const T>::offset
  %26 = call i8* @"_ZN4core3ptr33_$LT$impl$u20$$BP$const$u20$T$GT$6offset17h7335ff09340acbc6E"(i8* %25, i64 -1)
  %27 = getelementptr inbounds { i8*, i8* }, { i8*, i8* }* %self, i32 0, i32 1
  store i8* %26, i8** %27, align 8
  %28 = getelementptr inbounds { i8*, i8* }, { i8*, i8* }* %self, i32 0, i32 1
  %29 = load i8*, i8** %28, align 8
  store i8* %29, i8** %_0.i, align 8
  br label %"_ZN4core5slice13Iter$LT$T$GT$11pre_dec_end17hbe4e5aa317f47a61E.exit"

"_ZN4core5slice13Iter$LT$T$GT$11pre_dec_end17hbe4e5aa317f47a61E.exit": ; preds = %bb2.i, %bb4.i
  %30 = load i8*, i8** %_0.i, align 8
  br label %bb10

bb10:                                             ; preds = %"_ZN4core5slice13Iter$LT$T$GT$11pre_dec_end17hbe4e5aa317f47a61E.exit"
  store i8* %30, i8** %_0, align 8
  br label %bb11

bb11:                                             ; preds = %bb10, %bb8
  %31 = load i8*, i8** %_0, align 8
  ret i8* %31
}

; <core::ptr::NonNull<T> as core::convert::From<core::ptr::Unique<T>>>::from
; Function Attrs: inlinehint nonlazybind uwtable
define internal nonnull i8* @"_ZN101_$LT$core..ptr..NonNull$LT$T$GT$$u20$as$u20$core..convert..From$LT$core..ptr..Unique$LT$T$GT$$GT$$GT$4from17h0826ac918d326c57E"(i8* nonnull %unique) unnamed_addr #0 {
start:
  %_0 = alloca i8*, align 8
  store i8* %unique, i8** %_0, align 8
  %0 = load i8*, i8** %_0, align 8, !nonnull !2
  ret i8* %0
}

; <core::ptr::NonNull<T> as core::convert::From<core::ptr::Unique<T>>>::from
; Function Attrs: inlinehint nonlazybind uwtable
define internal nonnull i32* @"_ZN101_$LT$core..ptr..NonNull$LT$T$GT$$u20$as$u20$core..convert..From$LT$core..ptr..Unique$LT$T$GT$$GT$$GT$4from17hbd7255b0bfb05237E"(i32* nonnull %unique) unnamed_addr #0 {
start:
  %_0 = alloca i32*, align 8
  store i32* %unique, i32** %_0, align 8
  %0 = load i32*, i32** %_0, align 8, !nonnull !2
  ret i32* %0
}

; <core::ptr::NonNull<T> as core::convert::From<core::ptr::Unique<T>>>::from
; Function Attrs: inlinehint nonlazybind uwtable
define internal { i8*, i64* } @"_ZN101_$LT$core..ptr..NonNull$LT$T$GT$$u20$as$u20$core..convert..From$LT$core..ptr..Unique$LT$T$GT$$GT$$GT$4from17hdbf0254b1c09d1e4E"(i8* nonnull %unique.0, i64* noalias readonly align 8 dereferenceable(24) %unique.1) unnamed_addr #0 {
start:
  %_0 = alloca { i8*, i64* }, align 8
  %0 = bitcast i8* %unique.0 to {}*
  %1 = bitcast i64* %unique.1 to [3 x i64]*
  %2 = bitcast { i8*, i64* }* %_0 to { {}*, [3 x i64]* }*
  %3 = getelementptr inbounds { {}*, [3 x i64]* }, { {}*, [3 x i64]* }* %2, i32 0, i32 0
  store {}* %0, {}** %3, align 8
  %4 = getelementptr inbounds { {}*, [3 x i64]* }, { {}*, [3 x i64]* }* %2, i32 0, i32 1
  store [3 x i64]* %1, [3 x i64]** %4, align 8
  %5 = getelementptr inbounds { i8*, i64* }, { i8*, i64* }* %_0, i32 0, i32 0
  %6 = load i8*, i8** %5, align 8, !nonnull !2
  %7 = getelementptr inbounds { i8*, i64* }, { i8*, i64* }* %_0, i32 0, i32 1
  %8 = load i64*, i64** %7, align 8, !nonnull !2
  %9 = insertvalue { i8*, i64* } undef, i8* %6, 0
  %10 = insertvalue { i8*, i64* } %9, i64* %8, 1
  ret { i8*, i64* } %10
}

; <core::ptr::Unique<T> as core::convert::From<core::ptr::NonNull<T>>>::from
; Function Attrs: nonlazybind uwtable
define internal nonnull i32* @"_ZN101_$LT$core..ptr..Unique$LT$T$GT$$u20$as$u20$core..convert..From$LT$core..ptr..NonNull$LT$T$GT$$GT$$GT$4from17h2df52738ef45a3c5E"(i32* nonnull %p) unnamed_addr #1 {
start:
  %_3 = alloca %"core::marker::PhantomData<u32>", align 1
  %_0 = alloca i32*, align 8
  store i32* %p, i32** %_0, align 8
  %0 = bitcast i32** %_0 to %"core::marker::PhantomData<u32>"*
  %1 = load i32*, i32** %_0, align 8, !nonnull !2
  ret i32* %1
}

; <core::ptr::Unique<T> as core::convert::From<core::ptr::NonNull<T>>>::from
; Function Attrs: nonlazybind uwtable
define internal nonnull i8* @"_ZN101_$LT$core..ptr..Unique$LT$T$GT$$u20$as$u20$core..convert..From$LT$core..ptr..NonNull$LT$T$GT$$GT$$GT$4from17h3c96e64036848989E"(i8* nonnull %p) unnamed_addr #1 {
start:
  %_3 = alloca %"core::marker::PhantomData<u8>", align 1
  %_0 = alloca i8*, align 8
  store i8* %p, i8** %_0, align 8
  %0 = bitcast i8** %_0 to %"core::marker::PhantomData<u8>"*
  %1 = load i8*, i8** %_0, align 8, !nonnull !2
  ret i8* %1
}

; <core::ops::range::RangeFrom<usize> as core::slice::SliceIndex<[T]>>::get_unchecked_mut
; Function Attrs: inlinehint nonlazybind uwtable
define internal { [0 x i8]*, i64 } @"_ZN103_$LT$core..ops..range..RangeFrom$LT$usize$GT$$u20$as$u20$core..slice..SliceIndex$LT$$u5b$T$u5d$$GT$$GT$17get_unchecked_mut17heee8884c5eb0e636E"(i64 %self, [0 x i8]* nonnull align 1 %slice.0, i64 %slice.1) unnamed_addr #0 {
start:
  %_5 = alloca { i64, i64 }, align 8
; call core::slice::<impl [T]>::len
  %0 = call i64 @"_ZN4core5slice29_$LT$impl$u20$$u5b$T$u5d$$GT$3len17h4ded11694fc2c466E"([0 x i8]* noalias nonnull readonly align 1 %slice.0, i64 %slice.1)
  br label %bb1

bb1:                                              ; preds = %start
  %1 = bitcast { i64, i64 }* %_5 to i64*
  store i64 %self, i64* %1, align 8
  %2 = getelementptr inbounds { i64, i64 }, { i64, i64 }* %_5, i32 0, i32 1
  store i64 %0, i64* %2, align 8
  %3 = getelementptr inbounds { i64, i64 }, { i64, i64 }* %_5, i32 0, i32 0
  %4 = load i64, i64* %3, align 8
  %5 = getelementptr inbounds { i64, i64 }, { i64, i64 }* %_5, i32 0, i32 1
  %6 = load i64, i64* %5, align 8
; call <core::ops::range::Range<usize> as core::slice::SliceIndex<[T]>>::get_unchecked_mut
  %7 = call { [0 x i8]*, i64 } @"_ZN99_$LT$core..ops..range..Range$LT$usize$GT$$u20$as$u20$core..slice..SliceIndex$LT$$u5b$T$u5d$$GT$$GT$17get_unchecked_mut17h66728948fc4911e3E"(i64 %4, i64 %6, [0 x i8]* nonnull align 1 %slice.0, i64 %slice.1)
  %8 = extractvalue { [0 x i8]*, i64 } %7, 0
  %9 = extractvalue { [0 x i8]*, i64 } %7, 1
  br label %bb2

bb2:                                              ; preds = %bb1
  %10 = insertvalue { [0 x i8]*, i64 } undef, [0 x i8]* %8, 0
  %11 = insertvalue { [0 x i8]*, i64 } %10, i64 %9, 1
  ret { [0 x i8]*, i64 } %11
}

; <core::ops::range::RangeFrom<usize> as core::slice::SliceIndex<[T]>>::index
; Function Attrs: inlinehint nonlazybind uwtable
define internal { [0 x i8]*, i64 } @"_ZN103_$LT$core..ops..range..RangeFrom$LT$usize$GT$$u20$as$u20$core..slice..SliceIndex$LT$$u5b$T$u5d$$GT$$GT$5index17hd3e7c413aabc6513E"(i64 %self, [0 x i8]* noalias nonnull readonly align 1 %slice.0, i64 %slice.1) unnamed_addr #0 {
start:
  %_4 = alloca { i64, i64 }, align 8
; call core::slice::<impl [T]>::len
  %0 = call i64 @"_ZN4core5slice29_$LT$impl$u20$$u5b$T$u5d$$GT$3len17h4ded11694fc2c466E"([0 x i8]* noalias nonnull readonly align 1 %slice.0, i64 %slice.1)
  br label %bb1

bb1:                                              ; preds = %start
  %1 = bitcast { i64, i64 }* %_4 to i64*
  store i64 %self, i64* %1, align 8
  %2 = getelementptr inbounds { i64, i64 }, { i64, i64 }* %_4, i32 0, i32 1
  store i64 %0, i64* %2, align 8
  %3 = getelementptr inbounds { i64, i64 }, { i64, i64 }* %_4, i32 0, i32 0
  %4 = load i64, i64* %3, align 8
  %5 = getelementptr inbounds { i64, i64 }, { i64, i64 }* %_4, i32 0, i32 1
  %6 = load i64, i64* %5, align 8
; call <core::ops::range::Range<usize> as core::slice::SliceIndex<[T]>>::index
  %7 = call { [0 x i8]*, i64 } @"_ZN99_$LT$core..ops..range..Range$LT$usize$GT$$u20$as$u20$core..slice..SliceIndex$LT$$u5b$T$u5d$$GT$$GT$5index17hb5c6615cd8cb2325E"(i64 %4, i64 %6, [0 x i8]* noalias nonnull readonly align 1 %slice.0, i64 %slice.1)
  %8 = extractvalue { [0 x i8]*, i64 } %7, 0
  %9 = extractvalue { [0 x i8]*, i64 } %7, 1
  br label %bb2

bb2:                                              ; preds = %bb1
  %10 = insertvalue { [0 x i8]*, i64 } undef, [0 x i8]* %8, 0
  %11 = insertvalue { [0 x i8]*, i64 } %10, i64 %9, 1
  ret { [0 x i8]*, i64 } %11
}

; <alloc::collections::CollectionAllocErr as core::convert::From<core::alloc::AllocErr>>::from
; Function Attrs: inlinehint nonlazybind uwtable
define internal zeroext i1 @"_ZN107_$LT$alloc..collections..CollectionAllocErr$u20$as$u20$core..convert..From$LT$core..alloc..AllocErr$GT$$GT$4from17h3f18c0e854ca29a2E"() unnamed_addr #0 {
start:
  %_0 = alloca i8, align 1
  store i8 1, i8* %_0, align 1
  %0 = load i8, i8* %_0, align 1, !range !3
  %1 = trunc i8 %0 to i1
  ret i1 %1
}

; <core::ops::range::RangeInclusive<usize> as core::slice::SliceIndex<[T]>>::index
; Function Attrs: inlinehint nonlazybind uwtable
define internal { [0 x i8]*, i64 } @"_ZN108_$LT$core..ops..range..RangeInclusive$LT$usize$GT$$u20$as$u20$core..slice..SliceIndex$LT$$u5b$T$u5d$$GT$$GT$5index17h997707a779265761E"(%"core::ops::range::RangeInclusive<usize>"* noalias nocapture dereferenceable(24) %self, [0 x i8]* noalias nonnull readonly align 1 %slice.0, i64 %slice.1) unnamed_addr #0 {
start:
  %_9 = alloca { i64, i64 }, align 8
; call core::ops::range::RangeInclusive<Idx>::end
  %0 = call align 8 dereferenceable(8) i64* @"_ZN4core3ops5range25RangeInclusive$LT$Idx$GT$3end17hea3f1cac3f2441e2E"(%"core::ops::range::RangeInclusive<usize>"* noalias readonly align 8 dereferenceable(24) %self)
  br label %bb1

bb1:                                              ; preds = %start
  %1 = load i64, i64* %0, align 8
; call core::num::<impl usize>::max_value
  %2 = call i64 @"_ZN4core3num23_$LT$impl$u20$usize$GT$9max_value17h099bf99af4ab8d76E"()
  br label %bb2

bb2:                                              ; preds = %bb1
  %3 = icmp eq i64 %1, %2
  br i1 %3, label %bb3, label %bb4

bb3:                                              ; preds = %bb2
; call core::slice::slice_index_overflow_fail
  call void @_ZN4core5slice25slice_index_overflow_fail17h47e2c0d97a57b1aeE()
  unreachable

bb4:                                              ; preds = %bb2
; call core::ops::range::RangeInclusive<Idx>::start
  %4 = call align 8 dereferenceable(8) i64* @"_ZN4core3ops5range25RangeInclusive$LT$Idx$GT$5start17h5c37d85b7fea163dE"(%"core::ops::range::RangeInclusive<usize>"* noalias readonly align 8 dereferenceable(24) %self)
  br label %bb5

bb5:                                              ; preds = %bb4
  %5 = load i64, i64* %4, align 8
; call core::ops::range::RangeInclusive<Idx>::end
  %6 = call align 8 dereferenceable(8) i64* @"_ZN4core3ops5range25RangeInclusive$LT$Idx$GT$3end17hea3f1cac3f2441e2E"(%"core::ops::range::RangeInclusive<usize>"* noalias readonly align 8 dereferenceable(24) %self)
  br label %bb6

bb6:                                              ; preds = %bb5
; call <&usize as core::ops::arith::Add<usize>>::add
  %7 = call i64 @"_ZN64_$LT$$RF$usize$u20$as$u20$core..ops..arith..Add$LT$usize$GT$$GT$3add17hae16d86e316054a7E"(i64* noalias readonly align 8 dereferenceable(8) %6, i64 1)
  br label %bb7

bb7:                                              ; preds = %bb6
  %8 = bitcast { i64, i64 }* %_9 to i64*
  store i64 %5, i64* %8, align 8
  %9 = getelementptr inbounds { i64, i64 }, { i64, i64 }* %_9, i32 0, i32 1
  store i64 %7, i64* %9, align 8
  %10 = getelementptr inbounds { i64, i64 }, { i64, i64 }* %_9, i32 0, i32 0
  %11 = load i64, i64* %10, align 8
  %12 = getelementptr inbounds { i64, i64 }, { i64, i64 }* %_9, i32 0, i32 1
  %13 = load i64, i64* %12, align 8
; call <core::ops::range::Range<usize> as core::slice::SliceIndex<[T]>>::index
  %14 = call { [0 x i8]*, i64 } @"_ZN99_$LT$core..ops..range..Range$LT$usize$GT$$u20$as$u20$core..slice..SliceIndex$LT$$u5b$T$u5d$$GT$$GT$5index17hb5c6615cd8cb2325E"(i64 %11, i64 %13, [0 x i8]* noalias nonnull readonly align 1 %slice.0, i64 %slice.1)
  %15 = extractvalue { [0 x i8]*, i64 } %14, 0
  %16 = extractvalue { [0 x i8]*, i64 } %14, 1
  br label %bb8

bb8:                                              ; preds = %bb7
  %17 = insertvalue { [0 x i8]*, i64 } undef, [0 x i8]* %15, 0
  %18 = insertvalue { [0 x i8]*, i64 } %17, i64 %16, 1
  ret { [0 x i8]*, i64 } %18
}

; <alloc::vec::Vec<T> as alloc::vec::SpecExtend<&T,core::slice::Iter<T>>>::spec_extend
; Function Attrs: nonlazybind uwtable
define internal void @"_ZN109_$LT$alloc..vec..Vec$LT$T$GT$$u20$as$u20$alloc..vec..SpecExtend$LT$$RF$T$C$core..slice..Iter$LT$T$GT$$GT$$GT$11spec_extend17hb85c7b77fafe4003E"(%"alloc::vec::Vec<u8>"* align 8 dereferenceable(24) %self, i8*, i8*) unnamed_addr #1 {
start:
  %_23 = alloca i64, align 8
  %iterator = alloca { i8*, i8* }, align 8
  %2 = getelementptr inbounds { i8*, i8* }, { i8*, i8* }* %iterator, i32 0, i32 0
  store i8* %0, i8** %2, align 8
  %3 = getelementptr inbounds { i8*, i8* }, { i8*, i8* }* %iterator, i32 0, i32 1
  store i8* %1, i8** %3, align 8
; call core::slice::Iter<T>::as_slice
  %4 = call { [0 x i8]*, i64 } @"_ZN4core5slice13Iter$LT$T$GT$8as_slice17h19819ef1a03a152dE"({ i8*, i8* }* noalias readonly align 8 dereferenceable(16) %iterator)
  %5 = extractvalue { [0 x i8]*, i64 } %4, 0
  %6 = extractvalue { [0 x i8]*, i64 } %4, 1
  br label %bb1

bb1:                                              ; preds = %start
; call core::slice::<impl [T]>::len
  %7 = call i64 @"_ZN4core5slice29_$LT$impl$u20$$u5b$T$u5d$$GT$3len17h4ded11694fc2c466E"([0 x i8]* noalias nonnull readonly align 1 %5, i64 %6)
  br label %bb2

bb2:                                              ; preds = %bb1
; call alloc::vec::Vec<T>::reserve
  call void @"_ZN5alloc3vec12Vec$LT$T$GT$7reserve17had008904b3efcb65E"(%"alloc::vec::Vec<u8>"* align 8 dereferenceable(24) %self, i64 %7)
  br label %bb3

bb3:                                              ; preds = %bb2
; call alloc::vec::Vec<T>::len
  %8 = call i64 @"_ZN5alloc3vec12Vec$LT$T$GT$3len17h751dc25b11efb097E"(%"alloc::vec::Vec<u8>"* noalias readonly align 8 dereferenceable(24) %self)
  br label %bb4

bb4:                                              ; preds = %bb3
; call core::slice::<impl [T]>::len
  %9 = call i64 @"_ZN4core5slice29_$LT$impl$u20$$u5b$T$u5d$$GT$3len17h4ded11694fc2c466E"([0 x i8]* noalias nonnull readonly align 1 %5, i64 %6)
  br label %bb5

bb5:                                              ; preds = %bb4
  %10 = add i64 %8, %9
; call alloc::vec::Vec<T>::set_len
  call void @"_ZN5alloc3vec12Vec$LT$T$GT$7set_len17hae9f683f451614ffE"(%"alloc::vec::Vec<u8>"* align 8 dereferenceable(24) %self, i64 %10)
  br label %bb6

bb6:                                              ; preds = %bb5
; call <alloc::vec::Vec<T> as core::ops::deref::DerefMut>::deref_mut
  %11 = call { [0 x i8]*, i64 } @"_ZN71_$LT$alloc..vec..Vec$LT$T$GT$$u20$as$u20$core..ops..deref..DerefMut$GT$9deref_mut17h97ea3c9aa1c6148dE"(%"alloc::vec::Vec<u8>"* align 8 dereferenceable(24) %self)
  %12 = extractvalue { [0 x i8]*, i64 } %11, 0
  %13 = extractvalue { [0 x i8]*, i64 } %11, 1
  br label %bb7

bb7:                                              ; preds = %bb6
  store i64 %8, i64* %_23, align 8
  %14 = load i64, i64* %_23, align 8
; call core::slice::<impl [T]>::get_unchecked_mut
  %15 = call { [0 x i8]*, i64 } @"_ZN4core5slice29_$LT$impl$u20$$u5b$T$u5d$$GT$17get_unchecked_mut17hbe8447c9e7683e88E"([0 x i8]* nonnull align 1 %12, i64 %13, i64 %14)
  %16 = extractvalue { [0 x i8]*, i64 } %15, 0
  %17 = extractvalue { [0 x i8]*, i64 } %15, 1
  br label %bb8

bb8:                                              ; preds = %bb7
; call core::slice::<impl [T]>::copy_from_slice
  call void @"_ZN4core5slice29_$LT$impl$u20$$u5b$T$u5d$$GT$15copy_from_slice17h8464ab3c04eea6adE"([0 x i8]* nonnull align 1 %16, i64 %17, [0 x i8]* noalias nonnull readonly align 1 %5, i64 %6)
  br label %bb9

bb9:                                              ; preds = %bb8
  ret void
}

; <core::ops::range::RangeToInclusive<usize> as core::slice::SliceIndex<[T]>>::index
; Function Attrs: inlinehint nonlazybind uwtable
define internal { [0 x i8]*, i64 } @"_ZN110_$LT$core..ops..range..RangeToInclusive$LT$usize$GT$$u20$as$u20$core..slice..SliceIndex$LT$$u5b$T$u5d$$GT$$GT$5index17h8a2895c165f83406E"(i64 %self, [0 x i8]* noalias nonnull readonly align 1 %slice.0, i64 %slice.1) unnamed_addr #0 {
start:
  %_4 = alloca %"core::ops::range::RangeInclusive<usize>", align 8
; call core::ops::range::RangeInclusive<Idx>::new
  call void @"_ZN4core3ops5range25RangeInclusive$LT$Idx$GT$3new17h5eff3040b4fbc566E"(%"core::ops::range::RangeInclusive<usize>"* noalias nocapture sret dereferenceable(24) %_4, i64 0, i64 %self)
  br label %bb1

bb1:                                              ; preds = %start
; call <core::ops::range::RangeInclusive<usize> as core::slice::SliceIndex<[T]>>::index
  %0 = call { [0 x i8]*, i64 } @"_ZN108_$LT$core..ops..range..RangeInclusive$LT$usize$GT$$u20$as$u20$core..slice..SliceIndex$LT$$u5b$T$u5d$$GT$$GT$5index17h997707a779265761E"(%"core::ops::range::RangeInclusive<usize>"* noalias nocapture dereferenceable(24) %_4, [0 x i8]* noalias nonnull readonly align 1 %slice.0, i64 %slice.1)
  %1 = extractvalue { [0 x i8]*, i64 } %0, 0
  %2 = extractvalue { [0 x i8]*, i64 } %0, 1
  br label %bb2

bb2:                                              ; preds = %bb1
  %3 = insertvalue { [0 x i8]*, i64 } undef, [0 x i8]* %1, 0
  %4 = insertvalue { [0 x i8]*, i64 } %3, i64 %2, 1
  ret { [0 x i8]*, i64 } %4
}

; <T as core::any::Any>::type_id
; Function Attrs: nonlazybind uwtable
define internal i64 @"_ZN36_$LT$T$u20$as$u20$core..any..Any$GT$7type_id17h5a19295821b6a5eeE"({}* noalias nonnull readonly align 1 %self) unnamed_addr #1 {
start:
; call core::any::TypeId::of
  %0 = call i64 @_ZN4core3any6TypeId2of17h302339bb857f123bE()
  br label %bb1

bb1:                                              ; preds = %start
  ret i64 %0
}

; <T as core::any::Any>::type_id
; Function Attrs: nonlazybind uwtable
define internal i64 @"_ZN36_$LT$T$u20$as$u20$core..any..Any$GT$7type_id17h9dcc0a35da4df93dE"({ [0 x i8]*, i64 }* noalias readonly align 8 dereferenceable(16) %self) unnamed_addr #1 {
start:
; call core::any::TypeId::of
  %0 = call i64 @_ZN4core3any6TypeId2of17ha33c34132dfab004E()
  br label %bb1

bb1:                                              ; preds = %start
  ret i64 %0
}

; std::fs::OpenOptions::open
; Function Attrs: nonlazybind uwtable
define internal void @_ZN3std2fs11OpenOptions4open17hc93f529ccf9f9cdfE(%"core::result::Result<std::fs::File, std::io::error::Error>"* noalias nocapture sret dereferenceable(24), %"std::fs::OpenOptions"* noalias readonly align 4 dereferenceable(16) %self, %"std::path::Path"* noalias nonnull readonly align 1, i64) unnamed_addr #1 personality i32 (i32, i32, i64, %"unwind::libunwind::_Unwind_Exception"*, %"unwind::libunwind::_Unwind_Context"*)* @rust_eh_personality {
start:
  %personalityslot = alloca { i8*, i32 }, align 8
  %path = alloca { %"std::path::Path"*, i64 }, align 8
  %3 = getelementptr inbounds { %"std::path::Path"*, i64 }, { %"std::path::Path"*, i64 }* %path, i32 0, i32 0
  store %"std::path::Path"* %1, %"std::path::Path"** %3, align 8
  %4 = getelementptr inbounds { %"std::path::Path"*, i64 }, { %"std::path::Path"*, i64 }* %path, i32 0, i32 1
  store i64 %2, i64* %4, align 8
; invoke <&T as core::convert::AsRef<U>>::as_ref
  %5 = invoke { %"std::path::Path"*, i64 } @"_ZN55_$LT$$RF$T$u20$as$u20$core..convert..AsRef$LT$U$GT$$GT$6as_ref17h8f919fdacbd1a827E"({ %"std::path::Path"*, i64 }* noalias readonly align 8 dereferenceable(16) %path)
          to label %bb2 unwind label %cleanup

bb1:                                              ; preds = %bb3
  %6 = bitcast { i8*, i32 }* %personalityslot to i8**
  %7 = load i8*, i8** %6, align 8
  %8 = getelementptr inbounds { i8*, i32 }, { i8*, i32 }* %personalityslot, i32 0, i32 1
  %9 = load i32, i32* %8, align 8
  %10 = insertvalue { i8*, i32 } undef, i8* %7, 0
  %11 = insertvalue { i8*, i32 } %10, i32 %9, 1
  resume { i8*, i32 } %11

bb2:                                              ; preds = %start
  %12 = extractvalue { %"std::path::Path"*, i64 } %5, 0
  %13 = extractvalue { %"std::path::Path"*, i64 } %5, 1
; invoke std::fs::OpenOptions::_open
  invoke void @_ZN3std2fs11OpenOptions5_open17h65996290dbdd0304E(%"core::result::Result<std::fs::File, std::io::error::Error>"* noalias nocapture sret dereferenceable(24) %0, %"std::fs::OpenOptions"* noalias readonly align 4 dereferenceable(16) %self, %"std::path::Path"* noalias nonnull readonly align 1 %12, i64 %13)
          to label %bb4 unwind label %cleanup

bb3:                                              ; preds = %cleanup
  br label %bb1

bb4:                                              ; preds = %bb2
  br label %bb5

bb5:                                              ; preds = %bb4
  ret void

cleanup:                                          ; preds = %bb2, %start
  %14 = landingpad { i8*, i32 }
          cleanup
  %15 = extractvalue { i8*, i32 } %14, 0
  %16 = extractvalue { i8*, i32 } %14, 1
  %17 = getelementptr inbounds { i8*, i32 }, { i8*, i32 }* %personalityslot, i32 0, i32 0
  store i8* %15, i8** %17, align 8
  %18 = getelementptr inbounds { i8*, i32 }, { i8*, i32 }* %personalityslot, i32 0, i32 1
  store i32 %16, i32* %18, align 8
  br label %bb3
}

; std::fs::File::open
; Function Attrs: nonlazybind uwtable
define internal void @_ZN3std2fs4File4open17h6d437a006f2c1e5aE(%"core::result::Result<std::fs::File, std::io::error::Error>"* noalias nocapture sret dereferenceable(24), { %"std::path::Path"*, i64 }* noalias readonly align 8 dereferenceable(16)) unnamed_addr #1 personality i32 (i32, i32, i64, %"unwind::libunwind::_Unwind_Exception"*, %"unwind::libunwind::_Unwind_Context"*)* @rust_eh_personality {
start:
  %personalityslot = alloca { i8*, i32 }, align 8
  %_5 = alloca %"std::fs::OpenOptions", align 4
  %path = alloca { %"std::path::Path"*, i64 }*, align 8
  store { %"std::path::Path"*, i64 }* %1, { %"std::path::Path"*, i64 }** %path, align 8
; invoke std::fs::OpenOptions::new
  invoke void @_ZN3std2fs11OpenOptions3new17hbba6b28e76992d75E(%"std::fs::OpenOptions"* noalias nocapture sret dereferenceable(16) %_5)
          to label %bb2 unwind label %cleanup

bb1:                                              ; preds = %bb3
  %2 = bitcast { i8*, i32 }* %personalityslot to i8**
  %3 = load i8*, i8** %2, align 8
  %4 = getelementptr inbounds { i8*, i32 }, { i8*, i32 }* %personalityslot, i32 0, i32 1
  %5 = load i32, i32* %4, align 8
  %6 = insertvalue { i8*, i32 } undef, i8* %3, 0
  %7 = insertvalue { i8*, i32 } %6, i32 %5, 1
  resume { i8*, i32 } %7

bb2:                                              ; preds = %start
; invoke std::fs::OpenOptions::read
  %8 = invoke align 4 dereferenceable(16) %"std::fs::OpenOptions"* @_ZN3std2fs11OpenOptions4read17h401e9f795c3884e9E(%"std::fs::OpenOptions"* align 4 dereferenceable(16) %_5, i1 zeroext true)
          to label %bb4 unwind label %cleanup

bb3:                                              ; preds = %cleanup
  br label %bb1

bb4:                                              ; preds = %bb2
; invoke <&T as core::convert::AsRef<U>>::as_ref
  %9 = invoke { %"std::path::Path"*, i64 } @"_ZN55_$LT$$RF$T$u20$as$u20$core..convert..AsRef$LT$U$GT$$GT$6as_ref17h9a9dd7c95ceee6a4E"({ %"std::path::Path"*, i64 }** noalias readonly align 8 dereferenceable(8) %path)
          to label %bb5 unwind label %cleanup

bb5:                                              ; preds = %bb4
  %10 = extractvalue { %"std::path::Path"*, i64 } %9, 0
  %11 = extractvalue { %"std::path::Path"*, i64 } %9, 1
; invoke std::fs::OpenOptions::open
  invoke void @_ZN3std2fs11OpenOptions4open17hc93f529ccf9f9cdfE(%"core::result::Result<std::fs::File, std::io::error::Error>"* noalias nocapture sret dereferenceable(24) %0, %"std::fs::OpenOptions"* noalias readonly align 4 dereferenceable(16) %8, %"std::path::Path"* noalias nonnull readonly align 1 %10, i64 %11)
          to label %bb6 unwind label %cleanup

bb6:                                              ; preds = %bb5
  br label %bb7

bb7:                                              ; preds = %bb6
  ret void

cleanup:                                          ; preds = %bb5, %bb4, %bb2, %start
  %12 = landingpad { i8*, i32 }
          cleanup
  %13 = extractvalue { i8*, i32 } %12, 0
  %14 = extractvalue { i8*, i32 } %12, 1
  %15 = getelementptr inbounds { i8*, i32 }, { i8*, i32 }* %personalityslot, i32 0, i32 0
  store i8* %13, i8** %15, align 8
  %16 = getelementptr inbounds { i8*, i32 }, { i8*, i32 }* %personalityslot, i32 0, i32 1
  store i32 %14, i32* %16, align 8
  br label %bb3
}

; std::io::read_until
; Function Attrs: nonlazybind uwtable
define internal void @_ZN3std2io10read_until17h472b46f7df9cea60E(%"core::result::Result<usize, std::io::error::Error>"* noalias nocapture sret dereferenceable(24), %"std::io::buffered::BufReader<std::fs::File>"* align 8 dereferenceable(40) %r, i8 %delim, %"alloc::vec::Vec<u8>"* align 8 dereferenceable(24) %buf) unnamed_addr #1 personality i32 (i32, i32, i64, %"unwind::libunwind::_Unwind_Exception"*, %"unwind::libunwind::_Unwind_Context"*)* @rust_eh_personality {
start:
  %personalityslot = alloca { i8*, i32 }, align 8
  %_46 = alloca i8, align 1
  %_33 = alloca i64, align 8
  %_22 = alloca { i64, i64 }, align 8
  %_21 = alloca %"std::io::error::Error", align 8
  %e1 = alloca %"std::io::error::Error", align 8
  %_17 = alloca i8, align 1
  %e = alloca %"std::io::error::Error"*, align 8
  %_9 = alloca %"core::result::Result<&[u8], std::io::error::Error>", align 8
  %_7 = alloca { i8, i64 }, align 8
  %read = alloca i64, align 8
  store i64 0, i64* %read, align 8
  br label %bb2

bb1:                                              ; preds = %bb10
  %1 = bitcast { i8*, i32 }* %personalityslot to i8**
  %2 = load i8*, i8** %1, align 8
  %3 = getelementptr inbounds { i8*, i32 }, { i8*, i32 }* %personalityslot, i32 0, i32 1
  %4 = load i32, i32* %3, align 8
  %5 = insertvalue { i8*, i32 } undef, i8* %2, 0
  %6 = insertvalue { i8*, i32 } %5, i32 %4, 1
  resume { i8*, i32 } %6

bb2:                                              ; preds = %bb28, %bb12, %start
; call <std::io::buffered::BufReader<R> as std::io::BufRead>::fill_buf
  call void @"_ZN74_$LT$std..io..buffered..BufReader$LT$R$GT$$u20$as$u20$std..io..BufRead$GT$8fill_buf17hd75ac46b593c6f92E"(%"core::result::Result<&[u8], std::io::error::Error>"* noalias nocapture sret dereferenceable(24) %_9, %"std::io::buffered::BufReader<std::fs::File>"* align 8 dereferenceable(40) %r)
  br label %bb3

bb3:                                              ; preds = %bb2
  %7 = bitcast %"core::result::Result<&[u8], std::io::error::Error>"* %_9 to i64*
  %8 = load i64, i64* %7, align 8, !range !4
  switch i64 %8, label %bb5 [
    i64 0, label %bb6
    i64 1, label %bb8
  ]

bb4:                                              ; preds = %bb11
  %9 = bitcast %"core::result::Result<&[u8], std::io::error::Error>"* %_9 to %"core::result::Result<&[u8], std::io::error::Error>::Err"*
  %10 = getelementptr inbounds %"core::result::Result<&[u8], std::io::error::Error>::Err", %"core::result::Result<&[u8], std::io::error::Error>::Err"* %9, i32 0, i32 1
  %11 = bitcast %"std::io::error::Error"* %e1 to i8*
  %12 = bitcast %"std::io::error::Error"* %10 to i8*
  call void @llvm.memcpy.p0i8.p0i8.i64(i8* align 8 %11, i8* align 8 %12, i64 16, i1 false)
  %13 = bitcast %"std::io::error::Error"* %_21 to i8*
  %14 = bitcast %"std::io::error::Error"* %e1 to i8*
  call void @llvm.memcpy.p0i8.p0i8.i64(i8* align 8 %13, i8* align 8 %14, i64 16, i1 false)
  %15 = bitcast %"core::result::Result<usize, std::io::error::Error>"* %0 to %"core::result::Result<usize, std::io::error::Error>::Err"*
  %16 = getelementptr inbounds %"core::result::Result<usize, std::io::error::Error>::Err", %"core::result::Result<usize, std::io::error::Error>::Err"* %15, i32 0, i32 1
  %17 = bitcast %"std::io::error::Error"* %16 to i8*
  %18 = bitcast %"std::io::error::Error"* %_21 to i8*
  call void @llvm.memcpy.p0i8.p0i8.i64(i8* align 8 %17, i8* align 8 %18, i64 16, i1 false)
  %19 = bitcast %"core::result::Result<usize, std::io::error::Error>"* %0 to i64*
  store i64 1, i64* %19, align 8
  %20 = bitcast %"core::result::Result<&[u8], std::io::error::Error>"* %_9 to i64*
  %21 = load i64, i64* %20, align 8, !range !4
  %22 = icmp eq i64 %21, 1
  br i1 %22, label %bb29, label %bb30

bb5:                                              ; preds = %bb15, %bb3
  unreachable

bb6:                                              ; preds = %bb3
  %23 = bitcast %"core::result::Result<&[u8], std::io::error::Error>"* %_9 to %"core::result::Result<&[u8], std::io::error::Error>::Ok"*
  %24 = getelementptr inbounds %"core::result::Result<&[u8], std::io::error::Error>::Ok", %"core::result::Result<&[u8], std::io::error::Error>::Ok"* %23, i32 0, i32 1
  %25 = getelementptr inbounds { [0 x i8]*, i64 }, { [0 x i8]*, i64 }* %24, i32 0, i32 0
  %26 = load [0 x i8]*, [0 x i8]** %25, align 8, !nonnull !2
  %27 = getelementptr inbounds { [0 x i8]*, i64 }, { [0 x i8]*, i64 }* %24, i32 0, i32 1
  %28 = load i64, i64* %27, align 8
; call core::ptr::real_drop_in_place
  call void @_ZN4core3ptr18real_drop_in_place17h195fb2a9f44cf582E(%"core::result::Result<&[u8], std::io::error::Error>"* align 8 dereferenceable(24) %_9)
  br label %bb14

bb7:                                              ; preds = %bb11
; call core::ptr::real_drop_in_place
  call void @_ZN4core3ptr18real_drop_in_place17h195fb2a9f44cf582E(%"core::result::Result<&[u8], std::io::error::Error>"* align 8 dereferenceable(24) %_9)
  br label %bb12

bb8:                                              ; preds = %bb3
  %29 = bitcast %"core::result::Result<&[u8], std::io::error::Error>"* %_9 to %"core::result::Result<&[u8], std::io::error::Error>::Err"*
  %30 = getelementptr inbounds %"core::result::Result<&[u8], std::io::error::Error>::Err", %"core::result::Result<&[u8], std::io::error::Error>::Err"* %29, i32 0, i32 1
  store %"std::io::error::Error"* %30, %"std::io::error::Error"** %e, align 8
  %31 = load %"std::io::error::Error"*, %"std::io::error::Error"** %e, align 8, !nonnull !2
; invoke std::io::error::Error::kind
  %32 = invoke i8 @_ZN3std2io5error5Error4kind17hd7469582a743f280E(%"std::io::error::Error"* noalias readonly align 8 dereferenceable(16) %31)
          to label %bb9 unwind label %cleanup, !range !5

bb9:                                              ; preds = %bb8
  store i8 %32, i8* %_17, align 1
; invoke <std::io::error::ErrorKind as core::cmp::PartialEq>::eq
  %33 = invoke zeroext i1 @"_ZN66_$LT$std..io..error..ErrorKind$u20$as$u20$core..cmp..PartialEq$GT$2eq17h82255b684a237d85E"(i8* noalias readonly align 1 dereferenceable(1) %_17, i8* noalias readonly align 1 dereferenceable(1) getelementptr inbounds (<{ [1 x i8] }>, <{ [1 x i8] }>* @0, i32 0, i32 0, i32 0))
          to label %bb11 unwind label %cleanup

bb10:                                             ; preds = %cleanup
; call core::ptr::real_drop_in_place
  call void @_ZN4core3ptr18real_drop_in_place17h195fb2a9f44cf582E(%"core::result::Result<&[u8], std::io::error::Error>"* align 8 dereferenceable(24) %_9) #12
  br label %bb1

bb11:                                             ; preds = %bb9
  br i1 %33, label %bb7, label %bb4

bb12:                                             ; preds = %bb7
  br label %bb2

bb13:                                             ; preds = %bb27, %bb29
  ret void

bb14:                                             ; preds = %bb6
; call std::memchr::memchr
  %34 = call { i64, i64 } @_ZN3std6memchr6memchr17h3239efdc91a30e91E(i8 %delim, [0 x i8]* noalias nonnull readonly align 1 %26, i64 %28)
  store { i64, i64 } %34, { i64, i64 }* %_22, align 8
  br label %bb15

bb15:                                             ; preds = %bb14
  %35 = bitcast { i64, i64 }* %_22 to i64*
  %36 = load i64, i64* %35, align 8, !range !4
  switch i64 %36, label %bb5 [
    i64 0, label %bb19
    i64 1, label %bb16
  ]

bb16:                                             ; preds = %bb15
  %37 = bitcast { i64, i64 }* %_22 to %"core::option::Option<usize>::Some"*
  %38 = getelementptr inbounds %"core::option::Option<usize>::Some", %"core::option::Option<usize>::Some"* %37, i32 0, i32 1
  %39 = load i64, i64* %38, align 8
  store i64 %39, i64* %_33, align 8
  %40 = load i64, i64* %_33, align 8
; call core::slice::<impl core::ops::index::Index<I> for [T]>::index
  %41 = call { [0 x i8]*, i64 } @"_ZN4core5slice74_$LT$impl$u20$core..ops..index..Index$LT$I$GT$$u20$for$u20$$u5b$T$u5d$$GT$5index17h633111c86077452eE"([0 x i8]* noalias nonnull readonly align 1 %26, i64 %28, i64 %40)
  %42 = extractvalue { [0 x i8]*, i64 } %41, 0
  %43 = extractvalue { [0 x i8]*, i64 } %41, 1
  br label %bb17

bb17:                                             ; preds = %bb16
; call alloc::vec::Vec<T>::extend_from_slice
  call void @"_ZN5alloc3vec12Vec$LT$T$GT$17extend_from_slice17h06dcb4bb1d883cf1E"(%"alloc::vec::Vec<u8>"* align 8 dereferenceable(24) %buf, [0 x i8]* noalias nonnull readonly align 1 %42, i64 %43)
  br label %bb18

bb18:                                             ; preds = %bb17
  %44 = add i64 %39, 1
  %45 = bitcast { i8, i64 }* %_7 to i8*
  store i8 1, i8* %45, align 8
  %46 = getelementptr inbounds { i8, i64 }, { i8, i64 }* %_7, i32 0, i32 1
  store i64 %44, i64* %46, align 8
  br label %bb22

bb19:                                             ; preds = %bb15
; call alloc::vec::Vec<T>::extend_from_slice
  call void @"_ZN5alloc3vec12Vec$LT$T$GT$17extend_from_slice17h06dcb4bb1d883cf1E"(%"alloc::vec::Vec<u8>"* align 8 dereferenceable(24) %buf, [0 x i8]* noalias nonnull readonly align 1 %26, i64 %28)
  br label %bb20

bb20:                                             ; preds = %bb19
; call core::slice::<impl [T]>::len
  %47 = call i64 @"_ZN4core5slice29_$LT$impl$u20$$u5b$T$u5d$$GT$3len17h4ded11694fc2c466E"([0 x i8]* noalias nonnull readonly align 1 %26, i64 %28)
  br label %bb21

bb21:                                             ; preds = %bb20
  %48 = bitcast { i8, i64 }* %_7 to i8*
  store i8 0, i8* %48, align 8
  %49 = getelementptr inbounds { i8, i64 }, { i8, i64 }* %_7, i32 0, i32 1
  store i64 %47, i64* %49, align 8
  br label %bb22

bb22:                                             ; preds = %bb21, %bb18
  %50 = bitcast { i8, i64 }* %_7 to i8*
  %51 = load i8, i8* %50, align 8, !range !3
  %52 = trunc i8 %51 to i1
  %53 = getelementptr inbounds { i8, i64 }, { i8, i64 }* %_7, i32 0, i32 1
  %54 = load i64, i64* %53, align 8
; call <std::io::buffered::BufReader<R> as std::io::BufRead>::consume
  call void @"_ZN74_$LT$std..io..buffered..BufReader$LT$R$GT$$u20$as$u20$std..io..BufRead$GT$7consume17h905a27729d6c3c2fE"(%"std::io::buffered::BufReader<std::fs::File>"* align 8 dereferenceable(40) %r, i64 %54)
  br label %bb23

bb23:                                             ; preds = %bb22
  %55 = load i64, i64* %read, align 8
  %56 = add i64 %55, %54
  store i64 %56, i64* %read, align 8
  br i1 %52, label %bb24, label %bb25

bb24:                                             ; preds = %bb23
  store i8 1, i8* %_46, align 1
  br label %bb26

bb25:                                             ; preds = %bb23
  %57 = icmp eq i64 %54, 0
  %58 = zext i1 %57 to i8
  store i8 %58, i8* %_46, align 1
  br label %bb26

bb26:                                             ; preds = %bb25, %bb24
  %59 = load i8, i8* %_46, align 1, !range !3
  %60 = trunc i8 %59 to i1
  br i1 %60, label %bb27, label %bb28

bb27:                                             ; preds = %bb26
  %61 = load i64, i64* %read, align 8
  %62 = bitcast %"core::result::Result<usize, std::io::error::Error>"* %0 to %"core::result::Result<usize, std::io::error::Error>::Ok"*
  %63 = getelementptr inbounds %"core::result::Result<usize, std::io::error::Error>::Ok", %"core::result::Result<usize, std::io::error::Error>::Ok"* %62, i32 0, i32 1
  store i64 %61, i64* %63, align 8
  %64 = bitcast %"core::result::Result<usize, std::io::error::Error>"* %0 to i64*
  store i64 0, i64* %64, align 8
  br label %bb13

bb28:                                             ; preds = %bb26
  br label %bb2

bb29:                                             ; preds = %bb30, %bb4
  br label %bb13

bb30:                                             ; preds = %bb4
; call core::ptr::real_drop_in_place
  call void @_ZN4core3ptr18real_drop_in_place17h195fb2a9f44cf582E(%"core::result::Result<&[u8], std::io::error::Error>"* align 8 dereferenceable(24) %_9)
  br label %bb29

cleanup:                                          ; preds = %bb9, %bb8
  %65 = landingpad { i8*, i32 }
          cleanup
  %66 = extractvalue { i8*, i32 } %65, 0
  %67 = extractvalue { i8*, i32 } %65, 1
  %68 = getelementptr inbounds { i8*, i32 }, { i8*, i32 }* %personalityslot, i32 0, i32 0
  store i8* %66, i8** %68, align 8
  %69 = getelementptr inbounds { i8*, i32 }, { i8*, i32 }* %personalityslot, i32 0, i32 1
  store i32 %67, i32* %69, align 8
  br label %bb10
}

; std::io::Initializer::initialize
; Function Attrs: inlinehint nonlazybind uwtable
define internal void @_ZN3std2io11Initializer10initialize17h27bb4949aa91ec61E(i8* noalias readonly align 1 dereferenceable(1) %self, [0 x i8]* nonnull align 1 %buf.0, i64 %buf.1) unnamed_addr #0 {
start:
; call std::io::Initializer::should_initialize
  %0 = call zeroext i1 @_ZN3std2io11Initializer17should_initialize17ha4c455633fbaf18cE(i8* noalias readonly align 1 dereferenceable(1) %self)
  br label %bb1

bb1:                                              ; preds = %start
  br i1 %0, label %bb2, label %bb6

bb2:                                              ; preds = %bb1
; call core::slice::<impl [T]>::as_mut_ptr
  %1 = call i8* @"_ZN4core5slice29_$LT$impl$u20$$u5b$T$u5d$$GT$10as_mut_ptr17hf9735092727bee5cE"([0 x i8]* nonnull align 1 %buf.0, i64 %buf.1)
  br label %bb3

bb3:                                              ; preds = %bb2
; call core::slice::<impl [T]>::len
  %2 = call i64 @"_ZN4core5slice29_$LT$impl$u20$$u5b$T$u5d$$GT$3len17h4ded11694fc2c466E"([0 x i8]* noalias nonnull readonly align 1 %buf.0, i64 %buf.1)
  br label %bb4

bb4:                                              ; preds = %bb3
; call core::intrinsics::write_bytes
  call void @_ZN4core10intrinsics11write_bytes17hb764dd49b2973f94E(i8* %1, i8 0, i64 %2)
  br label %bb5

bb5:                                              ; preds = %bb4
  br label %bb6

bb6:                                              ; preds = %bb5, %bb1
  ret void
}

; std::io::Initializer::should_initialize
; Function Attrs: inlinehint nonlazybind uwtable
define internal zeroext i1 @_ZN3std2io11Initializer17should_initialize17ha4c455633fbaf18cE(i8* noalias readonly align 1 dereferenceable(1) %self) unnamed_addr #0 {
start:
  %0 = load i8, i8* %self, align 1, !range !3
  %1 = trunc i8 %0 to i1
  ret i1 %1
}

; std::io::Initializer::nop
; Function Attrs: inlinehint nonlazybind uwtable
define internal zeroext i1 @_ZN3std2io11Initializer3nop17he6431239b6e57f5dE() unnamed_addr #0 {
start:
  %_0 = alloca i8, align 1
  store i8 0, i8* %_0, align 1
  %0 = load i8, i8* %_0, align 1, !range !3
  %1 = trunc i8 %0 to i1
  ret i1 %1
}

; std::io::append_to_string
; Function Attrs: nonlazybind uwtable
define internal void @_ZN3std2io16append_to_string17h22d0f02be3bf861eE(%"core::result::Result<usize, std::io::error::Error>"* noalias nocapture sret dereferenceable(24), %"alloc::string::String"* align 8 dereferenceable(24) %buf, i64* align 8 dereferenceable(8) %f) unnamed_addr #1 personality i32 (i32, i32, i64, %"unwind::libunwind::_Unwind_Exception"*, %"unwind::libunwind::_Unwind_Context"*)* @rust_eh_personality {
start:
  %personalityslot = alloca { i8*, i32 }, align 8
  %_27 = alloca i8, align 1
  %_26 = alloca i8, align 1
  %_23 = alloca %"std::io::append_to_string::{{closure}}<std::io::BufRead::read_line::{{closure}}<std::io::buffered::BufReader<std::fs::File>>>", align 1
  %_22 = alloca %"core::result::Result<usize, std::io::error::Error>", align 8
  %_20 = alloca i64, align 8
  %_15 = alloca %"core::result::Result<&str, core::str::Utf8Error>", align 8
  %_11 = alloca i64*, align 8
  %ret = alloca %"core::result::Result<usize, std::io::error::Error>", align 8
  %g = alloca { i64*, i64 }, align 8
  store i8 0, i8* %_27, align 1
  store i8 0, i8* %_26, align 1
  store i8 1, i8* %_26, align 1
; invoke alloc::string::String::len
  %1 = invoke i64 @_ZN5alloc6string6String3len17h30b3c12cd9db7626E(%"alloc::string::String"* noalias readonly align 8 dereferenceable(24) %buf)
          to label %bb2 unwind label %cleanup

bb1:                                              ; preds = %bb15, %bb16
  %2 = bitcast { i8*, i32 }* %personalityslot to i8**
  %3 = load i8*, i8** %2, align 8
  %4 = getelementptr inbounds { i8*, i32 }, { i8*, i32 }* %personalityslot, i32 0, i32 1
  %5 = load i32, i32* %4, align 8
  %6 = insertvalue { i8*, i32 } undef, i8* %3, 0
  %7 = insertvalue { i8*, i32 } %6, i32 %5, 1
  resume { i8*, i32 } %7

bb2:                                              ; preds = %start
; invoke alloc::string::String::as_mut_vec
  %8 = invoke align 8 dereferenceable(24) %"alloc::vec::Vec<u8>"* @_ZN5alloc6string6String10as_mut_vec17h8c49959ebd481fe9E(%"alloc::string::String"* align 8 dereferenceable(24) %buf)
          to label %bb3 unwind label %cleanup

bb3:                                              ; preds = %bb2
  %9 = bitcast { i64*, i64 }* %g to %"alloc::vec::Vec<u8>"**
  store %"alloc::vec::Vec<u8>"* %8, %"alloc::vec::Vec<u8>"** %9, align 8
  %10 = getelementptr inbounds { i64*, i64 }, { i64*, i64 }* %g, i32 0, i32 1
  store i64 %1, i64* %10, align 8
  store i8 0, i8* %_26, align 1
  %11 = bitcast { i64*, i64 }* %g to %"alloc::vec::Vec<u8>"**
  %12 = load %"alloc::vec::Vec<u8>"*, %"alloc::vec::Vec<u8>"** %11, align 8, !nonnull !2
  %13 = bitcast i64** %_11 to %"alloc::vec::Vec<u8>"**
  store %"alloc::vec::Vec<u8>"* %12, %"alloc::vec::Vec<u8>"** %13, align 8
  %14 = load i64*, i64** %_11, align 8, !nonnull !2
  %15 = bitcast i64* %14 to %"alloc::vec::Vec<u8>"*
; invoke std::io::BufRead::read_line::{{closure}}
  invoke void @"_ZN3std2io7BufRead9read_line28_$u7b$$u7b$closure$u7d$$u7d$17h89cea78304e2159dE"(%"core::result::Result<usize, std::io::error::Error>"* noalias nocapture sret dereferenceable(24) %ret, i64* align 8 dereferenceable(8) %f, %"alloc::vec::Vec<u8>"* align 8 dereferenceable(24) %15)
          to label %bb4 unwind label %cleanup1

bb4:                                              ; preds = %bb3
  store i8 1, i8* %_27, align 1
  %16 = bitcast { i64*, i64 }* %g to %"alloc::vec::Vec<u8>"**
  %17 = load %"alloc::vec::Vec<u8>"*, %"alloc::vec::Vec<u8>"** %16, align 8, !nonnull !2
  %18 = getelementptr inbounds { i64*, i64 }, { i64*, i64 }* %g, i32 0, i32 1
  %19 = load i64, i64* %18, align 8
  store i64 %19, i64* %_20, align 8
  %20 = load i64, i64* %_20, align 8
; invoke <alloc::vec::Vec<T> as core::ops::index::Index<I>>::index
  %21 = invoke { [0 x i8]*, i64 } @"_ZN77_$LT$alloc..vec..Vec$LT$T$GT$$u20$as$u20$core..ops..index..Index$LT$I$GT$$GT$5index17hcd1d0c137bdc9c74E"(%"alloc::vec::Vec<u8>"* noalias readonly align 8 dereferenceable(24) %17, i64 %20)
          to label %bb6 unwind label %cleanup2

bb5:                                              ; preds = %bb17, %bb18, %cleanup1
; call core::ptr::real_drop_in_place
  call void @_ZN4core3ptr18real_drop_in_place17h4f228827eac40069E({ i64*, i64 }* align 8 dereferenceable(16) %g) #12
  br label %bb16

bb6:                                              ; preds = %bb4
  %22 = extractvalue { [0 x i8]*, i64 } %21, 0
  %23 = extractvalue { [0 x i8]*, i64 } %21, 1
; invoke core::str::from_utf8
  invoke void @_ZN4core3str9from_utf817h9b0af2ab335bed95E(%"core::result::Result<&str, core::str::Utf8Error>"* noalias nocapture sret dereferenceable(24) %_15, [0 x i8]* noalias nonnull readonly align 1 %22, i64 %23)
          to label %bb7 unwind label %cleanup2

bb7:                                              ; preds = %bb6
; invoke core::result::Result<T,E>::is_err
  %24 = invoke zeroext i1 @"_ZN4core6result19Result$LT$T$C$E$GT$6is_err17h761e7daf96878ea2E"(%"core::result::Result<&str, core::str::Utf8Error>"* noalias readonly align 8 dereferenceable(24) %_15)
          to label %bb8 unwind label %cleanup2

bb8:                                              ; preds = %bb7
  br i1 %24, label %bb9, label %bb11

bb9:                                              ; preds = %bb8
  store i8 0, i8* %_27, align 1
  %25 = bitcast %"core::result::Result<usize, std::io::error::Error>"* %_22 to i8*
  %26 = bitcast %"core::result::Result<usize, std::io::error::Error>"* %ret to i8*
  call void @llvm.memcpy.p0i8.p0i8.i64(i8* align 8 %25, i8* align 8 %26, i64 24, i1 false)
; invoke core::result::Result<T,E>::and_then
  invoke void @"_ZN4core6result19Result$LT$T$C$E$GT$8and_then17h9c78142add739e8bE"(%"core::result::Result<usize, std::io::error::Error>"* noalias nocapture sret dereferenceable(24) %0, %"core::result::Result<usize, std::io::error::Error>"* noalias nocapture dereferenceable(24) %_22)
          to label %bb10 unwind label %cleanup2

bb10:                                             ; preds = %bb9
  br label %bb13

bb11:                                             ; preds = %bb8
  %27 = bitcast { i64*, i64 }* %g to %"alloc::vec::Vec<u8>"**
  %28 = load %"alloc::vec::Vec<u8>"*, %"alloc::vec::Vec<u8>"** %27, align 8, !nonnull !2
; invoke alloc::vec::Vec<T>::len
  %29 = invoke i64 @"_ZN5alloc3vec12Vec$LT$T$GT$3len17h751dc25b11efb097E"(%"alloc::vec::Vec<u8>"* noalias readonly align 8 dereferenceable(24) %28)
          to label %bb12 unwind label %cleanup2

bb12:                                             ; preds = %bb11
  %30 = getelementptr inbounds { i64*, i64 }, { i64*, i64 }* %g, i32 0, i32 1
  store i64 %29, i64* %30, align 8
  store i8 0, i8* %_27, align 1
  %31 = bitcast %"core::result::Result<usize, std::io::error::Error>"* %0 to i8*
  %32 = bitcast %"core::result::Result<usize, std::io::error::Error>"* %ret to i8*
  call void @llvm.memcpy.p0i8.p0i8.i64(i8* align 8 %31, i8* align 8 %32, i64 24, i1 false)
  br label %bb13

bb13:                                             ; preds = %bb12, %bb10
  store i8 0, i8* %_27, align 1
; invoke core::ptr::real_drop_in_place
  invoke void @_ZN4core3ptr18real_drop_in_place17h4f228827eac40069E({ i64*, i64 }* align 8 dereferenceable(16) %g)
          to label %bb14 unwind label %cleanup

bb14:                                             ; preds = %bb13
  ret void

bb15:                                             ; preds = %bb16
  store i8 0, i8* %_26, align 1
  br label %bb1

bb16:                                             ; preds = %bb5, %cleanup
  %33 = load i8, i8* %_26, align 1, !range !3
  %34 = trunc i8 %33 to i1
  br i1 %34, label %bb15, label %bb1

bb17:                                             ; preds = %bb18
  store i8 0, i8* %_27, align 1
; call core::ptr::real_drop_in_place
  call void @_ZN4core3ptr18real_drop_in_place17hf0f022be7980d53aE(%"core::result::Result<usize, std::io::error::Error>"* align 8 dereferenceable(24) %ret) #12
  br label %bb5

bb18:                                             ; preds = %cleanup2
  %35 = load i8, i8* %_27, align 1, !range !3
  %36 = trunc i8 %35 to i1
  br i1 %36, label %bb17, label %bb5

cleanup:                                          ; preds = %bb13, %bb2, %start
  %37 = landingpad { i8*, i32 }
          cleanup
  %38 = extractvalue { i8*, i32 } %37, 0
  %39 = extractvalue { i8*, i32 } %37, 1
  %40 = getelementptr inbounds { i8*, i32 }, { i8*, i32 }* %personalityslot, i32 0, i32 0
  store i8* %38, i8** %40, align 8
  %41 = getelementptr inbounds { i8*, i32 }, { i8*, i32 }* %personalityslot, i32 0, i32 1
  store i32 %39, i32* %41, align 8
  br label %bb16

cleanup1:                                         ; preds = %bb3
  %42 = landingpad { i8*, i32 }
          cleanup
  %43 = extractvalue { i8*, i32 } %42, 0
  %44 = extractvalue { i8*, i32 } %42, 1
  %45 = getelementptr inbounds { i8*, i32 }, { i8*, i32 }* %personalityslot, i32 0, i32 0
  store i8* %43, i8** %45, align 8
  %46 = getelementptr inbounds { i8*, i32 }, { i8*, i32 }* %personalityslot, i32 0, i32 1
  store i32 %44, i32* %46, align 8
  br label %bb5

cleanup2:                                         ; preds = %bb11, %bb9, %bb7, %bb6, %bb4
  %47 = landingpad { i8*, i32 }
          cleanup
  %48 = extractvalue { i8*, i32 } %47, 0
  %49 = extractvalue { i8*, i32 } %47, 1
  %50 = getelementptr inbounds { i8*, i32 }, { i8*, i32 }* %personalityslot, i32 0, i32 0
  store i8* %48, i8** %50, align 8
  %51 = getelementptr inbounds { i8*, i32 }, { i8*, i32 }* %personalityslot, i32 0, i32 1
  store i32 %49, i32* %51, align 8
  br label %bb18
}

; std::io::append_to_string::{{closure}}
; Function Attrs: nonlazybind uwtable
define internal void @"_ZN3std2io16append_to_string28_$u7b$$u7b$closure$u7d$$u7d$17h9044c851117bb364E"(%"core::result::Result<usize, std::io::error::Error>"* noalias nocapture sret dereferenceable(24), i64 %arg1) unnamed_addr #1 {
start:
  %_4 = alloca i8, align 1
  %_3 = alloca %"std::io::error::Error", align 8
  store i8 12, i8* %_4, align 1
  %1 = load i8, i8* %_4, align 1, !range !5
; call std::io::error::Error::new
  call void @_ZN3std2io5error5Error3new17hbbdbd389fede3bdeE(%"std::io::error::Error"* noalias nocapture sret dereferenceable(16) %_3, i8 %1, [0 x i8]* noalias nonnull readonly align 1 bitcast (<{ [34 x i8] }>* @1 to [0 x i8]*), i64 34)
  br label %bb1

bb1:                                              ; preds = %start
  %2 = bitcast %"core::result::Result<usize, std::io::error::Error>"* %0 to %"core::result::Result<usize, std::io::error::Error>::Err"*
  %3 = getelementptr inbounds %"core::result::Result<usize, std::io::error::Error>::Err", %"core::result::Result<usize, std::io::error::Error>::Err"* %2, i32 0, i32 1
  %4 = bitcast %"std::io::error::Error"* %3 to i8*
  %5 = bitcast %"std::io::error::Error"* %_3 to i8*
  call void @llvm.memcpy.p0i8.p0i8.i64(i8* align 8 %4, i8* align 8 %5, i64 16, i1 false)
  %6 = bitcast %"core::result::Result<usize, std::io::error::Error>"* %0 to i64*
  store i64 1, i64* %6, align 8
  ret void
}

; std::io::error::Error::new
; Function Attrs: nonlazybind uwtable
define internal void @_ZN3std2io5error5Error3new17hbbdbd389fede3bdeE(%"std::io::error::Error"* noalias nocapture sret dereferenceable(16), i8 %kind, [0 x i8]* noalias nonnull readonly align 1 %error.0, i64 %error.1) unnamed_addr #1 {
start:
; call <T as core::convert::Into<U>>::into
  %1 = call { {}*, [3 x i64]* } @"_ZN50_$LT$T$u20$as$u20$core..convert..Into$LT$U$GT$$GT$4into17h17142035c17afe91E"([0 x i8]* noalias nonnull readonly align 1 %error.0, i64 %error.1)
  %2 = extractvalue { {}*, [3 x i64]* } %1, 0
  %3 = extractvalue { {}*, [3 x i64]* } %1, 1
  br label %bb1

bb1:                                              ; preds = %start
; call std::io::error::Error::_new
  call void @_ZN3std2io5error5Error4_new17h561ec74ed0654576E(%"std::io::error::Error"* noalias nocapture sret dereferenceable(16) %0, i8 %kind, {}* noalias nonnull align 1 %2, [3 x i64]* noalias readonly align 8 dereferenceable(24) %3)
  br label %bb2

bb2:                                              ; preds = %bb1
  ret void
}

; std::io::BufRead::lines
; Function Attrs: nonlazybind uwtable
define internal void @_ZN3std2io7BufRead5lines17hc8ae994ffde8a588E(%"std::io::Lines<std::io::buffered::BufReader<std::fs::File>>"* noalias nocapture sret dereferenceable(40), %"std::io::buffered::BufReader<std::fs::File>"* noalias nocapture dereferenceable(40) %self) unnamed_addr #1 {
start:
  %_2 = alloca %"std::io::buffered::BufReader<std::fs::File>", align 8
  %1 = bitcast %"std::io::buffered::BufReader<std::fs::File>"* %_2 to i8*
  %2 = bitcast %"std::io::buffered::BufReader<std::fs::File>"* %self to i8*
  call void @llvm.memcpy.p0i8.p0i8.i64(i8* align 8 %1, i8* align 8 %2, i64 40, i1 false)
  %3 = bitcast %"std::io::Lines<std::io::buffered::BufReader<std::fs::File>>"* %0 to %"std::io::buffered::BufReader<std::fs::File>"*
  %4 = bitcast %"std::io::buffered::BufReader<std::fs::File>"* %3 to i8*
  %5 = bitcast %"std::io::buffered::BufReader<std::fs::File>"* %_2 to i8*
  call void @llvm.memcpy.p0i8.p0i8.i64(i8* align 8 %4, i8* align 8 %5, i64 40, i1 false)
  ret void
}

; std::io::BufRead::read_line
; Function Attrs: nonlazybind uwtable
define internal void @_ZN3std2io7BufRead9read_line17ha5d30085a5bbb0e8E(%"core::result::Result<usize, std::io::error::Error>"* noalias nocapture sret dereferenceable(24), %"std::io::buffered::BufReader<std::fs::File>"* align 8 dereferenceable(40), %"alloc::string::String"* align 8 dereferenceable(24) %buf) unnamed_addr #1 {
start:
  %_4 = alloca i64*, align 8
  %self = alloca %"std::io::buffered::BufReader<std::fs::File>"*, align 8
  store %"std::io::buffered::BufReader<std::fs::File>"* %1, %"std::io::buffered::BufReader<std::fs::File>"** %self, align 8
  %2 = bitcast i64** %_4 to %"std::io::buffered::BufReader<std::fs::File>"***
  store %"std::io::buffered::BufReader<std::fs::File>"** %self, %"std::io::buffered::BufReader<std::fs::File>"*** %2, align 8
  %3 = load i64*, i64** %_4, align 8, !nonnull !2
; call std::io::append_to_string
  call void @_ZN3std2io16append_to_string17h22d0f02be3bf861eE(%"core::result::Result<usize, std::io::error::Error>"* noalias nocapture sret dereferenceable(24) %0, %"alloc::string::String"* align 8 dereferenceable(24) %buf, i64* align 8 dereferenceable(8) %3)
  br label %bb1

bb1:                                              ; preds = %start
  ret void
}

; std::io::BufRead::read_line::{{closure}}
; Function Attrs: nonlazybind uwtable
define internal void @"_ZN3std2io7BufRead9read_line28_$u7b$$u7b$closure$u7d$$u7d$17h89cea78304e2159dE"(%"core::result::Result<usize, std::io::error::Error>"* noalias nocapture sret dereferenceable(24), i64* align 8 dereferenceable(8) %arg0, %"alloc::vec::Vec<u8>"* align 8 dereferenceable(24) %b) unnamed_addr #1 {
start:
  %1 = bitcast i64* %arg0 to %"std::io::buffered::BufReader<std::fs::File>"**
  %2 = bitcast i64* %arg0 to %"std::io::buffered::BufReader<std::fs::File>"**
  %3 = load %"std::io::buffered::BufReader<std::fs::File>"*, %"std::io::buffered::BufReader<std::fs::File>"** %2, align 8, !nonnull !2
; call std::io::read_until
  call void @_ZN3std2io10read_until17h472b46f7df9cea60E(%"core::result::Result<usize, std::io::error::Error>"* noalias nocapture sret dereferenceable(24) %0, %"std::io::buffered::BufReader<std::fs::File>"* align 8 dereferenceable(40) %3, i8 10, %"alloc::vec::Vec<u8>"* align 8 dereferenceable(24) %b)
  br label %bb1

bb1:                                              ; preds = %start
  ret void
}

; std::io::buffered::BufReader<R>::with_capacity
; Function Attrs: nonlazybind uwtable
define internal void @"_ZN3std2io8buffered18BufReader$LT$R$GT$13with_capacity17h6dc511eebe4e64a3E"(%"std::io::buffered::BufReader<std::fs::File>"* noalias nocapture sret dereferenceable(40), i64 %capacity, i32) unnamed_addr #1 personality i32 (i32, i32, i64, %"unwind::libunwind::_Unwind_Exception"*, %"unwind::libunwind::_Unwind_Context"*)* @rust_eh_personality {
start:
  %personalityslot = alloca { i8*, i32 }, align 8
  %_20 = alloca i8, align 1
  %_19 = alloca i8, align 1
  %_18 = alloca %"alloc::vec::Vec<u8>", align 8
  %_16 = alloca i32, align 4
  %_10 = alloca i8, align 1
  %buffer = alloca %"alloc::vec::Vec<u8>", align 8
  %inner = alloca i32, align 4
  store i32 %1, i32* %inner, align 4
  store i8 0, i8* %_19, align 1
  store i8 0, i8* %_20, align 1
  store i8 1, i8* %_19, align 1
; invoke alloc::vec::Vec<T>::with_capacity
  invoke void @"_ZN5alloc3vec12Vec$LT$T$GT$13with_capacity17he92b5fa78959a43dE"(%"alloc::vec::Vec<u8>"* noalias nocapture sret dereferenceable(24) %buffer, i64 %capacity)
          to label %bb2 unwind label %cleanup

bb1:                                              ; preds = %bb9, %bb10
  %2 = bitcast { i8*, i32 }* %personalityslot to i8**
  %3 = load i8*, i8** %2, align 8
  %4 = getelementptr inbounds { i8*, i32 }, { i8*, i32 }* %personalityslot, i32 0, i32 1
  %5 = load i32, i32* %4, align 8
  %6 = insertvalue { i8*, i32 } undef, i8* %3, 0
  %7 = insertvalue { i8*, i32 } %6, i32 %5, 1
  resume { i8*, i32 } %7

bb2:                                              ; preds = %start
  store i8 1, i8* %_20, align 1
; invoke alloc::vec::Vec<T>::set_len
  invoke void @"_ZN5alloc3vec12Vec$LT$T$GT$7set_len17hae9f683f451614ffE"(%"alloc::vec::Vec<u8>"* align 8 dereferenceable(24) %buffer, i64 %capacity)
          to label %bb3 unwind label %cleanup1

bb3:                                              ; preds = %bb2
; invoke <std::fs::File as std::io::Read>::initializer
  %8 = invoke zeroext i1 @"_ZN47_$LT$std..fs..File$u20$as$u20$std..io..Read$GT$11initializer17h8e17dbeec691f47bE"(i32* noalias readonly align 4 dereferenceable(4) %inner)
          to label %bb4 unwind label %cleanup1

bb4:                                              ; preds = %bb3
  %9 = zext i1 %8 to i8
  store i8 %9, i8* %_10, align 1
; invoke <alloc::vec::Vec<T> as core::ops::deref::DerefMut>::deref_mut
  %10 = invoke { [0 x i8]*, i64 } @"_ZN71_$LT$alloc..vec..Vec$LT$T$GT$$u20$as$u20$core..ops..deref..DerefMut$GT$9deref_mut17h97ea3c9aa1c6148dE"(%"alloc::vec::Vec<u8>"* align 8 dereferenceable(24) %buffer)
          to label %bb5 unwind label %cleanup1

bb5:                                              ; preds = %bb4
  %11 = extractvalue { [0 x i8]*, i64 } %10, 0
  %12 = extractvalue { [0 x i8]*, i64 } %10, 1
; invoke std::io::Initializer::initialize
  invoke void @_ZN3std2io11Initializer10initialize17h27bb4949aa91ec61E(i8* noalias readonly align 1 dereferenceable(1) %_10, [0 x i8]* nonnull align 1 %11, i64 %12)
          to label %bb6 unwind label %cleanup1

bb6:                                              ; preds = %bb5
  store i8 0, i8* %_19, align 1
  %13 = load i32, i32* %inner, align 4
  store i32 %13, i32* %_16, align 4
  store i8 0, i8* %_20, align 1
  %14 = bitcast %"alloc::vec::Vec<u8>"* %_18 to i8*
  %15 = bitcast %"alloc::vec::Vec<u8>"* %buffer to i8*
  call void @llvm.memcpy.p0i8.p0i8.i64(i8* align 8 %14, i8* align 8 %15, i64 24, i1 false)
; invoke alloc::vec::Vec<T>::into_boxed_slice
  %16 = invoke { [0 x i8]*, i64 } @"_ZN5alloc3vec12Vec$LT$T$GT$16into_boxed_slice17hf9c7a3fd06963516E"(%"alloc::vec::Vec<u8>"* noalias nocapture dereferenceable(24) %_18)
          to label %bb8 unwind label %cleanup2

bb7:                                              ; preds = %cleanup2
; call core::ptr::real_drop_in_place
  call void @_ZN4core3ptr18real_drop_in_place17h4190a6ebbeffadfaE(i32* align 4 dereferenceable(4) %_16) #12
  br label %bb12

bb8:                                              ; preds = %bb6
  %17 = extractvalue { [0 x i8]*, i64 } %16, 0
  %18 = extractvalue { [0 x i8]*, i64 } %16, 1
  %19 = getelementptr inbounds %"std::io::buffered::BufReader<std::fs::File>", %"std::io::buffered::BufReader<std::fs::File>"* %0, i32 0, i32 7
  %20 = load i32, i32* %_16, align 4
  store i32 %20, i32* %19, align 8
  %21 = bitcast %"std::io::buffered::BufReader<std::fs::File>"* %0 to { [0 x i8]*, i64 }*
  %22 = getelementptr inbounds { [0 x i8]*, i64 }, { [0 x i8]*, i64 }* %21, i32 0, i32 0
  store [0 x i8]* %17, [0 x i8]** %22, align 8
  %23 = getelementptr inbounds { [0 x i8]*, i64 }, { [0 x i8]*, i64 }* %21, i32 0, i32 1
  store i64 %18, i64* %23, align 8
  %24 = getelementptr inbounds %"std::io::buffered::BufReader<std::fs::File>", %"std::io::buffered::BufReader<std::fs::File>"* %0, i32 0, i32 3
  store i64 0, i64* %24, align 8
  %25 = getelementptr inbounds %"std::io::buffered::BufReader<std::fs::File>", %"std::io::buffered::BufReader<std::fs::File>"* %0, i32 0, i32 5
  store i64 0, i64* %25, align 8
  store i8 0, i8* %_20, align 1
  ret void

bb9:                                              ; preds = %bb10
  store i8 0, i8* %_19, align 1
; call core::ptr::real_drop_in_place
  call void @_ZN4core3ptr18real_drop_in_place17h4190a6ebbeffadfaE(i32* align 4 dereferenceable(4) %inner) #12
  br label %bb1

bb10:                                             ; preds = %bb11, %bb12, %cleanup
  %26 = load i8, i8* %_19, align 1, !range !3
  %27 = trunc i8 %26 to i1
  br i1 %27, label %bb9, label %bb1

bb11:                                             ; preds = %bb12
  store i8 0, i8* %_20, align 1
; call core::ptr::real_drop_in_place
  call void @_ZN4core3ptr18real_drop_in_place17hb3f84a622bbdc27fE(%"alloc::vec::Vec<u8>"* align 8 dereferenceable(24) %buffer) #12
  br label %bb10

bb12:                                             ; preds = %bb7, %cleanup1
  %28 = load i8, i8* %_20, align 1, !range !3
  %29 = trunc i8 %28 to i1
  br i1 %29, label %bb11, label %bb10

cleanup:                                          ; preds = %start
  %30 = landingpad { i8*, i32 }
          cleanup
  %31 = extractvalue { i8*, i32 } %30, 0
  %32 = extractvalue { i8*, i32 } %30, 1
  %33 = getelementptr inbounds { i8*, i32 }, { i8*, i32 }* %personalityslot, i32 0, i32 0
  store i8* %31, i8** %33, align 8
  %34 = getelementptr inbounds { i8*, i32 }, { i8*, i32 }* %personalityslot, i32 0, i32 1
  store i32 %32, i32* %34, align 8
  br label %bb10

cleanup1:                                         ; preds = %bb5, %bb4, %bb3, %bb2
  %35 = landingpad { i8*, i32 }
          cleanup
  %36 = extractvalue { i8*, i32 } %35, 0
  %37 = extractvalue { i8*, i32 } %35, 1
  %38 = getelementptr inbounds { i8*, i32 }, { i8*, i32 }* %personalityslot, i32 0, i32 0
  store i8* %36, i8** %38, align 8
  %39 = getelementptr inbounds { i8*, i32 }, { i8*, i32 }* %personalityslot, i32 0, i32 1
  store i32 %37, i32* %39, align 8
  br label %bb12

cleanup2:                                         ; preds = %bb6
  %40 = landingpad { i8*, i32 }
          cleanup
  %41 = extractvalue { i8*, i32 } %40, 0
  %42 = extractvalue { i8*, i32 } %40, 1
  %43 = getelementptr inbounds { i8*, i32 }, { i8*, i32 }* %personalityslot, i32 0, i32 0
  store i8* %41, i8** %43, align 8
  %44 = getelementptr inbounds { i8*, i32 }, { i8*, i32 }* %personalityslot, i32 0, i32 1
  store i32 %42, i32* %44, align 8
  br label %bb7
}

; std::io::buffered::BufReader<R>::new
; Function Attrs: nonlazybind uwtable
define internal void @"_ZN3std2io8buffered18BufReader$LT$R$GT$3new17h8a9bb8c9442d243cE"(%"std::io::buffered::BufReader<std::fs::File>"* noalias nocapture sret dereferenceable(40), i32 %inner) unnamed_addr #1 {
start:
; call std::io::buffered::BufReader<R>::with_capacity
  call void @"_ZN3std2io8buffered18BufReader$LT$R$GT$13with_capacity17h6dc511eebe4e64a3E"(%"std::io::buffered::BufReader<std::fs::File>"* noalias nocapture sret dereferenceable(40) %0, i64 8192, i32 %inner)
  br label %bb1

bb1:                                              ; preds = %start
  ret void
}

; std::rt::lang_start
; Function Attrs: nonlazybind uwtable
define hidden i64 @_ZN3std2rt10lang_start17hf023860a8fd403c2E(void ()* nonnull %main, i64 %argc, i8** %argv) unnamed_addr #1 {
start:
  %_7 = alloca i8*, align 8
  %0 = bitcast i8** %_7 to void ()**
  store void ()* %main, void ()** %0, align 8
  %1 = bitcast i8** %_7 to {}*
; call std::rt::lang_start_internal
  %2 = call i64 @_ZN3std2rt19lang_start_internal17h9cd44eb8664c0278E({}* nonnull align 1 %1, [3 x i64]* noalias readonly align 8 dereferenceable(24) bitcast ({ void (i8**)*, i64, i64, i32 (i8**)*, i32 (i8**)*, i32 (i8**)* }* @vtable.0 to [3 x i64]*), i64 %argc, i8** %argv)
  br label %bb1

bb1:                                              ; preds = %start
  ret i64 %2
}

; std::rt::lang_start::{{closure}}
; Function Attrs: nonlazybind uwtable
define internal i32 @"_ZN3std2rt10lang_start28_$u7b$$u7b$closure$u7d$$u7d$17h0e190d26b7152ab9E"(i8** noalias readonly align 8 dereferenceable(8) %arg0) unnamed_addr #1 {
start:
  %0 = bitcast i8** %arg0 to void ()**
  %1 = load void ()*, void ()** %0, align 8, !nonnull !2
  call void %1()
  br label %bb1

bb1:                                              ; preds = %start
; call <() as std::process::Termination>::report
  %2 = call i32 @"_ZN54_$LT$$LP$$RP$$u20$as$u20$std..process..Termination$GT$6report17h4828aba117d42022E"()
  br label %bb2

bb2:                                              ; preds = %bb1
  ret i32 %2
}

; std::sys::unix::process::process_common::ExitCode::as_i32
; Function Attrs: inlinehint nonlazybind uwtable
define internal i32 @_ZN3std3sys4unix7process14process_common8ExitCode6as_i3217h2e1c07787c41991fE(i8* noalias readonly align 1 dereferenceable(1) %self) unnamed_addr #0 {
start:
  %0 = load i8, i8* %self, align 1
  %1 = zext i8 %0 to i32
  ret i32 %1
}

; std::path::Path::new
; Function Attrs: nonlazybind uwtable
define internal { %"std::path::Path"*, i64 } @_ZN3std4path4Path3new17h829c9cf0adca3619E([0 x i8]* noalias nonnull readonly align 1 %s.0, i64 %s.1) unnamed_addr #1 {
start:
; call std::ffi::os_str::<impl core::convert::AsRef<std::ffi::os_str::OsStr> for str>::as_ref
  %0 = call { %"std::ffi::os_str::OsStr"*, i64 } @"_ZN3std3ffi6os_str85_$LT$impl$u20$core..convert..AsRef$LT$std..ffi..os_str..OsStr$GT$$u20$for$u20$str$GT$6as_ref17h7704cc2d80101a12E"([0 x i8]* noalias nonnull readonly align 1 %s.0, i64 %s.1)
  %1 = extractvalue { %"std::ffi::os_str::OsStr"*, i64 } %0, 0
  %2 = extractvalue { %"std::ffi::os_str::OsStr"*, i64 } %0, 1
  br label %bb1

bb1:                                              ; preds = %start
  %3 = bitcast %"std::ffi::os_str::OsStr"* %1 to %"std::path::Path"*
  %4 = insertvalue { %"std::path::Path"*, i64 } undef, %"std::path::Path"* %3, 0
  %5 = insertvalue { %"std::path::Path"*, i64 } %4, i64 %2, 1
  ret { %"std::path::Path"*, i64 } %5
}

; std::memchr::memchr
; Function Attrs: inlinehint nonlazybind uwtable
define internal { i64, i64 } @_ZN3std6memchr6memchr17h3239efdc91a30e91E(i8 %needle, [0 x i8]* noalias nonnull readonly align 1 %haystack.0, i64 %haystack.1) unnamed_addr #0 {
start:
; call std::sys::unix::memchr::memchr
  %0 = call { i64, i64 } @_ZN3std3sys4unix6memchr6memchr17h00117751dbc1a40aE(i8 %needle, [0 x i8]* noalias nonnull readonly align 1 %haystack.0, i64 %haystack.1)
  %1 = extractvalue { i64, i64 } %0, 0
  %2 = extractvalue { i64, i64 } %0, 1
  br label %bb1

bb1:                                              ; preds = %start
  %3 = insertvalue { i64, i64 } undef, i64 %1, 0
  %4 = insertvalue { i64, i64 } %3, i64 %2, 1
  ret { i64, i64 } %4
}

; std::panicking::begin_panic
; Function Attrs: cold noinline noreturn nonlazybind uwtable
define internal void @_ZN3std9panicking11begin_panic17h8bc591753635f535E([0 x i8]* noalias nonnull readonly align 1 %msg.0, i64 %msg.1, { [0 x i64], { [0 x i8]*, i64 }, [0 x i32], i32, [0 x i32], i32, [0 x i32] }* noalias readonly align 8 dereferenceable(24) %file_line_col) unnamed_addr #2 personality i32 (i32, i32, i64, %"unwind::libunwind::_Unwind_Exception"*, %"unwind::libunwind::_Unwind_Context"*)* @rust_eh_personality {
start:
  %personalityslot = alloca { i8*, i32 }, align 8
  %_11 = alloca i8, align 1
  %_9 = alloca i64*, align 8
  %_7 = alloca { i8*, i64 }, align 8
  store i8 0, i8* %_11, align 1
  store i8 1, i8* %_11, align 1
  br i1 false, label %bb2, label %bb3

bb1:                                              ; preds = %bb6, %bb7
  %0 = bitcast { i8*, i32 }* %personalityslot to i8**
  %1 = load i8*, i8** %0, align 8
  %2 = getelementptr inbounds { i8*, i32 }, { i8*, i32 }* %personalityslot, i32 0, i32 1
  %3 = load i32, i32* %2, align 8
  %4 = insertvalue { i8*, i32 } undef, i8* %1, 0
  %5 = insertvalue { i8*, i32 } %4, i32 %3, 1
  resume { i8*, i32 } %5

bb2:                                              ; preds = %start
  call void @llvm.trap()
  unreachable

bb3:                                              ; preds = %start
  store i8 0, i8* %_11, align 1
; invoke std::panicking::begin_panic::PanicPayload<A>::new
  %6 = invoke { i8*, i64 } @"_ZN3std9panicking11begin_panic21PanicPayload$LT$A$GT$3new17hd8eab0b8bda17064E"([0 x i8]* noalias nonnull readonly align 1 %msg.0, i64 %msg.1)
          to label %bb5 unwind label %cleanup

bb4:                                              ; preds = %cleanup1
  br label %bb7

bb5:                                              ; preds = %bb3
  store { i8*, i64 } %6, { i8*, i64 }* %_7, align 8
  %7 = bitcast { i8*, i64 }* %_7 to {}*
  %8 = bitcast i64** %_9 to {}**
  store {}* null, {}** %8, align 8
  %9 = load i64*, i64** %_9, align 8
; invoke std::panicking::rust_panic_with_hook
  invoke void @_ZN3std9panicking20rust_panic_with_hook17hb12bd3736bcb7a4fE({}* nonnull align 1 %7, [3 x i64]* noalias readonly align 8 dereferenceable(24) bitcast ({ void ({ i8*, i64 }*)*, i64, i64, { {}*, [3 x i64]* } ({ i8*, i64 }*)*, { {}*, [3 x i64]* } ({ i8*, i64 }*)* }* @vtable.1 to [3 x i64]*), i64* noalias readonly align 8 dereferenceable_or_null(48) %9, { [0 x i64], { [0 x i8]*, i64 }, [0 x i32], i32, [0 x i32], i32, [0 x i32] }* noalias readonly align 8 dereferenceable(24) %file_line_col)
          to label %unreachable unwind label %cleanup1

bb6:                                              ; preds = %bb7
  store i8 0, i8* %_11, align 1
  br label %bb1

bb7:                                              ; preds = %bb4, %cleanup
  %10 = load i8, i8* %_11, align 1, !range !3
  %11 = trunc i8 %10 to i1
  br i1 %11, label %bb6, label %bb1

cleanup:                                          ; preds = %bb3
  %12 = landingpad { i8*, i32 }
          cleanup
  %13 = extractvalue { i8*, i32 } %12, 0
  %14 = extractvalue { i8*, i32 } %12, 1
  %15 = getelementptr inbounds { i8*, i32 }, { i8*, i32 }* %personalityslot, i32 0, i32 0
  store i8* %13, i8** %15, align 8
  %16 = getelementptr inbounds { i8*, i32 }, { i8*, i32 }* %personalityslot, i32 0, i32 1
  store i32 %14, i32* %16, align 8
  br label %bb7

unreachable:                                      ; preds = %bb5
  unreachable

cleanup1:                                         ; preds = %bb5
  %17 = landingpad { i8*, i32 }
          cleanup
  %18 = extractvalue { i8*, i32 } %17, 0
  %19 = extractvalue { i8*, i32 } %17, 1
  %20 = getelementptr inbounds { i8*, i32 }, { i8*, i32 }* %personalityslot, i32 0, i32 0
  store i8* %18, i8** %20, align 8
  %21 = getelementptr inbounds { i8*, i32 }, { i8*, i32 }* %personalityslot, i32 0, i32 1
  store i32 %19, i32* %21, align 8
  br label %bb4
}

; std::panicking::begin_panic::PanicPayload<A>::new
; Function Attrs: nonlazybind uwtable
define internal { i8*, i64 } @"_ZN3std9panicking11begin_panic21PanicPayload$LT$A$GT$3new17hd8eab0b8bda17064E"([0 x i8]* noalias nonnull readonly align 1 %inner.0, i64 %inner.1) unnamed_addr #1 {
start:
  %_2 = alloca { i8*, i64 }, align 8
  %_0 = alloca { i8*, i64 }, align 8
  %0 = bitcast { i8*, i64 }* %_2 to { [0 x i8]*, i64 }*
  %1 = getelementptr inbounds { [0 x i8]*, i64 }, { [0 x i8]*, i64 }* %0, i32 0, i32 0
  store [0 x i8]* %inner.0, [0 x i8]** %1, align 8
  %2 = getelementptr inbounds { [0 x i8]*, i64 }, { [0 x i8]*, i64 }* %0, i32 0, i32 1
  store i64 %inner.1, i64* %2, align 8
  %3 = getelementptr inbounds { i8*, i64 }, { i8*, i64 }* %_2, i32 0, i32 0
  %4 = load i8*, i8** %3, align 8
  %5 = getelementptr inbounds { i8*, i64 }, { i8*, i64 }* %_2, i32 0, i32 1
  %6 = load i64, i64* %5, align 8
  %7 = getelementptr inbounds { i8*, i64 }, { i8*, i64 }* %_0, i32 0, i32 0
  store i8* %4, i8** %7, align 8
  %8 = getelementptr inbounds { i8*, i64 }, { i8*, i64 }* %_0, i32 0, i32 1
  store i64 %6, i64* %8, align 8
  %9 = getelementptr inbounds { i8*, i64 }, { i8*, i64 }* %_0, i32 0, i32 0
  %10 = load i8*, i8** %9, align 8
  %11 = getelementptr inbounds { i8*, i64 }, { i8*, i64 }* %_0, i32 0, i32 1
  %12 = load i64, i64* %11, align 8
  %13 = insertvalue { i8*, i64 } undef, i8* %10, 0
  %14 = insertvalue { i8*, i64 } %13, i64 %12, 1
  ret { i8*, i64 } %14
}

; <&T as core::fmt::Debug>::fmt
; Function Attrs: nonlazybind uwtable
define internal zeroext i1 @"_ZN42_$LT$$RF$T$u20$as$u20$core..fmt..Debug$GT$3fmt17h3fbcd9f413dc809cE"(i32** noalias readonly align 8 dereferenceable(8) %self, %"core::fmt::Formatter"* align 8 dereferenceable(96) %f) unnamed_addr #1 {
start:
  %0 = load i32*, i32** %self, align 8, !nonnull !2
; call core::fmt::num::<impl core::fmt::Debug for u32>::fmt
  %1 = call zeroext i1 @"_ZN4core3fmt3num50_$LT$impl$u20$core..fmt..Debug$u20$for$u20$u32$GT$3fmt17hba92653e7357acb3E"(i32* noalias readonly align 4 dereferenceable(4) %0, %"core::fmt::Formatter"* align 8 dereferenceable(96) %f)
  br label %bb1

bb1:                                              ; preds = %start
  ret i1 %1
}

; <&T as core::fmt::Debug>::fmt
; Function Attrs: nonlazybind uwtable
define internal zeroext i1 @"_ZN42_$LT$$RF$T$u20$as$u20$core..fmt..Debug$GT$3fmt17hac518cac536385a9E"(i64** noalias readonly align 8 dereferenceable(8) %self, %"core::fmt::Formatter"* align 8 dereferenceable(96) %f) unnamed_addr #1 {
start:
  %0 = load i64*, i64** %self, align 8, !nonnull !2
; call core::fmt::num::<impl core::fmt::Debug for usize>::fmt
  %1 = call zeroext i1 @"_ZN4core3fmt3num52_$LT$impl$u20$core..fmt..Debug$u20$for$u20$usize$GT$3fmt17hbf1ab52420e592d6E"(i64* noalias readonly align 8 dereferenceable(8) %0, %"core::fmt::Formatter"* align 8 dereferenceable(96) %f)
  br label %bb1

bb1:                                              ; preds = %start
  ret i1 %1
}

; <&T as core::fmt::Display>::fmt
; Function Attrs: nonlazybind uwtable
define internal zeroext i1 @"_ZN44_$LT$$RF$T$u20$as$u20$core..fmt..Display$GT$3fmt17hab02f78835b2d3dfE"({ [0 x i8]*, i64 }* noalias readonly align 8 dereferenceable(16) %self, %"core::fmt::Formatter"* align 8 dereferenceable(96) %f) unnamed_addr #1 {
start:
  %0 = getelementptr inbounds { [0 x i8]*, i64 }, { [0 x i8]*, i64 }* %self, i32 0, i32 0
  %1 = load [0 x i8]*, [0 x i8]** %0, align 8, !nonnull !2
  %2 = getelementptr inbounds { [0 x i8]*, i64 }, { [0 x i8]*, i64 }* %self, i32 0, i32 1
  %3 = load i64, i64* %2, align 8
; call <str as core::fmt::Display>::fmt
  %4 = call zeroext i1 @"_ZN42_$LT$str$u20$as$u20$core..fmt..Display$GT$3fmt17h354afe01c03b7397E"([0 x i8]* noalias nonnull readonly align 1 %1, i64 %3, %"core::fmt::Formatter"* align 8 dereferenceable(96) %f)
  br label %bb1

bb1:                                              ; preds = %start
  ret i1 %4
}

; <u32 as core::ops::arith::Add>::add
; Function Attrs: inlinehint nonlazybind uwtable
define internal i32 @"_ZN45_$LT$u32$u20$as$u20$core..ops..arith..Add$GT$3add17h2e9cd31ac4d96060E"(i32 %self, i32 %other) unnamed_addr #0 {
start:
  %0 = call { i32, i1 } @llvm.uadd.with.overflow.i32(i32 %self, i32 %other)
  %1 = extractvalue { i32, i1 } %0, 0
  %2 = extractvalue { i32, i1 } %0, 1
  %3 = call i1 @llvm.expect.i1(i1 %2, i1 false)
  br i1 %3, label %panic, label %bb1

bb1:                                              ; preds = %start
  ret i32 %1

panic:                                            ; preds = %start
; call core::panicking::panic
  call void @_ZN4core9panicking5panic17h322450b91db0e87eE({ [0 x i64], { [0 x i8]*, i64 }, [0 x i64], { [0 x i8]*, i64 }, [0 x i32], i32, [0 x i32], i32, [0 x i32] }* noalias readonly align 8 dereferenceable(40) bitcast ({ { [0 x i8]*, i64 }, { [0 x i8]*, i64 }, i32, i32 }* @panic_loc.4 to { [0 x i64], { [0 x i8]*, i64 }, [0 x i64], { [0 x i8]*, i64 }, [0 x i32], i32, [0 x i32], i32, [0 x i32] }*))
  unreachable
}

; <std::fs::File as std::io::Read>::initializer
; Function Attrs: inlinehint nonlazybind uwtable
define internal zeroext i1 @"_ZN47_$LT$std..fs..File$u20$as$u20$std..io..Read$GT$11initializer17h8e17dbeec691f47bE"(i32* noalias readonly align 4 dereferenceable(4) %self) unnamed_addr #0 {
start:
; call std::io::Initializer::nop
  %0 = call zeroext i1 @_ZN3std2io11Initializer3nop17he6431239b6e57f5dE()
  br label %bb1

bb1:                                              ; preds = %start
  ret i1 %0
}

; <usize as core::ops::arith::Add>::add
; Function Attrs: inlinehint nonlazybind uwtable
define internal i64 @"_ZN47_$LT$usize$u20$as$u20$core..ops..arith..Add$GT$3add17hf1ab003e3538c6c8E"(i64 %self, i64 %other) unnamed_addr #0 {
start:
  %0 = call { i64, i1 } @llvm.uadd.with.overflow.i64(i64 %self, i64 %other)
  %1 = extractvalue { i64, i1 } %0, 0
  %2 = extractvalue { i64, i1 } %0, 1
  %3 = call i1 @llvm.expect.i1(i1 %2, i1 false)
  br i1 %3, label %panic, label %bb1

bb1:                                              ; preds = %start
  ret i64 %1

panic:                                            ; preds = %start
; call core::panicking::panic
  call void @_ZN4core9panicking5panic17h322450b91db0e87eE({ [0 x i64], { [0 x i8]*, i64 }, [0 x i64], { [0 x i8]*, i64 }, [0 x i32], i32, [0 x i32], i32, [0 x i32] }* noalias readonly align 8 dereferenceable(40) bitcast ({ { [0 x i8]*, i64 }, { [0 x i8]*, i64 }, i32, i32 }* @panic_loc.4 to { [0 x i64], { [0 x i8]*, i64 }, [0 x i64], { [0 x i8]*, i64 }, [0 x i32], i32, [0 x i32], i32, [0 x i32] }*))
  unreachable
}

; <[T] as core::fmt::Debug>::fmt
; Function Attrs: nonlazybind uwtable
define internal zeroext i1 @"_ZN48_$LT$$u5b$T$u5d$$u20$as$u20$core..fmt..Debug$GT$3fmt17h2c65a5472cd80fa5E"([0 x i32]* noalias nonnull readonly align 4 %self.0, i64 %self.1, %"core::fmt::Formatter"* align 8 dereferenceable(96) %f) unnamed_addr #1 {
start:
  %_6 = alloca %"core::fmt::builders::DebugList", align 8
; call core::fmt::Formatter::debug_list
  call void @_ZN4core3fmt9Formatter10debug_list17hde557362e6b33b2eE(%"core::fmt::builders::DebugList"* noalias nocapture sret dereferenceable(16) %_6, %"core::fmt::Formatter"* align 8 dereferenceable(96) %f)
  br label %bb1

bb1:                                              ; preds = %start
; call core::slice::<impl [T]>::iter
  %0 = call { i32*, i32* } @"_ZN4core5slice29_$LT$impl$u20$$u5b$T$u5d$$GT$4iter17hf342370c7971263bE"([0 x i32]* noalias nonnull readonly align 4 %self.0, i64 %self.1)
  %1 = extractvalue { i32*, i32* } %0, 0
  %2 = extractvalue { i32*, i32* } %0, 1
  br label %bb2

bb2:                                              ; preds = %bb1
; call core::fmt::builders::DebugList::entries
  %3 = call align 8 dereferenceable(16) %"core::fmt::builders::DebugList"* @_ZN4core3fmt8builders9DebugList7entries17hde1ffe40484c5466E(%"core::fmt::builders::DebugList"* align 8 dereferenceable(16) %_6, i32* %1, i32* %2)
  br label %bb3

bb3:                                              ; preds = %bb2
; call core::fmt::builders::DebugList::finish
  %4 = call zeroext i1 @_ZN4core3fmt8builders9DebugList6finish17h796fd2901b76fbc1E(%"core::fmt::builders::DebugList"* align 8 dereferenceable(16) %3)
  br label %bb4

bb4:                                              ; preds = %bb3
  ret i1 %4
}

; core::intrinsics::write_bytes
; Function Attrs: inlinehint nonlazybind uwtable
define internal void @_ZN4core10intrinsics11write_bytes17hb764dd49b2973f94E(i8* %dst, i8 %val, i64 %count) unnamed_addr #0 {
start:
  %0 = mul i64 1, %count
  call void @llvm.memset.p0i8.i64(i8* align 1 %dst, i8 %val, i64 %0, i1 false)
  br label %bb1

bb1:                                              ; preds = %start
  ret void
}

; core::intrinsics::copy_nonoverlapping
; Function Attrs: inlinehint nonlazybind uwtable
define internal void @_ZN4core10intrinsics19copy_nonoverlapping17h40e143e08364eb65E({ i8*, i64 }* %src, { i8*, i64 }* %dst, i64 %count) unnamed_addr #0 {
start:
  %0 = mul i64 16, %count
  %1 = bitcast { i8*, i64 }* %dst to i8*
  %2 = bitcast { i8*, i64 }* %src to i8*
  call void @llvm.memcpy.p0i8.p0i8.i64(i8* align 8 %1, i8* align 8 %2, i64 %0, i1 false)
  br label %bb1

bb1:                                              ; preds = %start
  ret void
}

; core::intrinsics::copy_nonoverlapping
; Function Attrs: inlinehint nonlazybind uwtable
define internal void @_ZN4core10intrinsics19copy_nonoverlapping17h5c8df3309f91cf5eE({ i8*, i64 }* %src, { i8*, i64 }* %dst, i64 %count) unnamed_addr #0 {
start:
  %0 = mul i64 16, %count
  %1 = bitcast { i8*, i64 }* %dst to i8*
  %2 = bitcast { i8*, i64 }* %src to i8*
  call void @llvm.memcpy.p0i8.p0i8.i64(i8* align 8 %1, i8* align 8 %2, i64 %0, i1 false)
  br label %bb1

bb1:                                              ; preds = %start
  ret void
}

; core::intrinsics::copy_nonoverlapping
; Function Attrs: inlinehint nonlazybind uwtable
define internal void @_ZN4core10intrinsics19copy_nonoverlapping17h5e5a55767a224286E(i8* %src, i8* %dst, i64 %count) unnamed_addr #0 {
start:
  %0 = mul i64 1, %count
  call void @llvm.memcpy.p0i8.p0i8.i64(i8* align 1 %dst, i8* align 1 %src, i64 %0, i1 false)
  br label %bb1

bb1:                                              ; preds = %start
  ret void
}

; core::intrinsics::copy_nonoverlapping
; Function Attrs: inlinehint nonlazybind uwtable
define internal void @_ZN4core10intrinsics19copy_nonoverlapping17hf2be61a87952cb10E(%"alloc::alloc::Global"* %src, %"alloc::alloc::Global"* %dst, i64 %count) unnamed_addr #0 {
start:
  %0 = mul i64 0, %count
  %1 = bitcast %"alloc::alloc::Global"* %dst to i8*
  %2 = bitcast %"alloc::alloc::Global"* %src to i8*
  call void @llvm.memcpy.p0i8.p0i8.i64(i8* align 1 %1, i8* align 1 %2, i64 %0, i1 false)
  br label %bb1

bb1:                                              ; preds = %start
  ret void
}

; core::any::TypeId::of
; Function Attrs: nonlazybind uwtable
define internal i64 @_ZN4core3any6TypeId2of17h302339bb857f123bE() unnamed_addr #1 {
start:
  %tmp_ret = alloca i64, align 8
  %_0 = alloca i64, align 8
  store i64 7549865886324542212, i64* %tmp_ret, align 8
  %0 = load i64, i64* %tmp_ret, align 8
  br label %bb1

bb1:                                              ; preds = %start
  store i64 %0, i64* %_0, align 8
  %1 = load i64, i64* %_0, align 8
  ret i64 %1
}

; core::any::TypeId::of
; Function Attrs: nonlazybind uwtable
define internal i64 @_ZN4core3any6TypeId2of17ha33c34132dfab004E() unnamed_addr #1 {
start:
  %tmp_ret = alloca i64, align 8
  %_0 = alloca i64, align 8
  store i64 1229646359891580772, i64* %tmp_ret, align 8
  %0 = load i64, i64* %tmp_ret, align 8
  br label %bb1

bb1:                                              ; preds = %start
  store i64 %0, i64* %_0, align 8
  %1 = load i64, i64* %_0, align 8
  ret i64 %1
}

; core::cmp::Ord::max
; Function Attrs: inlinehint nonlazybind uwtable
define internal i64 @_ZN4core3cmp3Ord3max17h96cadf1280d1d535E(i64, i64) unnamed_addr #0 personality i32 (i32, i32, i64, %"unwind::libunwind::_Unwind_Exception"*, %"unwind::libunwind::_Unwind_Context"*)* @rust_eh_personality {
start:
  %personalityslot = alloca { i8*, i32 }, align 8
  %_7 = alloca i8, align 1
  %_6 = alloca i8, align 1
  %_0 = alloca i64, align 8
  %other = alloca i64, align 8
  %self = alloca i64, align 8
  store i64 %0, i64* %self, align 8
  store i64 %1, i64* %other, align 8
  store i8 0, i8* %_6, align 1
  store i8 0, i8* %_7, align 1
  store i8 1, i8* %_6, align 1
  store i8 1, i8* %_7, align 1
; invoke core::cmp::impls::<impl core::cmp::PartialOrd for usize>::ge
  %2 = invoke zeroext i1 @"_ZN4core3cmp5impls57_$LT$impl$u20$core..cmp..PartialOrd$u20$for$u20$usize$GT$2ge17h744d710afb0d3c65E"(i64* noalias readonly align 8 dereferenceable(8) %other, i64* noalias readonly align 8 dereferenceable(8) %self)
          to label %bb2 unwind label %cleanup

bb1:                                              ; preds = %bb10, %bb3
  %3 = bitcast { i8*, i32 }* %personalityslot to i8**
  %4 = load i8*, i8** %3, align 8
  %5 = getelementptr inbounds { i8*, i32 }, { i8*, i32 }* %personalityslot, i32 0, i32 1
  %6 = load i32, i32* %5, align 8
  %7 = insertvalue { i8*, i32 } undef, i8* %4, 0
  %8 = insertvalue { i8*, i32 } %7, i32 %6, 1
  resume { i8*, i32 } %8

bb2:                                              ; preds = %start
  br i1 %2, label %bb5, label %bb6

bb3:                                              ; preds = %bb4
  %9 = load i8, i8* %_6, align 1, !range !3
  %10 = trunc i8 %9 to i1
  br i1 %10, label %bb10, label %bb1

bb4:                                              ; preds = %cleanup
  store i8 0, i8* %_7, align 1
  br label %bb3

bb5:                                              ; preds = %bb2
  store i8 0, i8* %_7, align 1
  %11 = load i64, i64* %other, align 8
  store i64 %11, i64* %_0, align 8
  br label %bb7

bb6:                                              ; preds = %bb2
  store i8 0, i8* %_6, align 1
  %12 = load i64, i64* %self, align 8
  store i64 %12, i64* %_0, align 8
  br label %bb7

bb7:                                              ; preds = %bb6, %bb5
  %13 = load i8, i8* %_7, align 1, !range !3
  %14 = trunc i8 %13 to i1
  br i1 %14, label %bb11, label %bb8

bb8:                                              ; preds = %bb11, %bb7
  %15 = load i8, i8* %_6, align 1, !range !3
  %16 = trunc i8 %15 to i1
  br i1 %16, label %bb12, label %bb9

bb9:                                              ; preds = %bb12, %bb8
  %17 = load i64, i64* %_0, align 8
  ret i64 %17

bb10:                                             ; preds = %bb3
  store i8 0, i8* %_6, align 1
  br label %bb1

bb11:                                             ; preds = %bb7
  store i8 0, i8* %_7, align 1
  br label %bb8

bb12:                                             ; preds = %bb8
  store i8 0, i8* %_6, align 1
  br label %bb9

cleanup:                                          ; preds = %start
  %18 = landingpad { i8*, i32 }
          cleanup
  %19 = extractvalue { i8*, i32 } %18, 0
  %20 = extractvalue { i8*, i32 } %18, 1
  %21 = getelementptr inbounds { i8*, i32 }, { i8*, i32 }* %personalityslot, i32 0, i32 0
  store i8* %19, i8** %21, align 8
  %22 = getelementptr inbounds { i8*, i32 }, { i8*, i32 }* %personalityslot, i32 0, i32 1
  store i32 %20, i32* %22, align 8
  br label %bb4
}

; core::cmp::Ord::min
; Function Attrs: inlinehint nonlazybind uwtable
define internal i64 @_ZN4core3cmp3Ord3min17hff8e74b730297f5aE(i64, i64) unnamed_addr #0 personality i32 (i32, i32, i64, %"unwind::libunwind::_Unwind_Exception"*, %"unwind::libunwind::_Unwind_Context"*)* @rust_eh_personality {
start:
  %personalityslot = alloca { i8*, i32 }, align 8
  %_7 = alloca i8, align 1
  %_6 = alloca i8, align 1
  %_0 = alloca i64, align 8
  %other = alloca i64, align 8
  %self = alloca i64, align 8
  store i64 %0, i64* %self, align 8
  store i64 %1, i64* %other, align 8
  store i8 0, i8* %_6, align 1
  store i8 0, i8* %_7, align 1
  store i8 1, i8* %_6, align 1
  store i8 1, i8* %_7, align 1
; invoke core::cmp::impls::<impl core::cmp::PartialOrd for usize>::le
  %2 = invoke zeroext i1 @"_ZN4core3cmp5impls57_$LT$impl$u20$core..cmp..PartialOrd$u20$for$u20$usize$GT$2le17h48f2e55825e4953dE"(i64* noalias readonly align 8 dereferenceable(8) %self, i64* noalias readonly align 8 dereferenceable(8) %other)
          to label %bb2 unwind label %cleanup

bb1:                                              ; preds = %bb10, %bb3
  %3 = bitcast { i8*, i32 }* %personalityslot to i8**
  %4 = load i8*, i8** %3, align 8
  %5 = getelementptr inbounds { i8*, i32 }, { i8*, i32 }* %personalityslot, i32 0, i32 1
  %6 = load i32, i32* %5, align 8
  %7 = insertvalue { i8*, i32 } undef, i8* %4, 0
  %8 = insertvalue { i8*, i32 } %7, i32 %6, 1
  resume { i8*, i32 } %8

bb2:                                              ; preds = %start
  br i1 %2, label %bb5, label %bb6

bb3:                                              ; preds = %bb4
  %9 = load i8, i8* %_6, align 1, !range !3
  %10 = trunc i8 %9 to i1
  br i1 %10, label %bb10, label %bb1

bb4:                                              ; preds = %cleanup
  store i8 0, i8* %_7, align 1
  br label %bb3

bb5:                                              ; preds = %bb2
  store i8 0, i8* %_6, align 1
  %11 = load i64, i64* %self, align 8
  store i64 %11, i64* %_0, align 8
  br label %bb7

bb6:                                              ; preds = %bb2
  store i8 0, i8* %_7, align 1
  %12 = load i64, i64* %other, align 8
  store i64 %12, i64* %_0, align 8
  br label %bb7

bb7:                                              ; preds = %bb6, %bb5
  %13 = load i8, i8* %_7, align 1, !range !3
  %14 = trunc i8 %13 to i1
  br i1 %14, label %bb11, label %bb8

bb8:                                              ; preds = %bb11, %bb7
  %15 = load i8, i8* %_6, align 1, !range !3
  %16 = trunc i8 %15 to i1
  br i1 %16, label %bb12, label %bb9

bb9:                                              ; preds = %bb12, %bb8
  %17 = load i64, i64* %_0, align 8
  ret i64 %17

bb10:                                             ; preds = %bb3
  store i8 0, i8* %_6, align 1
  br label %bb1

bb11:                                             ; preds = %bb7
  store i8 0, i8* %_7, align 1
  br label %bb8

bb12:                                             ; preds = %bb8
  store i8 0, i8* %_6, align 1
  br label %bb9

cleanup:                                          ; preds = %start
  %18 = landingpad { i8*, i32 }
          cleanup
  %19 = extractvalue { i8*, i32 } %18, 0
  %20 = extractvalue { i8*, i32 } %18, 1
  %21 = getelementptr inbounds { i8*, i32 }, { i8*, i32 }* %personalityslot, i32 0, i32 0
  store i8* %19, i8** %21, align 8
  %22 = getelementptr inbounds { i8*, i32 }, { i8*, i32 }* %personalityslot, i32 0, i32 1
  store i32 %20, i32* %22, align 8
  br label %bb4
}

; core::cmp::max
; Function Attrs: inlinehint nonlazybind uwtable
define internal i64 @_ZN4core3cmp3max17h3da27b910449c668E(i64 %v1, i64 %v2) unnamed_addr #0 {
start:
; call core::cmp::Ord::max
  %0 = call i64 @_ZN4core3cmp3Ord3max17h96cadf1280d1d535E(i64 %v1, i64 %v2)
  br label %bb1

bb1:                                              ; preds = %start
  ret i64 %0
}

; core::cmp::min
; Function Attrs: inlinehint nonlazybind uwtable
define internal i64 @_ZN4core3cmp3min17h5fe1caffa6b3da49E(i64 %v1, i64 %v2) unnamed_addr #0 {
start:
; call core::cmp::Ord::min
  %0 = call i64 @_ZN4core3cmp3Ord3min17hff8e74b730297f5aE(i64 %v1, i64 %v2)
  br label %bb1

bb1:                                              ; preds = %start
  ret i64 %0
}

; core::cmp::impls::<impl core::cmp::PartialOrd for usize>::ge
; Function Attrs: inlinehint nonlazybind uwtable
define internal zeroext i1 @"_ZN4core3cmp5impls57_$LT$impl$u20$core..cmp..PartialOrd$u20$for$u20$usize$GT$2ge17h744d710afb0d3c65E"(i64* noalias readonly align 8 dereferenceable(8) %self, i64* noalias readonly align 8 dereferenceable(8) %other) unnamed_addr #0 {
start:
  %0 = load i64, i64* %self, align 8
  %1 = load i64, i64* %other, align 8
  %2 = icmp uge i64 %0, %1
  ret i1 %2
}

; core::cmp::impls::<impl core::cmp::PartialOrd for usize>::le
; Function Attrs: inlinehint nonlazybind uwtable
define internal zeroext i1 @"_ZN4core3cmp5impls57_$LT$impl$u20$core..cmp..PartialOrd$u20$for$u20$usize$GT$2le17h48f2e55825e4953dE"(i64* noalias readonly align 8 dereferenceable(8) %self, i64* noalias readonly align 8 dereferenceable(8) %other) unnamed_addr #0 {
start:
  %0 = load i64, i64* %self, align 8
  %1 = load i64, i64* %other, align 8
  %2 = icmp ule i64 %0, %1
  ret i1 %2
}

; core::cmp::impls::<impl core::cmp::PartialEq<&B> for &A>::eq
; Function Attrs: inlinehint nonlazybind uwtable
define internal zeroext i1 @"_ZN4core3cmp5impls69_$LT$impl$u20$core..cmp..PartialEq$LT$$RF$B$GT$$u20$for$u20$$RF$A$GT$2eq17h2a349559795d63ccE"({ [0 x i8]*, i64 }* noalias readonly align 8 dereferenceable(16) %self, { [0 x i8]*, i64 }* noalias readonly align 8 dereferenceable(16) %other) unnamed_addr #0 {
start:
  %0 = getelementptr inbounds { [0 x i8]*, i64 }, { [0 x i8]*, i64 }* %self, i32 0, i32 0
  %1 = load [0 x i8]*, [0 x i8]** %0, align 8, !nonnull !2
  %2 = getelementptr inbounds { [0 x i8]*, i64 }, { [0 x i8]*, i64 }* %self, i32 0, i32 1
  %3 = load i64, i64* %2, align 8
  %4 = getelementptr inbounds { [0 x i8]*, i64 }, { [0 x i8]*, i64 }* %other, i32 0, i32 0
  %5 = load [0 x i8]*, [0 x i8]** %4, align 8, !nonnull !2
  %6 = getelementptr inbounds { [0 x i8]*, i64 }, { [0 x i8]*, i64 }* %other, i32 0, i32 1
  %7 = load i64, i64* %6, align 8
; call core::str::traits::<impl core::cmp::PartialEq for str>::eq
  %8 = call zeroext i1 @"_ZN4core3str6traits54_$LT$impl$u20$core..cmp..PartialEq$u20$for$u20$str$GT$2eq17h78f85f1c53e4e4c9E"([0 x i8]* noalias nonnull readonly align 1 %1, i64 %3, [0 x i8]* noalias nonnull readonly align 1 %5, i64 %7)
  br label %bb1

bb1:                                              ; preds = %start
  ret i1 %8
}

; core::cmp::impls::<impl core::cmp::PartialEq<&B> for &A>::eq
; Function Attrs: inlinehint nonlazybind uwtable
define internal zeroext i1 @"_ZN4core3cmp5impls69_$LT$impl$u20$core..cmp..PartialEq$LT$$RF$B$GT$$u20$for$u20$$RF$A$GT$2eq17hda97e4a8ae3b1fbcE"({ [0 x i8]*, i64 }* noalias readonly align 8 dereferenceable(16) %self, { [0 x i8]*, i64 }* noalias readonly align 8 dereferenceable(16) %other) unnamed_addr #0 {
start:
  %0 = getelementptr inbounds { [0 x i8]*, i64 }, { [0 x i8]*, i64 }* %self, i32 0, i32 0
  %1 = load [0 x i8]*, [0 x i8]** %0, align 8, !nonnull !2
  %2 = getelementptr inbounds { [0 x i8]*, i64 }, { [0 x i8]*, i64 }* %self, i32 0, i32 1
  %3 = load i64, i64* %2, align 8
  %4 = getelementptr inbounds { [0 x i8]*, i64 }, { [0 x i8]*, i64 }* %other, i32 0, i32 0
  %5 = load [0 x i8]*, [0 x i8]** %4, align 8, !nonnull !2
  %6 = getelementptr inbounds { [0 x i8]*, i64 }, { [0 x i8]*, i64 }* %other, i32 0, i32 1
  %7 = load i64, i64* %6, align 8
; call core::slice::<impl core::cmp::PartialEq<[B]> for [A]>::eq
  %8 = call zeroext i1 @"_ZN4core5slice81_$LT$impl$u20$core..cmp..PartialEq$LT$$u5b$B$u5d$$GT$$u20$for$u20$$u5b$A$u5d$$GT$2eq17hd798ecba6f7e74b9E"([0 x i8]* noalias nonnull readonly align 1 %1, i64 %3, [0 x i8]* noalias nonnull readonly align 1 %5, i64 %7)
  br label %bb1

bb1:                                              ; preds = %start
  ret i1 %8
}

; core::fmt::ArgumentV1::new
; Function Attrs: nonlazybind uwtable
define internal { i8*, i8* } @_ZN4core3fmt10ArgumentV13new17h874f9884860177e6E(i32* noalias readonly align 4 dereferenceable(4) %x, i1 (i32*, %"core::fmt::Formatter"*)* nonnull %f) unnamed_addr #1 {
start:
  %transmute_temp1 = alloca %"core::fmt::Void"*, align 8
  %transmute_temp = alloca i1 (%"core::fmt::Void"*, %"core::fmt::Formatter"*)*, align 8
  %_0 = alloca { i8*, i8* }, align 8
  %0 = bitcast i1 (%"core::fmt::Void"*, %"core::fmt::Formatter"*)** %transmute_temp to i1 (i32*, %"core::fmt::Formatter"*)**
  store i1 (i32*, %"core::fmt::Formatter"*)* %f, i1 (i32*, %"core::fmt::Formatter"*)** %0, align 8
  %1 = load i1 (%"core::fmt::Void"*, %"core::fmt::Formatter"*)*, i1 (%"core::fmt::Void"*, %"core::fmt::Formatter"*)** %transmute_temp, align 8, !nonnull !2
  br label %bb1

bb1:                                              ; preds = %start
  %2 = bitcast %"core::fmt::Void"** %transmute_temp1 to i32**
  store i32* %x, i32** %2, align 8
  %3 = load %"core::fmt::Void"*, %"core::fmt::Void"** %transmute_temp1, align 8, !nonnull !2
  br label %bb2

bb2:                                              ; preds = %bb1
  %4 = bitcast { i8*, i8* }* %_0 to %"core::fmt::Void"**
  store %"core::fmt::Void"* %3, %"core::fmt::Void"** %4, align 8
  %5 = getelementptr inbounds { i8*, i8* }, { i8*, i8* }* %_0, i32 0, i32 1
  %6 = bitcast i8** %5 to i1 (%"core::fmt::Void"*, %"core::fmt::Formatter"*)**
  store i1 (%"core::fmt::Void"*, %"core::fmt::Formatter"*)* %1, i1 (%"core::fmt::Void"*, %"core::fmt::Formatter"*)** %6, align 8
  %7 = getelementptr inbounds { i8*, i8* }, { i8*, i8* }* %_0, i32 0, i32 0
  %8 = load i8*, i8** %7, align 8, !nonnull !2
  %9 = getelementptr inbounds { i8*, i8* }, { i8*, i8* }* %_0, i32 0, i32 1
  %10 = load i8*, i8** %9, align 8, !nonnull !2
  %11 = insertvalue { i8*, i8* } undef, i8* %8, 0
  %12 = insertvalue { i8*, i8* } %11, i8* %10, 1
  ret { i8*, i8* } %12
}

; core::fmt::ArgumentV1::new
; Function Attrs: nonlazybind uwtable
define internal { i8*, i8* } @_ZN4core3fmt10ArgumentV13new17h932ee9f760cc8792E({ i8*, i64 }* noalias readonly align 8 dereferenceable(16) %x, i1 ({ i8*, i64 }*, %"core::fmt::Formatter"*)* nonnull %f) unnamed_addr #1 {
start:
  %transmute_temp1 = alloca %"core::fmt::Void"*, align 8
  %transmute_temp = alloca i1 (%"core::fmt::Void"*, %"core::fmt::Formatter"*)*, align 8
  %_0 = alloca { i8*, i8* }, align 8
  %0 = bitcast i1 (%"core::fmt::Void"*, %"core::fmt::Formatter"*)** %transmute_temp to i1 ({ i8*, i64 }*, %"core::fmt::Formatter"*)**
  store i1 ({ i8*, i64 }*, %"core::fmt::Formatter"*)* %f, i1 ({ i8*, i64 }*, %"core::fmt::Formatter"*)** %0, align 8
  %1 = load i1 (%"core::fmt::Void"*, %"core::fmt::Formatter"*)*, i1 (%"core::fmt::Void"*, %"core::fmt::Formatter"*)** %transmute_temp, align 8, !nonnull !2
  br label %bb1

bb1:                                              ; preds = %start
  %2 = bitcast %"core::fmt::Void"** %transmute_temp1 to { i8*, i64 }**
  store { i8*, i64 }* %x, { i8*, i64 }** %2, align 8
  %3 = load %"core::fmt::Void"*, %"core::fmt::Void"** %transmute_temp1, align 8, !nonnull !2
  br label %bb2

bb2:                                              ; preds = %bb1
  %4 = bitcast { i8*, i8* }* %_0 to %"core::fmt::Void"**
  store %"core::fmt::Void"* %3, %"core::fmt::Void"** %4, align 8
  %5 = getelementptr inbounds { i8*, i8* }, { i8*, i8* }* %_0, i32 0, i32 1
  %6 = bitcast i8** %5 to i1 (%"core::fmt::Void"*, %"core::fmt::Formatter"*)**
  store i1 (%"core::fmt::Void"*, %"core::fmt::Formatter"*)* %1, i1 (%"core::fmt::Void"*, %"core::fmt::Formatter"*)** %6, align 8
  %7 = getelementptr inbounds { i8*, i8* }, { i8*, i8* }* %_0, i32 0, i32 0
  %8 = load i8*, i8** %7, align 8, !nonnull !2
  %9 = getelementptr inbounds { i8*, i8* }, { i8*, i8* }* %_0, i32 0, i32 1
  %10 = load i8*, i8** %9, align 8, !nonnull !2
  %11 = insertvalue { i8*, i8* } undef, i8* %8, 0
  %12 = insertvalue { i8*, i8* } %11, i8* %10, 1
  ret { i8*, i8* } %12
}

; core::fmt::ArgumentV1::new
; Function Attrs: nonlazybind uwtable
define internal { i8*, i8* } @_ZN4core3fmt10ArgumentV13new17h9af8e774b0b45ac0E({ [0 x i8]*, i64 }* noalias readonly align 8 dereferenceable(16) %x, i1 ({ [0 x i8]*, i64 }*, %"core::fmt::Formatter"*)* nonnull %f) unnamed_addr #1 {
start:
  %transmute_temp1 = alloca %"core::fmt::Void"*, align 8
  %transmute_temp = alloca i1 (%"core::fmt::Void"*, %"core::fmt::Formatter"*)*, align 8
  %_0 = alloca { i8*, i8* }, align 8
  %0 = bitcast i1 (%"core::fmt::Void"*, %"core::fmt::Formatter"*)** %transmute_temp to i1 ({ [0 x i8]*, i64 }*, %"core::fmt::Formatter"*)**
  store i1 ({ [0 x i8]*, i64 }*, %"core::fmt::Formatter"*)* %f, i1 ({ [0 x i8]*, i64 }*, %"core::fmt::Formatter"*)** %0, align 8
  %1 = load i1 (%"core::fmt::Void"*, %"core::fmt::Formatter"*)*, i1 (%"core::fmt::Void"*, %"core::fmt::Formatter"*)** %transmute_temp, align 8, !nonnull !2
  br label %bb1

bb1:                                              ; preds = %start
  %2 = bitcast %"core::fmt::Void"** %transmute_temp1 to { [0 x i8]*, i64 }**
  store { [0 x i8]*, i64 }* %x, { [0 x i8]*, i64 }** %2, align 8
  %3 = load %"core::fmt::Void"*, %"core::fmt::Void"** %transmute_temp1, align 8, !nonnull !2
  br label %bb2

bb2:                                              ; preds = %bb1
  %4 = bitcast { i8*, i8* }* %_0 to %"core::fmt::Void"**
  store %"core::fmt::Void"* %3, %"core::fmt::Void"** %4, align 8
  %5 = getelementptr inbounds { i8*, i8* }, { i8*, i8* }* %_0, i32 0, i32 1
  %6 = bitcast i8** %5 to i1 (%"core::fmt::Void"*, %"core::fmt::Formatter"*)**
  store i1 (%"core::fmt::Void"*, %"core::fmt::Formatter"*)* %1, i1 (%"core::fmt::Void"*, %"core::fmt::Formatter"*)** %6, align 8
  %7 = getelementptr inbounds { i8*, i8* }, { i8*, i8* }* %_0, i32 0, i32 0
  %8 = load i8*, i8** %7, align 8, !nonnull !2
  %9 = getelementptr inbounds { i8*, i8* }, { i8*, i8* }* %_0, i32 0, i32 1
  %10 = load i8*, i8** %9, align 8, !nonnull !2
  %11 = insertvalue { i8*, i8* } undef, i8* %8, 0
  %12 = insertvalue { i8*, i8* } %11, i8* %10, 1
  ret { i8*, i8* } %12
}

; core::fmt::ArgumentV1::new
; Function Attrs: nonlazybind uwtable
define internal { i8*, i8* } @_ZN4core3fmt10ArgumentV13new17h9f4f20278ede914bE(%"core::alloc::LayoutErr"* noalias nonnull readonly align 1 %x, i1 (%"core::alloc::LayoutErr"*, %"core::fmt::Formatter"*)* nonnull %f) unnamed_addr #1 {
start:
  %transmute_temp1 = alloca %"core::fmt::Void"*, align 8
  %transmute_temp = alloca i1 (%"core::fmt::Void"*, %"core::fmt::Formatter"*)*, align 8
  %_0 = alloca { i8*, i8* }, align 8
  %0 = bitcast i1 (%"core::fmt::Void"*, %"core::fmt::Formatter"*)** %transmute_temp to i1 (%"core::alloc::LayoutErr"*, %"core::fmt::Formatter"*)**
  store i1 (%"core::alloc::LayoutErr"*, %"core::fmt::Formatter"*)* %f, i1 (%"core::alloc::LayoutErr"*, %"core::fmt::Formatter"*)** %0, align 8
  %1 = load i1 (%"core::fmt::Void"*, %"core::fmt::Formatter"*)*, i1 (%"core::fmt::Void"*, %"core::fmt::Formatter"*)** %transmute_temp, align 8, !nonnull !2
  br label %bb1

bb1:                                              ; preds = %start
  %2 = bitcast %"core::fmt::Void"** %transmute_temp1 to %"core::alloc::LayoutErr"**
  store %"core::alloc::LayoutErr"* %x, %"core::alloc::LayoutErr"** %2, align 8
  %3 = load %"core::fmt::Void"*, %"core::fmt::Void"** %transmute_temp1, align 8, !nonnull !2
  br label %bb2

bb2:                                              ; preds = %bb1
  %4 = bitcast { i8*, i8* }* %_0 to %"core::fmt::Void"**
  store %"core::fmt::Void"* %3, %"core::fmt::Void"** %4, align 8
  %5 = getelementptr inbounds { i8*, i8* }, { i8*, i8* }* %_0, i32 0, i32 1
  %6 = bitcast i8** %5 to i1 (%"core::fmt::Void"*, %"core::fmt::Formatter"*)**
  store i1 (%"core::fmt::Void"*, %"core::fmt::Formatter"*)* %1, i1 (%"core::fmt::Void"*, %"core::fmt::Formatter"*)** %6, align 8
  %7 = getelementptr inbounds { i8*, i8* }, { i8*, i8* }* %_0, i32 0, i32 0
  %8 = load i8*, i8** %7, align 8, !nonnull !2
  %9 = getelementptr inbounds { i8*, i8* }, { i8*, i8* }* %_0, i32 0, i32 1
  %10 = load i8*, i8** %9, align 8, !nonnull !2
  %11 = insertvalue { i8*, i8* } undef, i8* %8, 0
  %12 = insertvalue { i8*, i8* } %11, i8* %10, 1
  ret { i8*, i8* } %12
}

; core::fmt::ArgumentV1::new
; Function Attrs: nonlazybind uwtable
define internal { i8*, i8* } @_ZN4core3fmt10ArgumentV13new17hb22ab475cf5c6e21E(i64* noalias readonly align 8 dereferenceable(8) %x, i1 (i64*, %"core::fmt::Formatter"*)* nonnull %f) unnamed_addr #1 {
start:
  %transmute_temp1 = alloca %"core::fmt::Void"*, align 8
  %transmute_temp = alloca i1 (%"core::fmt::Void"*, %"core::fmt::Formatter"*)*, align 8
  %_0 = alloca { i8*, i8* }, align 8
  %0 = bitcast i1 (%"core::fmt::Void"*, %"core::fmt::Formatter"*)** %transmute_temp to i1 (i64*, %"core::fmt::Formatter"*)**
  store i1 (i64*, %"core::fmt::Formatter"*)* %f, i1 (i64*, %"core::fmt::Formatter"*)** %0, align 8
  %1 = load i1 (%"core::fmt::Void"*, %"core::fmt::Formatter"*)*, i1 (%"core::fmt::Void"*, %"core::fmt::Formatter"*)** %transmute_temp, align 8, !nonnull !2
  br label %bb1

bb1:                                              ; preds = %start
  %2 = bitcast %"core::fmt::Void"** %transmute_temp1 to i64**
  store i64* %x, i64** %2, align 8
  %3 = load %"core::fmt::Void"*, %"core::fmt::Void"** %transmute_temp1, align 8, !nonnull !2
  br label %bb2

bb2:                                              ; preds = %bb1
  %4 = bitcast { i8*, i8* }* %_0 to %"core::fmt::Void"**
  store %"core::fmt::Void"* %3, %"core::fmt::Void"** %4, align 8
  %5 = getelementptr inbounds { i8*, i8* }, { i8*, i8* }* %_0, i32 0, i32 1
  %6 = bitcast i8** %5 to i1 (%"core::fmt::Void"*, %"core::fmt::Formatter"*)**
  store i1 (%"core::fmt::Void"*, %"core::fmt::Formatter"*)* %1, i1 (%"core::fmt::Void"*, %"core::fmt::Formatter"*)** %6, align 8
  %7 = getelementptr inbounds { i8*, i8* }, { i8*, i8* }* %_0, i32 0, i32 0
  %8 = load i8*, i8** %7, align 8, !nonnull !2
  %9 = getelementptr inbounds { i8*, i8* }, { i8*, i8* }* %_0, i32 0, i32 1
  %10 = load i8*, i8** %9, align 8, !nonnull !2
  %11 = insertvalue { i8*, i8* } undef, i8* %8, 0
  %12 = insertvalue { i8*, i8* } %11, i8* %10, 1
  ret { i8*, i8* } %12
}

; core::fmt::ArgumentV1::new
; Function Attrs: nonlazybind uwtable
define internal { i8*, i8* } @_ZN4core3fmt10ArgumentV13new17hb39a036a1d06b306E(i64** noalias readonly align 8 dereferenceable(8) %x, i1 (i64**, %"core::fmt::Formatter"*)* nonnull %f) unnamed_addr #1 {
start:
  %transmute_temp1 = alloca %"core::fmt::Void"*, align 8
  %transmute_temp = alloca i1 (%"core::fmt::Void"*, %"core::fmt::Formatter"*)*, align 8
  %_0 = alloca { i8*, i8* }, align 8
  %0 = bitcast i1 (%"core::fmt::Void"*, %"core::fmt::Formatter"*)** %transmute_temp to i1 (i64**, %"core::fmt::Formatter"*)**
  store i1 (i64**, %"core::fmt::Formatter"*)* %f, i1 (i64**, %"core::fmt::Formatter"*)** %0, align 8
  %1 = load i1 (%"core::fmt::Void"*, %"core::fmt::Formatter"*)*, i1 (%"core::fmt::Void"*, %"core::fmt::Formatter"*)** %transmute_temp, align 8, !nonnull !2
  br label %bb1

bb1:                                              ; preds = %start
  %2 = bitcast %"core::fmt::Void"** %transmute_temp1 to i64***
  store i64** %x, i64*** %2, align 8
  %3 = load %"core::fmt::Void"*, %"core::fmt::Void"** %transmute_temp1, align 8, !nonnull !2
  br label %bb2

bb2:                                              ; preds = %bb1
  %4 = bitcast { i8*, i8* }* %_0 to %"core::fmt::Void"**
  store %"core::fmt::Void"* %3, %"core::fmt::Void"** %4, align 8
  %5 = getelementptr inbounds { i8*, i8* }, { i8*, i8* }* %_0, i32 0, i32 1
  %6 = bitcast i8** %5 to i1 (%"core::fmt::Void"*, %"core::fmt::Formatter"*)**
  store i1 (%"core::fmt::Void"*, %"core::fmt::Formatter"*)* %1, i1 (%"core::fmt::Void"*, %"core::fmt::Formatter"*)** %6, align 8
  %7 = getelementptr inbounds { i8*, i8* }, { i8*, i8* }* %_0, i32 0, i32 0
  %8 = load i8*, i8** %7, align 8, !nonnull !2
  %9 = getelementptr inbounds { i8*, i8* }, { i8*, i8* }* %_0, i32 0, i32 1
  %10 = load i8*, i8** %9, align 8, !nonnull !2
  %11 = insertvalue { i8*, i8* } undef, i8* %8, 0
  %12 = insertvalue { i8*, i8* } %11, i8* %10, 1
  ret { i8*, i8* } %12
}

; core::fmt::ArgumentV1::new
; Function Attrs: nonlazybind uwtable
define internal { i8*, i8* } @_ZN4core3fmt10ArgumentV13new17hbf867313cc1a17a6E(%"core::fmt::Arguments"* noalias readonly align 8 dereferenceable(48) %x, i1 (%"core::fmt::Arguments"*, %"core::fmt::Formatter"*)* nonnull %f) unnamed_addr #1 {
start:
  %transmute_temp1 = alloca %"core::fmt::Void"*, align 8
  %transmute_temp = alloca i1 (%"core::fmt::Void"*, %"core::fmt::Formatter"*)*, align 8
  %_0 = alloca { i8*, i8* }, align 8
  %0 = bitcast i1 (%"core::fmt::Void"*, %"core::fmt::Formatter"*)** %transmute_temp to i1 (%"core::fmt::Arguments"*, %"core::fmt::Formatter"*)**
  store i1 (%"core::fmt::Arguments"*, %"core::fmt::Formatter"*)* %f, i1 (%"core::fmt::Arguments"*, %"core::fmt::Formatter"*)** %0, align 8
  %1 = load i1 (%"core::fmt::Void"*, %"core::fmt::Formatter"*)*, i1 (%"core::fmt::Void"*, %"core::fmt::Formatter"*)** %transmute_temp, align 8, !nonnull !2
  br label %bb1

bb1:                                              ; preds = %start
  %2 = bitcast %"core::fmt::Void"** %transmute_temp1 to %"core::fmt::Arguments"**
  store %"core::fmt::Arguments"* %x, %"core::fmt::Arguments"** %2, align 8
  %3 = load %"core::fmt::Void"*, %"core::fmt::Void"** %transmute_temp1, align 8, !nonnull !2
  br label %bb2

bb2:                                              ; preds = %bb1
  %4 = bitcast { i8*, i8* }* %_0 to %"core::fmt::Void"**
  store %"core::fmt::Void"* %3, %"core::fmt::Void"** %4, align 8
  %5 = getelementptr inbounds { i8*, i8* }, { i8*, i8* }* %_0, i32 0, i32 1
  %6 = bitcast i8** %5 to i1 (%"core::fmt::Void"*, %"core::fmt::Formatter"*)**
  store i1 (%"core::fmt::Void"*, %"core::fmt::Formatter"*)* %1, i1 (%"core::fmt::Void"*, %"core::fmt::Formatter"*)** %6, align 8
  %7 = getelementptr inbounds { i8*, i8* }, { i8*, i8* }* %_0, i32 0, i32 0
  %8 = load i8*, i8** %7, align 8, !nonnull !2
  %9 = getelementptr inbounds { i8*, i8* }, { i8*, i8* }* %_0, i32 0, i32 1
  %10 = load i8*, i8** %9, align 8, !nonnull !2
  %11 = insertvalue { i8*, i8* } undef, i8* %8, 0
  %12 = insertvalue { i8*, i8* } %11, i8* %10, 1
  ret { i8*, i8* } %12
}

; core::fmt::ArgumentV1::new
; Function Attrs: nonlazybind uwtable
define internal { i8*, i8* } @_ZN4core3fmt10ArgumentV13new17hc350544b00c9b7e5E(%"alloc::vec::Vec<u32>"* noalias readonly align 8 dereferenceable(24) %x, i1 (%"alloc::vec::Vec<u32>"*, %"core::fmt::Formatter"*)* nonnull %f) unnamed_addr #1 {
start:
  %transmute_temp1 = alloca %"core::fmt::Void"*, align 8
  %transmute_temp = alloca i1 (%"core::fmt::Void"*, %"core::fmt::Formatter"*)*, align 8
  %_0 = alloca { i8*, i8* }, align 8
  %0 = bitcast i1 (%"core::fmt::Void"*, %"core::fmt::Formatter"*)** %transmute_temp to i1 (%"alloc::vec::Vec<u32>"*, %"core::fmt::Formatter"*)**
  store i1 (%"alloc::vec::Vec<u32>"*, %"core::fmt::Formatter"*)* %f, i1 (%"alloc::vec::Vec<u32>"*, %"core::fmt::Formatter"*)** %0, align 8
  %1 = load i1 (%"core::fmt::Void"*, %"core::fmt::Formatter"*)*, i1 (%"core::fmt::Void"*, %"core::fmt::Formatter"*)** %transmute_temp, align 8, !nonnull !2
  br label %bb1

bb1:                                              ; preds = %start
  %2 = bitcast %"core::fmt::Void"** %transmute_temp1 to %"alloc::vec::Vec<u32>"**
  store %"alloc::vec::Vec<u32>"* %x, %"alloc::vec::Vec<u32>"** %2, align 8
  %3 = load %"core::fmt::Void"*, %"core::fmt::Void"** %transmute_temp1, align 8, !nonnull !2
  br label %bb2

bb2:                                              ; preds = %bb1
  %4 = bitcast { i8*, i8* }* %_0 to %"core::fmt::Void"**
  store %"core::fmt::Void"* %3, %"core::fmt::Void"** %4, align 8
  %5 = getelementptr inbounds { i8*, i8* }, { i8*, i8* }* %_0, i32 0, i32 1
  %6 = bitcast i8** %5 to i1 (%"core::fmt::Void"*, %"core::fmt::Formatter"*)**
  store i1 (%"core::fmt::Void"*, %"core::fmt::Formatter"*)* %1, i1 (%"core::fmt::Void"*, %"core::fmt::Formatter"*)** %6, align 8
  %7 = getelementptr inbounds { i8*, i8* }, { i8*, i8* }* %_0, i32 0, i32 0
  %8 = load i8*, i8** %7, align 8, !nonnull !2
  %9 = getelementptr inbounds { i8*, i8* }, { i8*, i8* }* %_0, i32 0, i32 1
  %10 = load i8*, i8** %9, align 8, !nonnull !2
  %11 = insertvalue { i8*, i8* } undef, i8* %8, 0
  %12 = insertvalue { i8*, i8* } %11, i8* %10, 1
  ret { i8*, i8* } %12
}

; core::fmt::ArgumentV1::new
; Function Attrs: nonlazybind uwtable
define internal { i8*, i8* } @_ZN4core3fmt10ArgumentV13new17hef692d738a8d9b2bE(%"alloc::string::String"* noalias readonly align 8 dereferenceable(24) %x, i1 (%"alloc::string::String"*, %"core::fmt::Formatter"*)* nonnull %f) unnamed_addr #1 {
start:
  %transmute_temp1 = alloca %"core::fmt::Void"*, align 8
  %transmute_temp = alloca i1 (%"core::fmt::Void"*, %"core::fmt::Formatter"*)*, align 8
  %_0 = alloca { i8*, i8* }, align 8
  %0 = bitcast i1 (%"core::fmt::Void"*, %"core::fmt::Formatter"*)** %transmute_temp to i1 (%"alloc::string::String"*, %"core::fmt::Formatter"*)**
  store i1 (%"alloc::string::String"*, %"core::fmt::Formatter"*)* %f, i1 (%"alloc::string::String"*, %"core::fmt::Formatter"*)** %0, align 8
  %1 = load i1 (%"core::fmt::Void"*, %"core::fmt::Formatter"*)*, i1 (%"core::fmt::Void"*, %"core::fmt::Formatter"*)** %transmute_temp, align 8, !nonnull !2
  br label %bb1

bb1:                                              ; preds = %start
  %2 = bitcast %"core::fmt::Void"** %transmute_temp1 to %"alloc::string::String"**
  store %"alloc::string::String"* %x, %"alloc::string::String"** %2, align 8
  %3 = load %"core::fmt::Void"*, %"core::fmt::Void"** %transmute_temp1, align 8, !nonnull !2
  br label %bb2

bb2:                                              ; preds = %bb1
  %4 = bitcast { i8*, i8* }* %_0 to %"core::fmt::Void"**
  store %"core::fmt::Void"* %3, %"core::fmt::Void"** %4, align 8
  %5 = getelementptr inbounds { i8*, i8* }, { i8*, i8* }* %_0, i32 0, i32 1
  %6 = bitcast i8** %5 to i1 (%"core::fmt::Void"*, %"core::fmt::Formatter"*)**
  store i1 (%"core::fmt::Void"*, %"core::fmt::Formatter"*)* %1, i1 (%"core::fmt::Void"*, %"core::fmt::Formatter"*)** %6, align 8
  %7 = getelementptr inbounds { i8*, i8* }, { i8*, i8* }* %_0, i32 0, i32 0
  %8 = load i8*, i8** %7, align 8, !nonnull !2
  %9 = getelementptr inbounds { i8*, i8* }, { i8*, i8* }* %_0, i32 0, i32 1
  %10 = load i8*, i8** %9, align 8, !nonnull !2
  %11 = insertvalue { i8*, i8* } undef, i8* %8, 0
  %12 = insertvalue { i8*, i8* } %11, i8* %10, 1
  ret { i8*, i8* } %12
}

; core::fmt::num::<impl core::fmt::Debug for u32>::fmt
; Function Attrs: inlinehint nonlazybind uwtable
define internal zeroext i1 @"_ZN4core3fmt3num50_$LT$impl$u20$core..fmt..Debug$u20$for$u20$u32$GT$3fmt17hba92653e7357acb3E"(i32* noalias readonly align 4 dereferenceable(4) %self, %"core::fmt::Formatter"* align 8 dereferenceable(96) %f) unnamed_addr #0 {
start:
  %_0 = alloca i8, align 1
; call core::fmt::Formatter::debug_lower_hex
  %0 = call zeroext i1 @_ZN4core3fmt9Formatter15debug_lower_hex17h9d614193026a11b5E(%"core::fmt::Formatter"* noalias readonly align 8 dereferenceable(96) %f)
  br label %bb1

bb1:                                              ; preds = %start
  br i1 %0, label %bb2, label %bb4

bb2:                                              ; preds = %bb1
; call core::fmt::num::<impl core::fmt::LowerHex for u32>::fmt
  %1 = call zeroext i1 @"_ZN4core3fmt3num53_$LT$impl$u20$core..fmt..LowerHex$u20$for$u20$u32$GT$3fmt17hca6f6aba863375f0E"(i32* noalias readonly align 4 dereferenceable(4) %self, %"core::fmt::Formatter"* align 8 dereferenceable(96) %f)
  %2 = zext i1 %1 to i8
  store i8 %2, i8* %_0, align 1
  br label %bb3

bb3:                                              ; preds = %bb2
  br label %bb11

bb4:                                              ; preds = %bb1
; call core::fmt::Formatter::debug_upper_hex
  %3 = call zeroext i1 @_ZN4core3fmt9Formatter15debug_upper_hex17hb3a17c3af21433f0E(%"core::fmt::Formatter"* noalias readonly align 8 dereferenceable(96) %f)
  br label %bb5

bb5:                                              ; preds = %bb4
  br i1 %3, label %bb6, label %bb8

bb6:                                              ; preds = %bb5
; call core::fmt::num::<impl core::fmt::UpperHex for u32>::fmt
  %4 = call zeroext i1 @"_ZN4core3fmt3num53_$LT$impl$u20$core..fmt..UpperHex$u20$for$u20$u32$GT$3fmt17h6ae37a85cb64b340E"(i32* noalias readonly align 4 dereferenceable(4) %self, %"core::fmt::Formatter"* align 8 dereferenceable(96) %f)
  %5 = zext i1 %4 to i8
  store i8 %5, i8* %_0, align 1
  br label %bb7

bb7:                                              ; preds = %bb6
  br label %bb10

bb8:                                              ; preds = %bb5
; call core::fmt::num::imp::<impl core::fmt::Display for u32>::fmt
  %6 = call zeroext i1 @"_ZN4core3fmt3num3imp52_$LT$impl$u20$core..fmt..Display$u20$for$u20$u32$GT$3fmt17h63c921613965607cE"(i32* noalias readonly align 4 dereferenceable(4) %self, %"core::fmt::Formatter"* align 8 dereferenceable(96) %f)
  %7 = zext i1 %6 to i8
  store i8 %7, i8* %_0, align 1
  br label %bb9

bb9:                                              ; preds = %bb8
  br label %bb10

bb10:                                             ; preds = %bb9, %bb7
  br label %bb11

bb11:                                             ; preds = %bb10, %bb3
  %8 = load i8, i8* %_0, align 1, !range !3
  %9 = trunc i8 %8 to i1
  ret i1 %9
}

; core::fmt::num::<impl core::fmt::Debug for usize>::fmt
; Function Attrs: inlinehint nonlazybind uwtable
define internal zeroext i1 @"_ZN4core3fmt3num52_$LT$impl$u20$core..fmt..Debug$u20$for$u20$usize$GT$3fmt17hbf1ab52420e592d6E"(i64* noalias readonly align 8 dereferenceable(8) %self, %"core::fmt::Formatter"* align 8 dereferenceable(96) %f) unnamed_addr #0 {
start:
  %_0 = alloca i8, align 1
; call core::fmt::Formatter::debug_lower_hex
  %0 = call zeroext i1 @_ZN4core3fmt9Formatter15debug_lower_hex17h9d614193026a11b5E(%"core::fmt::Formatter"* noalias readonly align 8 dereferenceable(96) %f)
  br label %bb1

bb1:                                              ; preds = %start
  br i1 %0, label %bb2, label %bb4

bb2:                                              ; preds = %bb1
; call core::fmt::num::<impl core::fmt::LowerHex for usize>::fmt
  %1 = call zeroext i1 @"_ZN4core3fmt3num55_$LT$impl$u20$core..fmt..LowerHex$u20$for$u20$usize$GT$3fmt17h2752b1e42eb2a06bE"(i64* noalias readonly align 8 dereferenceable(8) %self, %"core::fmt::Formatter"* align 8 dereferenceable(96) %f)
  %2 = zext i1 %1 to i8
  store i8 %2, i8* %_0, align 1
  br label %bb3

bb3:                                              ; preds = %bb2
  br label %bb11

bb4:                                              ; preds = %bb1
; call core::fmt::Formatter::debug_upper_hex
  %3 = call zeroext i1 @_ZN4core3fmt9Formatter15debug_upper_hex17hb3a17c3af21433f0E(%"core::fmt::Formatter"* noalias readonly align 8 dereferenceable(96) %f)
  br label %bb5

bb5:                                              ; preds = %bb4
  br i1 %3, label %bb6, label %bb8

bb6:                                              ; preds = %bb5
; call core::fmt::num::<impl core::fmt::UpperHex for usize>::fmt
  %4 = call zeroext i1 @"_ZN4core3fmt3num55_$LT$impl$u20$core..fmt..UpperHex$u20$for$u20$usize$GT$3fmt17h1f86146cb8056ecbE"(i64* noalias readonly align 8 dereferenceable(8) %self, %"core::fmt::Formatter"* align 8 dereferenceable(96) %f)
  %5 = zext i1 %4 to i8
  store i8 %5, i8* %_0, align 1
  br label %bb7

bb7:                                              ; preds = %bb6
  br label %bb10

bb8:                                              ; preds = %bb5
; call core::fmt::num::imp::<impl core::fmt::Display for usize>::fmt
  %6 = call zeroext i1 @"_ZN4core3fmt3num3imp54_$LT$impl$u20$core..fmt..Display$u20$for$u20$usize$GT$3fmt17hd894ce7814f1f2b4E"(i64* noalias readonly align 8 dereferenceable(8) %self, %"core::fmt::Formatter"* align 8 dereferenceable(96) %f)
  %7 = zext i1 %6 to i8
  store i8 %7, i8* %_0, align 1
  br label %bb9

bb9:                                              ; preds = %bb8
  br label %bb10

bb10:                                             ; preds = %bb9, %bb7
  br label %bb11

bb11:                                             ; preds = %bb10, %bb3
  %8 = load i8, i8* %_0, align 1, !range !3
  %9 = trunc i8 %8 to i1
  ret i1 %9
}

; core::fmt::builders::DebugList::entries
; Function Attrs: nonlazybind uwtable
define internal align 8 dereferenceable(16) %"core::fmt::builders::DebugList"* @_ZN4core3fmt8builders9DebugList7entries17hde1ffe40484c5466E(%"core::fmt::builders::DebugList"* align 8 dereferenceable(16) %self, i32* %entries.0, i32* %entries.1) unnamed_addr #1 personality i32 (i32, i32, i64, %"unwind::libunwind::_Unwind_Exception"*, %"unwind::libunwind::_Unwind_Context"*)* @rust_eh_personality {
start:
  %personalityslot = alloca { i8*, i32 }, align 8
  %_20 = alloca i8, align 1
  %entry = alloca i32*, align 8
  %_8 = alloca i32*, align 8
  %iter = alloca { i32*, i32* }, align 8
  store i8 0, i8* %_20, align 1
; call <I as core::iter::traits::collect::IntoIterator>::into_iter
  %0 = call { i32*, i32* } @"_ZN63_$LT$I$u20$as$u20$core..iter..traits..collect..IntoIterator$GT$9into_iter17h2a98db4360d31616E"(i32* %entries.0, i32* %entries.1)
  %1 = extractvalue { i32*, i32* } %0, 0
  %2 = extractvalue { i32*, i32* } %0, 1
  br label %bb2

bb1:                                              ; preds = %bb4
  %3 = bitcast { i8*, i32 }* %personalityslot to i8**
  %4 = load i8*, i8** %3, align 8
  %5 = getelementptr inbounds { i8*, i32 }, { i8*, i32 }* %personalityslot, i32 0, i32 1
  %6 = load i32, i32* %5, align 8
  %7 = insertvalue { i8*, i32 } undef, i8* %4, 0
  %8 = insertvalue { i8*, i32 } %7, i32 %6, 1
  resume { i8*, i32 } %8

bb2:                                              ; preds = %start
  %9 = getelementptr inbounds { i32*, i32* }, { i32*, i32* }* %iter, i32 0, i32 0
  store i32* %1, i32** %9, align 8
  %10 = getelementptr inbounds { i32*, i32* }, { i32*, i32* }* %iter, i32 0, i32 1
  store i32* %2, i32** %10, align 8
  br label %bb3

bb3:                                              ; preds = %bb12, %bb2
; invoke <core::slice::Iter<T> as core::iter::traits::iterator::Iterator>::next
  %11 = invoke align 4 dereferenceable_or_null(4) i32* @"_ZN85_$LT$core..slice..Iter$LT$T$GT$$u20$as$u20$core..iter..traits..iterator..Iterator$GT$4next17hfc8333dd231bc597E"({ i32*, i32* }* align 8 dereferenceable(16) %iter)
          to label %bb5 unwind label %cleanup

bb4:                                              ; preds = %bb14, %bb15
  br label %bb1

bb5:                                              ; preds = %bb3
  store i32* %11, i32** %_8, align 8
  %12 = bitcast i32** %_8 to {}**
  %13 = load {}*, {}** %12, align 8
  %14 = icmp eq {}* %13, null
  %15 = select i1 %14, i64 0, i64 1
  switch i64 %15, label %bb6 [
    i64 0, label %bb8
    i64 1, label %bb7
  ]

bb6:                                              ; preds = %bb5
  unreachable

bb7:                                              ; preds = %bb5
  %16 = load i32*, i32** %_8, align 8, !nonnull !2
  store i8 1, i8* %_20, align 1
  %17 = bitcast i32** %_8 to {}**
  %18 = load {}*, {}** %17, align 8
  %19 = icmp eq {}* %18, null
  %20 = select i1 %19, i64 0, i64 1
  %21 = icmp eq i64 %20, 1
  br i1 %21, label %bb16, label %bb17

bb8:                                              ; preds = %bb5
  br label %bb9

bb9:                                              ; preds = %bb8
  store i8 0, i8* %_20, align 1
  br label %bb13

bb10:                                             ; preds = %bb16
  br label %bb12

bb11:                                             ; preds = %cleanup1
  br label %bb15

bb12:                                             ; preds = %bb10
  store i8 0, i8* %_20, align 1
  br label %bb3

bb13:                                             ; preds = %bb9
  ret %"core::fmt::builders::DebugList"* %self

bb14:                                             ; preds = %bb15
  store i8 0, i8* %_20, align 1
  br label %bb4

bb15:                                             ; preds = %bb11, %cleanup
  %22 = load i8, i8* %_20, align 1, !range !3
  %23 = trunc i8 %22 to i1
  br i1 %23, label %bb14, label %bb4

bb16:                                             ; preds = %bb17, %bb7
  store i8 0, i8* %_20, align 1
  store i32* %16, i32** %entry, align 8
  %24 = bitcast i32** %entry to {}*
; invoke core::fmt::builders::DebugList::entry
  %25 = invoke align 8 dereferenceable(16) %"core::fmt::builders::DebugList"* @_ZN4core3fmt8builders9DebugList5entry17ha53c3d0af4f15703E(%"core::fmt::builders::DebugList"* align 8 dereferenceable(16) %self, {}* nonnull align 1 %24, [3 x i64]* noalias readonly align 8 dereferenceable(24) bitcast ({ void (i32**)*, i64, i64, i1 (i32**, %"core::fmt::Formatter"*)* }* @vtable.5 to [3 x i64]*))
          to label %bb10 unwind label %cleanup1

bb17:                                             ; preds = %bb7
  br label %bb16

cleanup:                                          ; preds = %bb3
  %26 = landingpad { i8*, i32 }
          cleanup
  %27 = extractvalue { i8*, i32 } %26, 0
  %28 = extractvalue { i8*, i32 } %26, 1
  %29 = getelementptr inbounds { i8*, i32 }, { i8*, i32 }* %personalityslot, i32 0, i32 0
  store i8* %27, i8** %29, align 8
  %30 = getelementptr inbounds { i8*, i32 }, { i8*, i32 }* %personalityslot, i32 0, i32 1
  store i32 %28, i32* %30, align 8
  br label %bb15

cleanup1:                                         ; preds = %bb16
  %31 = landingpad { i8*, i32 }
          cleanup
  %32 = extractvalue { i8*, i32 } %31, 0
  %33 = extractvalue { i8*, i32 } %31, 1
  %34 = getelementptr inbounds { i8*, i32 }, { i8*, i32 }* %personalityslot, i32 0, i32 0
  store i8* %32, i8** %34, align 8
  %35 = getelementptr inbounds { i8*, i32 }, { i8*, i32 }* %personalityslot, i32 0, i32 1
  store i32 %33, i32* %35, align 8
  br label %bb11
}

; core::fmt::Arguments::new_v1
; Function Attrs: inlinehint nonlazybind uwtable
define internal void @_ZN4core3fmt9Arguments6new_v117h38246756a055f81bE(%"core::fmt::Arguments"* noalias nocapture sret dereferenceable(48), [0 x { [0 x i8]*, i64 }]* noalias nonnull readonly align 8 %pieces.0, i64 %pieces.1, [0 x { i8*, i8* }]* noalias nonnull readonly align 8 %args.0, i64 %args.1) unnamed_addr #0 {
start:
  %_4 = alloca { i64*, i64 }, align 8
  %1 = bitcast { i64*, i64 }* %_4 to {}**
  store {}* null, {}** %1, align 8
  %2 = bitcast %"core::fmt::Arguments"* %0 to { [0 x { [0 x i8]*, i64 }]*, i64 }*
  %3 = getelementptr inbounds { [0 x { [0 x i8]*, i64 }]*, i64 }, { [0 x { [0 x i8]*, i64 }]*, i64 }* %2, i32 0, i32 0
  store [0 x { [0 x i8]*, i64 }]* %pieces.0, [0 x { [0 x i8]*, i64 }]** %3, align 8
  %4 = getelementptr inbounds { [0 x { [0 x i8]*, i64 }]*, i64 }, { [0 x { [0 x i8]*, i64 }]*, i64 }* %2, i32 0, i32 1
  store i64 %pieces.1, i64* %4, align 8
  %5 = getelementptr inbounds %"core::fmt::Arguments", %"core::fmt::Arguments"* %0, i32 0, i32 3
  %6 = getelementptr inbounds { i64*, i64 }, { i64*, i64 }* %_4, i32 0, i32 0
  %7 = load i64*, i64** %6, align 8
  %8 = getelementptr inbounds { i64*, i64 }, { i64*, i64 }* %_4, i32 0, i32 1
  %9 = load i64, i64* %8, align 8
  %10 = getelementptr inbounds { i64*, i64 }, { i64*, i64 }* %5, i32 0, i32 0
  store i64* %7, i64** %10, align 8
  %11 = getelementptr inbounds { i64*, i64 }, { i64*, i64 }* %5, i32 0, i32 1
  store i64 %9, i64* %11, align 8
  %12 = getelementptr inbounds %"core::fmt::Arguments", %"core::fmt::Arguments"* %0, i32 0, i32 5
  %13 = getelementptr inbounds { [0 x { i8*, i8* }]*, i64 }, { [0 x { i8*, i8* }]*, i64 }* %12, i32 0, i32 0
  store [0 x { i8*, i8* }]* %args.0, [0 x { i8*, i8* }]** %13, align 8
  %14 = getelementptr inbounds { [0 x { i8*, i8* }]*, i64 }, { [0 x { i8*, i8* }]*, i64 }* %12, i32 0, i32 1
  store i64 %args.1, i64* %14, align 8
  ret void
}

; core::mem::size_of_val
; Function Attrs: inlinehint nonlazybind uwtable
define internal i64 @_ZN4core3mem11size_of_val17hdaba4eecb1b554dbE([0 x i8]* noalias nonnull readonly align 1 %val.0, i64 %val.1) unnamed_addr #0 {
start:
  %tmp_ret = alloca i64, align 8
  %0 = mul i64 %val.1, 1
  store i64 %0, i64* %tmp_ret, align 8
  %1 = load i64, i64* %tmp_ret, align 8
  br label %bb1

bb1:                                              ; preds = %start
  ret i64 %1
}

; core::mem::swap
; Function Attrs: inlinehint nonlazybind uwtable
define internal void @_ZN4core3mem4swap17h46e128fe17a75fbeE({ i8*, i64 }* align 8 dereferenceable(16) %x, { i8*, i64 }* align 8 dereferenceable(16) %y) unnamed_addr #0 {
start:
; call core::ptr::swap_nonoverlapping_one
  call void @_ZN4core3ptr23swap_nonoverlapping_one17h247a5f3ec3ff80bdE({ i8*, i64 }* %x, { i8*, i64 }* %y)
  br label %bb1

bb1:                                              ; preds = %start
  ret void
}

; core::mem::forget
; Function Attrs: inlinehint nonlazybind uwtable
define internal void @_ZN4core3mem6forget17h04e71e6035cec7d8E({}* noalias nonnull align 1 %t.0, [3 x i64]* noalias readonly align 8 dereferenceable(24) %t.1) unnamed_addr #0 {
start:
  %_0.i = alloca { i8*, i64* }, align 8
  %0 = bitcast { i8*, i64* }* %_0.i to { {}*, [3 x i64]* }*
  %1 = getelementptr inbounds { {}*, [3 x i64]* }, { {}*, [3 x i64]* }* %0, i32 0, i32 0
  store {}* %t.0, {}** %1, align 8, !noalias !6
  %2 = getelementptr inbounds { {}*, [3 x i64]* }, { {}*, [3 x i64]* }* %0, i32 0, i32 1
  store [3 x i64]* %t.1, [3 x i64]** %2, align 8, !noalias !6
  %3 = getelementptr inbounds { i8*, i64* }, { i8*, i64* }* %_0.i, i32 0, i32 0
  %4 = load i8*, i8** %3, align 8, !noalias !6, !nonnull !2
  %5 = getelementptr inbounds { i8*, i64* }, { i8*, i64* }* %_0.i, i32 0, i32 1
  %6 = load i64*, i64** %5, align 8, !noalias !6, !nonnull !2
  %7 = insertvalue { i8*, i64* } undef, i8* %4, 0
  %8 = insertvalue { i8*, i64* } %7, i64* %6, 1
  %9 = extractvalue { i8*, i64* } %8, 0
  %10 = extractvalue { i8*, i64* } %8, 1
  br label %bb1

bb1:                                              ; preds = %start
  ret void
}

; core::mem::forget
; Function Attrs: inlinehint nonlazybind uwtable
define internal void @_ZN4core3mem6forget17h7ece8451481b7667E(i8* nonnull %t.0, i64 %t.1) unnamed_addr #0 {
start:
  %_0.i = alloca { i8*, i64 }, align 8
  %0 = getelementptr inbounds { i8*, i64 }, { i8*, i64 }* %_0.i, i32 0, i32 0
  store i8* %t.0, i8** %0, align 8
  %1 = getelementptr inbounds { i8*, i64 }, { i8*, i64 }* %_0.i, i32 0, i32 1
  store i64 %t.1, i64* %1, align 8
  %2 = getelementptr inbounds { i8*, i64 }, { i8*, i64 }* %_0.i, i32 0, i32 0
  %3 = load i8*, i8** %2, align 8, !nonnull !2
  %4 = getelementptr inbounds { i8*, i64 }, { i8*, i64 }* %_0.i, i32 0, i32 1
  %5 = load i64, i64* %4, align 8
  %6 = insertvalue { i8*, i64 } undef, i8* %3, 0
  %7 = insertvalue { i8*, i64 } %6, i64 %5, 1
  %8 = extractvalue { i8*, i64 } %7, 0
  %9 = extractvalue { i8*, i64 } %7, 1
  br label %bb1

bb1:                                              ; preds = %start
  ret void
}

; core::mem::forget
; Function Attrs: inlinehint nonlazybind uwtable
define internal void @_ZN4core3mem6forget17h9e811223138a9de9E(%"alloc::vec::Vec<u8>"* noalias nocapture dereferenceable(24) %t) unnamed_addr #0 {
start:
  %_2.i = alloca %"alloc::vec::Vec<u8>", align 8
  %_3 = alloca %"alloc::vec::Vec<u8>", align 8
  %_2 = alloca %"core::mem::ManuallyDrop<alloc::vec::Vec<u8>>", align 8
  %0 = bitcast %"alloc::vec::Vec<u8>"* %_3 to i8*
  %1 = bitcast %"alloc::vec::Vec<u8>"* %t to i8*
  call void @llvm.memcpy.p0i8.p0i8.i64(i8* align 8 %0, i8* align 8 %1, i64 24, i1 false)
  %2 = bitcast %"alloc::vec::Vec<u8>"* %_2.i to i8*
  %3 = bitcast %"alloc::vec::Vec<u8>"* %_3 to i8*
  call void @llvm.memcpy.p0i8.p0i8.i64(i8* align 8 %2, i8* align 8 %3, i64 24, i1 false), !noalias !10
  %4 = bitcast %"core::mem::ManuallyDrop<alloc::vec::Vec<u8>>"* %_2 to %"alloc::vec::Vec<u8>"*
  %5 = bitcast %"alloc::vec::Vec<u8>"* %4 to i8*
  %6 = bitcast %"alloc::vec::Vec<u8>"* %_2.i to i8*
  call void @llvm.memcpy.p0i8.p0i8.i64(i8* align 8 %5, i8* align 8 %6, i64 24, i1 false), !noalias !13
  br label %bb1

bb1:                                              ; preds = %start
  ret void
}

; core::mem::forget
; Function Attrs: inlinehint nonlazybind uwtable
define internal void @_ZN4core3mem6forget17hf21e0e437d6ecaa9E([0 x i32]* noalias nonnull align 4 %t.0, i64 %t.1) unnamed_addr #0 {
start:
  %_0.i = alloca { i32*, i64 }, align 8
  %0 = bitcast { i32*, i64 }* %_0.i to { [0 x i32]*, i64 }*
  %1 = getelementptr inbounds { [0 x i32]*, i64 }, { [0 x i32]*, i64 }* %0, i32 0, i32 0
  store [0 x i32]* %t.0, [0 x i32]** %1, align 8, !noalias !15
  %2 = getelementptr inbounds { [0 x i32]*, i64 }, { [0 x i32]*, i64 }* %0, i32 0, i32 1
  store i64 %t.1, i64* %2, align 8, !noalias !15
  %3 = getelementptr inbounds { i32*, i64 }, { i32*, i64 }* %_0.i, i32 0, i32 0
  %4 = load i32*, i32** %3, align 8, !noalias !15, !nonnull !2
  %5 = getelementptr inbounds { i32*, i64 }, { i32*, i64 }* %_0.i, i32 0, i32 1
  %6 = load i64, i64* %5, align 8, !noalias !15
  %7 = insertvalue { i32*, i64 } undef, i32* %4, 0
  %8 = insertvalue { i32*, i64 } %7, i64 %6, 1
  %9 = extractvalue { i32*, i64 } %8, 0
  %10 = extractvalue { i32*, i64 } %8, 1
  br label %bb1

bb1:                                              ; preds = %start
  ret void
}

; core::mem::replace
; Function Attrs: inlinehint nonlazybind uwtable
define internal { i8*, i64 } @_ZN4core3mem7replace17hace80fd0e472d5dfE({ i8*, i64 }* align 8 dereferenceable(16) %dest, i8* noalias readonly align 1, i64) unnamed_addr #0 personality i32 (i32, i32, i64, %"unwind::libunwind::_Unwind_Exception"*, %"unwind::libunwind::_Unwind_Context"*)* @rust_eh_personality {
start:
  %personalityslot = alloca { i8*, i32 }, align 8
  %src = alloca { i8*, i64 }, align 8
  %2 = getelementptr inbounds { i8*, i64 }, { i8*, i64 }* %src, i32 0, i32 0
  store i8* %0, i8** %2, align 8
  %3 = getelementptr inbounds { i8*, i64 }, { i8*, i64 }* %src, i32 0, i32 1
  store i64 %1, i64* %3, align 8
; invoke core::mem::swap
  invoke void @_ZN4core3mem4swap17h46e128fe17a75fbeE({ i8*, i64 }* align 8 dereferenceable(16) %dest, { i8*, i64 }* align 8 dereferenceable(16) %src)
          to label %bb2 unwind label %cleanup

bb1:                                              ; preds = %bb3
  %4 = bitcast { i8*, i32 }* %personalityslot to i8**
  %5 = load i8*, i8** %4, align 8
  %6 = getelementptr inbounds { i8*, i32 }, { i8*, i32 }* %personalityslot, i32 0, i32 1
  %7 = load i32, i32* %6, align 8
  %8 = insertvalue { i8*, i32 } undef, i8* %5, 0
  %9 = insertvalue { i8*, i32 } %8, i32 %7, 1
  resume { i8*, i32 } %9

bb2:                                              ; preds = %start
  %10 = getelementptr inbounds { i8*, i64 }, { i8*, i64 }* %src, i32 0, i32 0
  %11 = load i8*, i8** %10, align 8
  %12 = getelementptr inbounds { i8*, i64 }, { i8*, i64 }* %src, i32 0, i32 1
  %13 = load i64, i64* %12, align 8
  %14 = insertvalue { i8*, i64 } undef, i8* %11, 0
  %15 = insertvalue { i8*, i64 } %14, i64 %13, 1
  ret { i8*, i64 } %15

bb3:                                              ; preds = %cleanup
  br label %bb1

cleanup:                                          ; preds = %start
  %16 = landingpad { i8*, i32 }
          cleanup
  %17 = extractvalue { i8*, i32 } %16, 0
  %18 = extractvalue { i8*, i32 } %16, 1
  %19 = getelementptr inbounds { i8*, i32 }, { i8*, i32 }* %personalityslot, i32 0, i32 0
  store i8* %17, i8** %19, align 8
  %20 = getelementptr inbounds { i8*, i32 }, { i8*, i32 }* %personalityslot, i32 0, i32 1
  store i32 %18, i32* %20, align 8
  br label %bb3
}

; core::mem::size_of
; Function Attrs: inlinehint nonlazybind uwtable
define internal i64 @_ZN4core3mem7size_of17h47b2d41015953472E() unnamed_addr #0 {
start:
  %tmp_ret = alloca i64, align 8
  store i64 4, i64* %tmp_ret, align 8
  %0 = load i64, i64* %tmp_ret, align 8
  br label %bb1

bb1:                                              ; preds = %start
  ret i64 %0
}

; core::mem::size_of
; Function Attrs: inlinehint nonlazybind uwtable
define internal i64 @_ZN4core3mem7size_of17h4ac17df8cfdce96bE() unnamed_addr #0 {
start:
  %tmp_ret = alloca i64, align 8
  store i64 16, i64* %tmp_ret, align 8
  %0 = load i64, i64* %tmp_ret, align 8
  br label %bb1

bb1:                                              ; preds = %start
  ret i64 %0
}

; core::mem::size_of
; Function Attrs: inlinehint nonlazybind uwtable
define internal i64 @_ZN4core3mem7size_of17h592060904b8a69ffE() unnamed_addr #0 {
start:
  %tmp_ret = alloca i64, align 8
  store i64 1, i64* %tmp_ret, align 8
  %0 = load i64, i64* %tmp_ret, align 8
  br label %bb1

bb1:                                              ; preds = %start
  ret i64 %0
}

; core::mem::size_of
; Function Attrs: inlinehint nonlazybind uwtable
define internal i64 @_ZN4core3mem7size_of17h653a3b3c0e77a61fE() unnamed_addr #0 {
start:
  %tmp_ret = alloca i64, align 8
  store i64 32, i64* %tmp_ret, align 8
  %0 = load i64, i64* %tmp_ret, align 8
  br label %bb1

bb1:                                              ; preds = %start
  ret i64 %0
}

; core::mem::size_of
; Function Attrs: inlinehint nonlazybind uwtable
define internal i64 @_ZN4core3mem7size_of17h869455189d2d485bE() unnamed_addr #0 {
start:
  %tmp_ret = alloca i64, align 8
  store i64 8, i64* %tmp_ret, align 8
  %0 = load i64, i64* %tmp_ret, align 8
  br label %bb1

bb1:                                              ; preds = %start
  ret i64 %0
}

; core::mem::align_of
; Function Attrs: inlinehint nonlazybind uwtable
define internal i64 @_ZN4core3mem8align_of17h30a748a3d7e04e54E() unnamed_addr #0 {
start:
  %tmp_ret = alloca i64, align 8
  store i64 1, i64* %tmp_ret, align 8
  %0 = load i64, i64* %tmp_ret, align 8
  br label %bb1

bb1:                                              ; preds = %start
  ret i64 %0
}

; core::mem::align_of
; Function Attrs: inlinehint nonlazybind uwtable
define internal i64 @_ZN4core3mem8align_of17h68b0f665a0d271d2E() unnamed_addr #0 {
start:
  %tmp_ret = alloca i64, align 8
  store i64 4, i64* %tmp_ret, align 8
  %0 = load i64, i64* %tmp_ret, align 8
  br label %bb1

bb1:                                              ; preds = %start
  ret i64 %0
}

; core::num::NonZeroUsize::new_unchecked
; Function Attrs: inlinehint nonlazybind uwtable
define internal i64 @_ZN4core3num12NonZeroUsize13new_unchecked17hf1139cab4bf22240E(i64 %n) unnamed_addr #0 {
start:
  %_0 = alloca i64, align 8
  store i64 %n, i64* %_0, align 8
  %0 = load i64, i64* %_0, align 8, !range !18
  ret i64 %0
}

; core::num::NonZeroUsize::get
; Function Attrs: inlinehint nonlazybind uwtable
define internal i64 @_ZN4core3num12NonZeroUsize3get17h5a3de4aca8950627E(i64 %self) unnamed_addr #0 {
start:
  ret i64 %self
}

; core::num::<impl usize>::checked_add
; Function Attrs: inlinehint nonlazybind uwtable
define internal { i64, i64 } @"_ZN4core3num23_$LT$impl$u20$usize$GT$11checked_add17hfd3b276676d6545cE"(i64 %self, i64 %rhs) unnamed_addr #0 {
start:
  %_0 = alloca { i64, i64 }, align 8
; call core::num::<impl usize>::overflowing_add
  %0 = call { i64, i8 } @"_ZN4core3num23_$LT$impl$u20$usize$GT$15overflowing_add17h41544c303faad7fcE"(i64 %self, i64 %rhs)
  %1 = extractvalue { i64, i8 } %0, 0
  %2 = extractvalue { i64, i8 } %0, 1
  %3 = trunc i8 %2 to i1
  br label %bb1

bb1:                                              ; preds = %start
  br i1 %3, label %bb2, label %bb3

bb2:                                              ; preds = %bb1
  %4 = bitcast { i64, i64 }* %_0 to i64*
  store i64 0, i64* %4, align 8
  br label %bb4

bb3:                                              ; preds = %bb1
  %5 = bitcast { i64, i64 }* %_0 to %"core::option::Option<usize>::Some"*
  %6 = getelementptr inbounds %"core::option::Option<usize>::Some", %"core::option::Option<usize>::Some"* %5, i32 0, i32 1
  store i64 %1, i64* %6, align 8
  %7 = bitcast { i64, i64 }* %_0 to i64*
  store i64 1, i64* %7, align 8
  br label %bb4

bb4:                                              ; preds = %bb3, %bb2
  %8 = getelementptr inbounds { i64, i64 }, { i64, i64 }* %_0, i32 0, i32 0
  %9 = load i64, i64* %8, align 8, !range !4
  %10 = getelementptr inbounds { i64, i64 }, { i64, i64 }* %_0, i32 0, i32 1
  %11 = load i64, i64* %10, align 8
  %12 = insertvalue { i64, i64 } undef, i64 %9, 0
  %13 = insertvalue { i64, i64 } %12, i64 %11, 1
  ret { i64, i64 } %13
}

; core::num::<impl usize>::checked_mul
; Function Attrs: inlinehint nonlazybind uwtable
define internal { i64, i64 } @"_ZN4core3num23_$LT$impl$u20$usize$GT$11checked_mul17h68611ef6e3a3d663E"(i64 %self, i64 %rhs) unnamed_addr #0 {
start:
  %_0 = alloca { i64, i64 }, align 8
; call core::num::<impl usize>::overflowing_mul
  %0 = call { i64, i8 } @"_ZN4core3num23_$LT$impl$u20$usize$GT$15overflowing_mul17h1b5068b6ba9731f7E"(i64 %self, i64 %rhs)
  %1 = extractvalue { i64, i8 } %0, 0
  %2 = extractvalue { i64, i8 } %0, 1
  %3 = trunc i8 %2 to i1
  br label %bb1

bb1:                                              ; preds = %start
  br i1 %3, label %bb2, label %bb3

bb2:                                              ; preds = %bb1
  %4 = bitcast { i64, i64 }* %_0 to i64*
  store i64 0, i64* %4, align 8
  br label %bb4

bb3:                                              ; preds = %bb1
  %5 = bitcast { i64, i64 }* %_0 to %"core::option::Option<usize>::Some"*
  %6 = getelementptr inbounds %"core::option::Option<usize>::Some", %"core::option::Option<usize>::Some"* %5, i32 0, i32 1
  store i64 %1, i64* %6, align 8
  %7 = bitcast { i64, i64 }* %_0 to i64*
  store i64 1, i64* %7, align 8
  br label %bb4

bb4:                                              ; preds = %bb3, %bb2
  %8 = getelementptr inbounds { i64, i64 }, { i64, i64 }* %_0, i32 0, i32 0
  %9 = load i64, i64* %8, align 8, !range !4
  %10 = getelementptr inbounds { i64, i64 }, { i64, i64 }* %_0, i32 0, i32 1
  %11 = load i64, i64* %10, align 8
  %12 = insertvalue { i64, i64 } undef, i64 %9, 0
  %13 = insertvalue { i64, i64 } %12, i64 %11, 1
  ret { i64, i64 } %13
}

; core::num::<impl usize>::wrapping_add
; Function Attrs: inlinehint nonlazybind uwtable
define internal i64 @"_ZN4core3num23_$LT$impl$u20$usize$GT$12wrapping_add17h28ede189b055d8a8E"(i64 %self, i64 %rhs) unnamed_addr #0 {
start:
  %tmp_ret = alloca i64, align 8
  %0 = add i64 %self, %rhs
  store i64 %0, i64* %tmp_ret, align 8
  %1 = load i64, i64* %tmp_ret, align 8
  br label %bb1

bb1:                                              ; preds = %start
  ret i64 %1
}

; core::num::<impl usize>::wrapping_sub
; Function Attrs: inlinehint nonlazybind uwtable
define internal i64 @"_ZN4core3num23_$LT$impl$u20$usize$GT$12wrapping_sub17h5bf317e30ed70c00E"(i64 %self, i64 %rhs) unnamed_addr #0 {
start:
  %tmp_ret = alloca i64, align 8
  %0 = sub i64 %self, %rhs
  store i64 %0, i64* %tmp_ret, align 8
  %1 = load i64, i64* %tmp_ret, align 8
  br label %bb1

bb1:                                              ; preds = %start
  ret i64 %1
}

; core::num::<impl usize>::saturating_mul
; Function Attrs: inlinehint nonlazybind uwtable
define internal i64 @"_ZN4core3num23_$LT$impl$u20$usize$GT$14saturating_mul17h6d89b9f70b692ea8E"(i64 %self, i64 %rhs) unnamed_addr #0 {
start:
; call core::num::<impl usize>::checked_mul
  %0 = call { i64, i64 } @"_ZN4core3num23_$LT$impl$u20$usize$GT$11checked_mul17h68611ef6e3a3d663E"(i64 %self, i64 %rhs)
  %1 = extractvalue { i64, i64 } %0, 0
  %2 = extractvalue { i64, i64 } %0, 1
  br label %bb1

bb1:                                              ; preds = %start
; call core::num::<impl usize>::max_value
  %3 = call i64 @"_ZN4core3num23_$LT$impl$u20$usize$GT$9max_value17h099bf99af4ab8d76E"()
  br label %bb2

bb2:                                              ; preds = %bb1
; call core::option::Option<T>::unwrap_or
  %4 = call i64 @"_ZN4core6option15Option$LT$T$GT$9unwrap_or17h2e8fcb3e537b7de4E"(i64 %1, i64 %2, i64 %3)
  br label %bb3

bb3:                                              ; preds = %bb2
  ret i64 %4
}

; core::num::<impl usize>::is_power_of_two
; Function Attrs: inlinehint nonlazybind uwtable
define internal zeroext i1 @"_ZN4core3num23_$LT$impl$u20$usize$GT$15is_power_of_two17h1d901604f963b0cdE"(i64 %self) unnamed_addr #0 {
start:
  %_0 = alloca i8, align 1
; call core::num::<impl usize>::wrapping_sub
  %0 = call i64 @"_ZN4core3num23_$LT$impl$u20$usize$GT$12wrapping_sub17h5bf317e30ed70c00E"(i64 %self, i64 1)
  br label %bb4

bb1:                                              ; preds = %bb4
  store i8 0, i8* %_0, align 1
  br label %bb3

bb2:                                              ; preds = %bb4
  %1 = icmp eq i64 %self, 0
  %2 = xor i1 %1, true
  %3 = zext i1 %2 to i8
  store i8 %3, i8* %_0, align 1
  br label %bb3

bb3:                                              ; preds = %bb1, %bb2
  %4 = load i8, i8* %_0, align 1, !range !3
  %5 = trunc i8 %4 to i1
  ret i1 %5

bb4:                                              ; preds = %start
  %6 = and i64 %0, %self
  %7 = icmp eq i64 %6, 0
  br i1 %7, label %bb2, label %bb1
}

; core::num::<impl usize>::overflowing_add
; Function Attrs: inlinehint nonlazybind uwtable
define internal { i64, i8 } @"_ZN4core3num23_$LT$impl$u20$usize$GT$15overflowing_add17h41544c303faad7fcE"(i64 %self, i64 %rhs) unnamed_addr #0 {
start:
  %tmp_ret = alloca { i64, i8 }, align 8
  %_0 = alloca { i64, i8 }, align 8
  %0 = call { i64, i1 } @llvm.uadd.with.overflow.i64(i64 %self, i64 %rhs)
  %1 = extractvalue { i64, i1 } %0, 0
  %2 = extractvalue { i64, i1 } %0, 1
  %3 = zext i1 %2 to i8
  %4 = bitcast { i64, i8 }* %tmp_ret to i64*
  store i64 %1, i64* %4, align 8
  %5 = getelementptr inbounds { i64, i8 }, { i64, i8 }* %tmp_ret, i32 0, i32 1
  store i8 %3, i8* %5, align 8
  %6 = getelementptr inbounds { i64, i8 }, { i64, i8 }* %tmp_ret, i32 0, i32 0
  %7 = load i64, i64* %6, align 8
  %8 = getelementptr inbounds { i64, i8 }, { i64, i8 }* %tmp_ret, i32 0, i32 1
  %9 = load i8, i8* %8, align 8, !range !3
  %10 = trunc i8 %9 to i1
  br label %bb1

bb1:                                              ; preds = %start
  %11 = bitcast { i64, i8 }* %_0 to i64*
  store i64 %7, i64* %11, align 8
  %12 = getelementptr inbounds { i64, i8 }, { i64, i8 }* %_0, i32 0, i32 1
  %13 = zext i1 %10 to i8
  store i8 %13, i8* %12, align 8
  %14 = getelementptr inbounds { i64, i8 }, { i64, i8 }* %_0, i32 0, i32 0
  %15 = load i64, i64* %14, align 8
  %16 = getelementptr inbounds { i64, i8 }, { i64, i8 }* %_0, i32 0, i32 1
  %17 = load i8, i8* %16, align 8, !range !3
  %18 = trunc i8 %17 to i1
  %19 = zext i1 %18 to i8
  %20 = insertvalue { i64, i8 } undef, i64 %15, 0
  %21 = insertvalue { i64, i8 } %20, i8 %19, 1
  ret { i64, i8 } %21
}

; core::num::<impl usize>::overflowing_mul
; Function Attrs: inlinehint nonlazybind uwtable
define internal { i64, i8 } @"_ZN4core3num23_$LT$impl$u20$usize$GT$15overflowing_mul17h1b5068b6ba9731f7E"(i64 %self, i64 %rhs) unnamed_addr #0 {
start:
  %tmp_ret = alloca { i64, i8 }, align 8
  %_0 = alloca { i64, i8 }, align 8
  %0 = call { i64, i1 } @llvm.umul.with.overflow.i64(i64 %self, i64 %rhs)
  %1 = extractvalue { i64, i1 } %0, 0
  %2 = extractvalue { i64, i1 } %0, 1
  %3 = zext i1 %2 to i8
  %4 = bitcast { i64, i8 }* %tmp_ret to i64*
  store i64 %1, i64* %4, align 8
  %5 = getelementptr inbounds { i64, i8 }, { i64, i8 }* %tmp_ret, i32 0, i32 1
  store i8 %3, i8* %5, align 8
  %6 = getelementptr inbounds { i64, i8 }, { i64, i8 }* %tmp_ret, i32 0, i32 0
  %7 = load i64, i64* %6, align 8
  %8 = getelementptr inbounds { i64, i8 }, { i64, i8 }* %tmp_ret, i32 0, i32 1
  %9 = load i8, i8* %8, align 8, !range !3
  %10 = trunc i8 %9 to i1
  br label %bb1

bb1:                                              ; preds = %start
  %11 = bitcast { i64, i8 }* %_0 to i64*
  store i64 %7, i64* %11, align 8
  %12 = getelementptr inbounds { i64, i8 }, { i64, i8 }* %_0, i32 0, i32 1
  %13 = zext i1 %10 to i8
  store i8 %13, i8* %12, align 8
  %14 = getelementptr inbounds { i64, i8 }, { i64, i8 }* %_0, i32 0, i32 0
  %15 = load i64, i64* %14, align 8
  %16 = getelementptr inbounds { i64, i8 }, { i64, i8 }* %_0, i32 0, i32 1
  %17 = load i8, i8* %16, align 8, !range !3
  %18 = trunc i8 %17 to i1
  %19 = zext i1 %18 to i8
  %20 = insertvalue { i64, i8 } undef, i64 %15, 0
  %21 = insertvalue { i64, i8 } %20, i8 %19, 1
  ret { i64, i8 } %21
}

; core::num::<impl usize>::max_value
; Function Attrs: inlinehint nonlazybind uwtable
define internal i64 @"_ZN4core3num23_$LT$impl$u20$usize$GT$9max_value17h099bf99af4ab8d76E"() unnamed_addr #0 {
start:
  ret i64 -1
}

; core::ops::range::RangeInclusive<Idx>::end
; Function Attrs: inlinehint nonlazybind uwtable
define internal align 8 dereferenceable(8) i64* @"_ZN4core3ops5range25RangeInclusive$LT$Idx$GT$3end17hea3f1cac3f2441e2E"(%"core::ops::range::RangeInclusive<usize>"* noalias readonly align 8 dereferenceable(24) %self) unnamed_addr #0 {
start:
  %0 = getelementptr inbounds %"core::ops::range::RangeInclusive<usize>", %"core::ops::range::RangeInclusive<usize>"* %self, i32 0, i32 3
  ret i64* %0
}

; core::ops::range::RangeInclusive<Idx>::new
; Function Attrs: inlinehint nonlazybind uwtable
define internal void @"_ZN4core3ops5range25RangeInclusive$LT$Idx$GT$3new17h5eff3040b4fbc566E"(%"core::ops::range::RangeInclusive<usize>"* noalias nocapture sret dereferenceable(24), i64 %start1, i64 %end) unnamed_addr #0 {
start:
  %_5 = alloca i8, align 1
  store i8 2, i8* %_5, align 1
  %1 = bitcast %"core::ops::range::RangeInclusive<usize>"* %0 to i64*
  store i64 %start1, i64* %1, align 8
  %2 = getelementptr inbounds %"core::ops::range::RangeInclusive<usize>", %"core::ops::range::RangeInclusive<usize>"* %0, i32 0, i32 3
  store i64 %end, i64* %2, align 8
  %3 = getelementptr inbounds %"core::ops::range::RangeInclusive<usize>", %"core::ops::range::RangeInclusive<usize>"* %0, i32 0, i32 5
  %4 = load i8, i8* %_5, align 1, !range !19
  store i8 %4, i8* %3, align 8
  ret void
}

; core::ops::range::RangeInclusive<Idx>::start
; Function Attrs: inlinehint nonlazybind uwtable
define internal align 8 dereferenceable(8) i64* @"_ZN4core3ops5range25RangeInclusive$LT$Idx$GT$5start17h5c37d85b7fea163dE"(%"core::ops::range::RangeInclusive<usize>"* noalias readonly align 8 dereferenceable(24) %self) unnamed_addr #0 {
start:
  %0 = bitcast %"core::ops::range::RangeInclusive<usize>"* %self to i64*
  ret i64* %0
}

; core::ops::function::FnMut::call_mut
; Function Attrs: nonlazybind uwtable
define internal i32 @_ZN4core3ops8function5FnMut8call_mut17hc1baed387f1f99c3E({}* nonnull align 1 %arg0, i32, i32) unnamed_addr #1 {
start:
  %arg1 = alloca { i32, i32 }, align 4
  %2 = bitcast { i32, i32 }* %arg1 to i32*
  store i32 %0, i32* %2, align 4
  %3 = getelementptr inbounds { i32, i32 }, { i32, i32 }* %arg1, i32 0, i32 1
  store i32 %1, i32* %3, align 4
  %4 = bitcast { i32, i32 }* %arg1 to i32*
  %5 = load i32, i32* %4, align 4
  %6 = getelementptr inbounds { i32, i32 }, { i32, i32 }* %arg1, i32 0, i32 1
  %7 = load i32, i32* %6, align 4
; call <u32 as core::ops::arith::Add>::add
  %8 = call i32 @"_ZN45_$LT$u32$u20$as$u20$core..ops..arith..Add$GT$3add17h2e9cd31ac4d96060E"(i32 %5, i32 %7)
  br label %bb1

bb1:                                              ; preds = %start
  ret i32 %8
}

; core::ops::function::FnOnce::call_once{{vtable.shim}}
; Function Attrs: nonlazybind uwtable
define internal i32 @"_ZN4core3ops8function6FnOnce40call_once$u7b$$u7b$vtable.shim$u7d$$u7d$17hae663ab919a77e25E"(i8** %arg0) unnamed_addr #1 {
start:
  %arg1 = alloca {}, align 1
  %0 = load i8*, i8** %arg0, align 8, !nonnull !2
; call core::ops::function::FnOnce::call_once
  %1 = call i32 @_ZN4core3ops8function6FnOnce9call_once17h91469acd2a3ab7f2E(i8* nonnull %0)
  br label %bb1

bb1:                                              ; preds = %start
  ret i32 %1
}

; core::ops::function::FnOnce::call_once
; Function Attrs: nonlazybind uwtable
define internal i32 @_ZN4core3ops8function6FnOnce9call_once17h91469acd2a3ab7f2E(i8* nonnull) unnamed_addr #1 personality i32 (i32, i32, i64, %"unwind::libunwind::_Unwind_Exception"*, %"unwind::libunwind::_Unwind_Context"*)* @rust_eh_personality {
start:
  %personalityslot = alloca { i8*, i32 }, align 8
  %arg1 = alloca {}, align 1
  %arg0 = alloca i8*, align 8
  store i8* %0, i8** %arg0, align 8
; invoke std::rt::lang_start::{{closure}}
  %1 = invoke i32 @"_ZN3std2rt10lang_start28_$u7b$$u7b$closure$u7d$$u7d$17h0e190d26b7152ab9E"(i8** align 8 dereferenceable(8) %arg0)
          to label %bb1 unwind label %cleanup

bb1:                                              ; preds = %start
  br label %bb2

bb2:                                              ; preds = %bb1
  ret i32 %1

bb3:                                              ; preds = %cleanup
  br label %bb4

bb4:                                              ; preds = %bb3
  %2 = bitcast { i8*, i32 }* %personalityslot to i8**
  %3 = load i8*, i8** %2, align 8
  %4 = getelementptr inbounds { i8*, i32 }, { i8*, i32 }* %personalityslot, i32 0, i32 1
  %5 = load i32, i32* %4, align 8
  %6 = insertvalue { i8*, i32 } undef, i8* %3, 0
  %7 = insertvalue { i8*, i32 } %6, i32 %5, 1
  resume { i8*, i32 } %7

cleanup:                                          ; preds = %start
  %8 = landingpad { i8*, i32 }
          cleanup
  %9 = extractvalue { i8*, i32 } %8, 0
  %10 = extractvalue { i8*, i32 } %8, 1
  %11 = getelementptr inbounds { i8*, i32 }, { i8*, i32 }* %personalityslot, i32 0, i32 0
  store i8* %9, i8** %11, align 8
  %12 = getelementptr inbounds { i8*, i32 }, { i8*, i32 }* %personalityslot, i32 0, i32 1
  store i32 %10, i32* %12, align 8
  br label %bb3
}

; core::ptr::Unique<T>::new_unchecked
; Function Attrs: nonlazybind uwtable
define internal { i8*, i64* } @"_ZN4core3ptr15Unique$LT$T$GT$13new_unchecked17h1d5febaaa742953fE"({}* %ptr.0, [3 x i64]* noalias readonly align 8 dereferenceable(24) %ptr.1) unnamed_addr #1 {
start:
  %_5 = alloca %"core::marker::PhantomData<core::any::Any>", align 1
  %_0 = alloca { i8*, i64* }, align 8
  %0 = bitcast { i8*, i64* }* %_0 to { {}*, [3 x i64]* }*
  %1 = getelementptr inbounds { {}*, [3 x i64]* }, { {}*, [3 x i64]* }* %0, i32 0, i32 0
  store {}* %ptr.0, {}** %1, align 8
  %2 = getelementptr inbounds { {}*, [3 x i64]* }, { {}*, [3 x i64]* }* %0, i32 0, i32 1
  store [3 x i64]* %ptr.1, [3 x i64]** %2, align 8
  %3 = bitcast { i8*, i64* }* %_0 to %"core::marker::PhantomData<core::any::Any>"*
  %4 = getelementptr inbounds { i8*, i64* }, { i8*, i64* }* %_0, i32 0, i32 0
  %5 = load i8*, i8** %4, align 8, !nonnull !2
  %6 = getelementptr inbounds { i8*, i64* }, { i8*, i64* }* %_0, i32 0, i32 1
  %7 = load i64*, i64** %6, align 8, !nonnull !2
  %8 = insertvalue { i8*, i64* } undef, i8* %5, 0
  %9 = insertvalue { i8*, i64* } %8, i64* %7, 1
  ret { i8*, i64* } %9
}

; core::ptr::Unique<T>::new_unchecked
; Function Attrs: nonlazybind uwtable
define internal nonnull i32* @"_ZN4core3ptr15Unique$LT$T$GT$13new_unchecked17h2f9ecae88fdfd6ecE"(i32* %ptr) unnamed_addr #1 {
start:
  %_5 = alloca %"core::marker::PhantomData<u32>", align 1
  %_0 = alloca i32*, align 8
  store i32* %ptr, i32** %_0, align 8
  %0 = bitcast i32** %_0 to %"core::marker::PhantomData<u32>"*
  %1 = load i32*, i32** %_0, align 8, !nonnull !2
  ret i32* %1
}

; core::ptr::Unique<T>::new_unchecked
; Function Attrs: nonlazybind uwtable
define internal { i8*, i64 } @"_ZN4core3ptr15Unique$LT$T$GT$13new_unchecked17hd010d6ba620ea1c8E"([0 x i8]* %ptr.0, i64 %ptr.1) unnamed_addr #1 {
start:
  %_5 = alloca %"core::marker::PhantomData<[u8]>", align 1
  %_0 = alloca { i8*, i64 }, align 8
  %0 = bitcast { i8*, i64 }* %_0 to { [0 x i8]*, i64 }*
  %1 = getelementptr inbounds { [0 x i8]*, i64 }, { [0 x i8]*, i64 }* %0, i32 0, i32 0
  store [0 x i8]* %ptr.0, [0 x i8]** %1, align 8
  %2 = getelementptr inbounds { [0 x i8]*, i64 }, { [0 x i8]*, i64 }* %0, i32 0, i32 1
  store i64 %ptr.1, i64* %2, align 8
  %3 = bitcast { i8*, i64 }* %_0 to %"core::marker::PhantomData<[u8]>"*
  %4 = getelementptr inbounds { i8*, i64 }, { i8*, i64 }* %_0, i32 0, i32 0
  %5 = load i8*, i8** %4, align 8, !nonnull !2
  %6 = getelementptr inbounds { i8*, i64 }, { i8*, i64 }* %_0, i32 0, i32 1
  %7 = load i64, i64* %6, align 8
  %8 = insertvalue { i8*, i64 } undef, i8* %5, 0
  %9 = insertvalue { i8*, i64 } %8, i64 %7, 1
  ret { i8*, i64 } %9
}

; core::ptr::Unique<T>::new_unchecked
; Function Attrs: nonlazybind uwtable
define internal nonnull i8* @"_ZN4core3ptr15Unique$LT$T$GT$13new_unchecked17hfeb95b4af03c3c1eE"(i8* %ptr) unnamed_addr #1 {
start:
  %_5 = alloca %"core::marker::PhantomData<u8>", align 1
  %_0 = alloca i8*, align 8
  store i8* %ptr, i8** %_0, align 8
  %0 = bitcast i8** %_0 to %"core::marker::PhantomData<u8>"*
  %1 = load i8*, i8** %_0, align 8, !nonnull !2
  ret i8* %1
}

; core::ptr::Unique<T>::empty
; Function Attrs: nonlazybind uwtable
define internal nonnull i8* @"_ZN4core3ptr15Unique$LT$T$GT$5empty17hd321f0f9ff9ca28fE"() unnamed_addr #1 {
start:
; call core::mem::align_of
  %0 = call i64 @_ZN4core3mem8align_of17h30a748a3d7e04e54E()
  br label %bb1

bb1:                                              ; preds = %start
  %1 = inttoptr i64 %0 to i8*
; call core::ptr::Unique<T>::new_unchecked
  %2 = call nonnull i8* @"_ZN4core3ptr15Unique$LT$T$GT$13new_unchecked17hfeb95b4af03c3c1eE"(i8* %1)
  br label %bb2

bb2:                                              ; preds = %bb1
  ret i8* %2
}

; core::ptr::Unique<T>::as_mut
; Function Attrs: nonlazybind uwtable
define internal { {}*, [3 x i64]* } @"_ZN4core3ptr15Unique$LT$T$GT$6as_mut17h384aeb6572b7aa42E"({ i8*, i64* }* align 8 dereferenceable(16) %self) unnamed_addr #1 {
start:
  %0 = getelementptr inbounds { i8*, i64* }, { i8*, i64* }* %self, i32 0, i32 0
  %1 = load i8*, i8** %0, align 8, !nonnull !2
  %2 = getelementptr inbounds { i8*, i64* }, { i8*, i64* }* %self, i32 0, i32 1
  %3 = load i64*, i64** %2, align 8, !nonnull !2
; call core::ptr::Unique<T>::as_ptr
  %4 = call { {}*, [3 x i64]* } @"_ZN4core3ptr15Unique$LT$T$GT$6as_ptr17hf5d4a504bf78f1feE"(i8* nonnull %1, i64* noalias readonly align 8 dereferenceable(24) %3)
  %5 = extractvalue { {}*, [3 x i64]* } %4, 0
  %6 = extractvalue { {}*, [3 x i64]* } %4, 1
  br label %bb1

bb1:                                              ; preds = %start
  %7 = insertvalue { {}*, [3 x i64]* } undef, {}* %5, 0
  %8 = insertvalue { {}*, [3 x i64]* } %7, [3 x i64]* %6, 1
  ret { {}*, [3 x i64]* } %8
}

; core::ptr::Unique<T>::as_ptr
; Function Attrs: nonlazybind uwtable
define internal i32* @"_ZN4core3ptr15Unique$LT$T$GT$6as_ptr17h1b98ca4267d7e44dE"(i32* nonnull %self) unnamed_addr #1 {
start:
  ret i32* %self
}

; core::ptr::Unique<T>::as_ptr
; Function Attrs: nonlazybind uwtable
define internal { {}*, [3 x i64]* } @"_ZN4core3ptr15Unique$LT$T$GT$6as_ptr17h599909fd1fadc6feE"(i8* nonnull %self.0, i64* noalias readonly align 8 dereferenceable(24) %self.1) unnamed_addr #1 {
start:
  %0 = bitcast i8* %self.0 to {}*
  %1 = bitcast i64* %self.1 to [3 x i64]*
  %2 = insertvalue { {}*, [3 x i64]* } undef, {}* %0, 0
  %3 = insertvalue { {}*, [3 x i64]* } %2, [3 x i64]* %1, 1
  ret { {}*, [3 x i64]* } %3
}

; core::ptr::Unique<T>::as_ptr
; Function Attrs: nonlazybind uwtable
define internal { [0 x i8]*, i64 } @"_ZN4core3ptr15Unique$LT$T$GT$6as_ptr17h9575c479c876339aE"(i8* nonnull %self.0, i64 %self.1) unnamed_addr #1 {
start:
  %0 = bitcast i8* %self.0 to [0 x i8]*
  %1 = insertvalue { [0 x i8]*, i64 } undef, [0 x i8]* %0, 0
  %2 = insertvalue { [0 x i8]*, i64 } %1, i64 %self.1, 1
  ret { [0 x i8]*, i64 } %2
}

; core::ptr::Unique<T>::as_ptr
; Function Attrs: nonlazybind uwtable
define internal %"std::io::error::Custom"* @"_ZN4core3ptr15Unique$LT$T$GT$6as_ptr17ha4a7cb001933ffbdE"(i64* nonnull %self) unnamed_addr #1 {
start:
  %0 = bitcast i64* %self to %"std::io::error::Custom"*
  ret %"std::io::error::Custom"* %0
}

; core::ptr::Unique<T>::as_ptr
; Function Attrs: nonlazybind uwtable
define internal { [0 x i32]*, i64 } @"_ZN4core3ptr15Unique$LT$T$GT$6as_ptr17hc3c744971eb678aaE"(i32* nonnull %self.0, i64 %self.1) unnamed_addr #1 {
start:
  %0 = bitcast i32* %self.0 to [0 x i32]*
  %1 = insertvalue { [0 x i32]*, i64 } undef, [0 x i32]* %0, 0
  %2 = insertvalue { [0 x i32]*, i64 } %1, i64 %self.1, 1
  ret { [0 x i32]*, i64 } %2
}

; core::ptr::Unique<T>::as_ptr
; Function Attrs: nonlazybind uwtable
define internal i8* @"_ZN4core3ptr15Unique$LT$T$GT$6as_ptr17hc830104fced25063E"(i8* nonnull %self) unnamed_addr #1 {
start:
  ret i8* %self
}

; core::ptr::Unique<T>::as_ptr
; Function Attrs: nonlazybind uwtable
define internal { {}*, [3 x i64]* } @"_ZN4core3ptr15Unique$LT$T$GT$6as_ptr17hf5d4a504bf78f1feE"(i8* nonnull %self.0, i64* noalias readonly align 8 dereferenceable(24) %self.1) unnamed_addr #1 {
start:
  %0 = bitcast i8* %self.0 to {}*
  %1 = bitcast i64* %self.1 to [3 x i64]*
  %2 = insertvalue { {}*, [3 x i64]* } undef, {}* %0, 0
  %3 = insertvalue { {}*, [3 x i64]* } %2, [3 x i64]* %1, 1
  ret { {}*, [3 x i64]* } %3
}

; core::ptr::NonNull<T>::new_unchecked
; Function Attrs: inlinehint nonlazybind uwtable
define internal nonnull i8* @"_ZN4core3ptr16NonNull$LT$T$GT$13new_unchecked17h45308fd7d572427bE"(i8* %ptr) unnamed_addr #0 {
start:
  %_0 = alloca i8*, align 8
  store i8* %ptr, i8** %_0, align 8
  %0 = load i8*, i8** %_0, align 8, !nonnull !2
  ret i8* %0
}

; core::ptr::NonNull<T>::new_unchecked
; Function Attrs: inlinehint nonlazybind uwtable
define internal nonnull i32* @"_ZN4core3ptr16NonNull$LT$T$GT$13new_unchecked17h6c77f66d42498671E"(i32* %ptr) unnamed_addr #0 {
start:
  %_0 = alloca i32*, align 8
  store i32* %ptr, i32** %_0, align 8
  %0 = load i32*, i32** %_0, align 8, !nonnull !2
  ret i32* %0
}

; core::ptr::NonNull<T>::new
; Function Attrs: inlinehint nonlazybind uwtable
define internal i8* @"_ZN4core3ptr16NonNull$LT$T$GT$3new17hcab81e40f261e30aE"(i8* %ptr) unnamed_addr #0 {
start:
  %_0 = alloca i8*, align 8
; call core::ptr::<impl *mut T>::is_null
  %0 = call zeroext i1 @"_ZN4core3ptr31_$LT$impl$u20$$BP$mut$u20$T$GT$7is_null17h81630a2ce924e9baE"(i8* %ptr)
  br label %bb1

bb1:                                              ; preds = %start
  %1 = xor i1 %0, true
  br i1 %1, label %bb2, label %bb4

bb2:                                              ; preds = %bb1
; call core::ptr::NonNull<T>::new_unchecked
  %2 = call nonnull i8* @"_ZN4core3ptr16NonNull$LT$T$GT$13new_unchecked17h45308fd7d572427bE"(i8* %ptr)
  br label %bb3

bb3:                                              ; preds = %bb2
  store i8* %2, i8** %_0, align 8
  br label %bb5

bb4:                                              ; preds = %bb1
  %3 = bitcast i8** %_0 to {}**
  store {}* null, {}** %3, align 8
  br label %bb5

bb5:                                              ; preds = %bb4, %bb3
  %4 = load i8*, i8** %_0, align 8
  ret i8* %4
}

; core::ptr::NonNull<T>::cast
; Function Attrs: inlinehint nonlazybind uwtable
define internal nonnull i8* @"_ZN4core3ptr16NonNull$LT$T$GT$4cast17h4035dd144b5d99feE"(i32* nonnull %self) unnamed_addr #0 {
start:
; call core::ptr::NonNull<T>::as_ptr
  %0 = call i32* @"_ZN4core3ptr16NonNull$LT$T$GT$6as_ptr17h6469e4b4c471b6b6E"(i32* nonnull %self)
  br label %bb1

bb1:                                              ; preds = %start
  %1 = bitcast i32* %0 to i8*
; call core::ptr::NonNull<T>::new_unchecked
  %2 = call nonnull i8* @"_ZN4core3ptr16NonNull$LT$T$GT$13new_unchecked17h45308fd7d572427bE"(i8* %1)
  br label %bb2

bb2:                                              ; preds = %bb1
  ret i8* %2
}

; core::ptr::NonNull<T>::cast
; Function Attrs: inlinehint nonlazybind uwtable
define internal nonnull i8* @"_ZN4core3ptr16NonNull$LT$T$GT$4cast17h917ddd2da8eca91cE"(i8* nonnull %self) unnamed_addr #0 {
start:
; call core::ptr::NonNull<T>::as_ptr
  %0 = call i8* @"_ZN4core3ptr16NonNull$LT$T$GT$6as_ptr17h199e06d7666ffc1bE"(i8* nonnull %self)
  br label %bb1

bb1:                                              ; preds = %start
; call core::ptr::NonNull<T>::new_unchecked
  %1 = call nonnull i8* @"_ZN4core3ptr16NonNull$LT$T$GT$13new_unchecked17h45308fd7d572427bE"(i8* %0)
  br label %bb2

bb2:                                              ; preds = %bb1
  ret i8* %1
}

; core::ptr::NonNull<T>::cast
; Function Attrs: inlinehint nonlazybind uwtable
define internal nonnull i32* @"_ZN4core3ptr16NonNull$LT$T$GT$4cast17hd4dc68bb516297e0E"(i8* nonnull %self) unnamed_addr #0 {
start:
; call core::ptr::NonNull<T>::as_ptr
  %0 = call i8* @"_ZN4core3ptr16NonNull$LT$T$GT$6as_ptr17h199e06d7666ffc1bE"(i8* nonnull %self)
  br label %bb1

bb1:                                              ; preds = %start
  %1 = bitcast i8* %0 to i32*
; call core::ptr::NonNull<T>::new_unchecked
  %2 = call nonnull i32* @"_ZN4core3ptr16NonNull$LT$T$GT$13new_unchecked17h6c77f66d42498671E"(i32* %1)
  br label %bb2

bb2:                                              ; preds = %bb1
  ret i32* %2
}

; core::ptr::NonNull<T>::as_ptr
; Function Attrs: inlinehint nonlazybind uwtable
define internal i8* @"_ZN4core3ptr16NonNull$LT$T$GT$6as_ptr17h199e06d7666ffc1bE"(i8* nonnull %self) unnamed_addr #0 {
start:
  ret i8* %self
}

; core::ptr::NonNull<T>::as_ptr
; Function Attrs: inlinehint nonlazybind uwtable
define internal i32* @"_ZN4core3ptr16NonNull$LT$T$GT$6as_ptr17h6469e4b4c471b6b6E"(i32* nonnull %self) unnamed_addr #0 {
start:
  ret i32* %self
}

; core::ptr::NonNull<T>::as_ptr
; Function Attrs: inlinehint nonlazybind uwtable
define internal { {}*, [3 x i64]* } @"_ZN4core3ptr16NonNull$LT$T$GT$6as_ptr17hd9b5cf9919129599E"(i8* nonnull %self.0, i64* noalias readonly align 8 dereferenceable(24) %self.1) unnamed_addr #0 {
start:
  %0 = bitcast i8* %self.0 to {}*
  %1 = bitcast i64* %self.1 to [3 x i64]*
  %2 = insertvalue { {}*, [3 x i64]* } undef, {}* %0, 0
  %3 = insertvalue { {}*, [3 x i64]* } %2, [3 x i64]* %1, 1
  ret { {}*, [3 x i64]* } %3
}

; core::ptr::NonNull<T>::dangling
; Function Attrs: inlinehint nonlazybind uwtable
define internal nonnull i8* @"_ZN4core3ptr16NonNull$LT$T$GT$8dangling17h5ec0213bf56fa858E"() unnamed_addr #0 {
start:
; call core::mem::align_of
  %0 = call i64 @_ZN4core3mem8align_of17h30a748a3d7e04e54E()
  br label %bb1

bb1:                                              ; preds = %start
  %1 = inttoptr i64 %0 to i8*
; call core::ptr::NonNull<T>::new_unchecked
  %2 = call nonnull i8* @"_ZN4core3ptr16NonNull$LT$T$GT$13new_unchecked17h45308fd7d572427bE"(i8* %1)
  br label %bb2

bb2:                                              ; preds = %bb1
  ret i8* %2
}

; core::ptr::real_drop_in_place
; Function Attrs: nonlazybind uwtable
define internal void @_ZN4core3ptr18real_drop_in_place17h11c469ca13554a87E({}* nonnull align 1 %arg0.0, [3 x i64]* noalias readonly align 8 dereferenceable(24) %arg0.1) unnamed_addr #1 {
start:
  %0 = bitcast [3 x i64]* %arg0.1 to void ({}*)**
  %1 = getelementptr inbounds void ({}*)*, void ({}*)** %0, i64 0
  %2 = load void ({}*)*, void ({}*)** %1, align 8, !invariant.load !2, !nonnull !2
  call void %2({}* align 1 %arg0.0)
  br label %bb1

bb1:                                              ; preds = %start
  ret void
}

; core::ptr::real_drop_in_place
; Function Attrs: nonlazybind uwtable
define internal void @_ZN4core3ptr18real_drop_in_place17h1465bfca74e90596E(i32** align 8 dereferenceable(8) %arg0) unnamed_addr #1 {
start:
  ret void
}

; core::ptr::real_drop_in_place
; Function Attrs: nonlazybind uwtable
define internal void @_ZN4core3ptr18real_drop_in_place17h14a377da3589cddcE(%"std::io::buffered::BufReader<std::fs::File>"* align 8 dereferenceable(40) %arg0) unnamed_addr #1 personality i32 (i32, i32, i64, %"unwind::libunwind::_Unwind_Exception"*, %"unwind::libunwind::_Unwind_Context"*)* @rust_eh_personality {
start:
  %personalityslot = alloca { i8*, i32 }, align 8
  %0 = getelementptr inbounds %"std::io::buffered::BufReader<std::fs::File>", %"std::io::buffered::BufReader<std::fs::File>"* %arg0, i32 0, i32 7
; invoke core::ptr::real_drop_in_place
  invoke void @_ZN4core3ptr18real_drop_in_place17h4190a6ebbeffadfaE(i32* align 4 dereferenceable(4) %0)
          to label %bb4 unwind label %cleanup

bb1:                                              ; preds = %bb3
  %1 = bitcast { i8*, i32 }* %personalityslot to i8**
  %2 = load i8*, i8** %1, align 8
  %3 = getelementptr inbounds { i8*, i32 }, { i8*, i32 }* %personalityslot, i32 0, i32 1
  %4 = load i32, i32* %3, align 8
  %5 = insertvalue { i8*, i32 } undef, i8* %2, 0
  %6 = insertvalue { i8*, i32 } %5, i32 %4, 1
  resume { i8*, i32 } %6

bb2:                                              ; preds = %bb4
  ret void

bb3:                                              ; preds = %cleanup
  %7 = bitcast %"std::io::buffered::BufReader<std::fs::File>"* %arg0 to { [0 x i8]*, i64 }*
; call core::ptr::real_drop_in_place
  call void @_ZN4core3ptr18real_drop_in_place17h316d4f2f914a5cfbE({ [0 x i8]*, i64 }* align 8 dereferenceable(16) %7) #12
  br label %bb1

bb4:                                              ; preds = %start
  %8 = bitcast %"std::io::buffered::BufReader<std::fs::File>"* %arg0 to { [0 x i8]*, i64 }*
; call core::ptr::real_drop_in_place
  call void @_ZN4core3ptr18real_drop_in_place17h316d4f2f914a5cfbE({ [0 x i8]*, i64 }* align 8 dereferenceable(16) %8)
  br label %bb2

cleanup:                                          ; preds = %start
  %9 = landingpad { i8*, i32 }
          cleanup
  %10 = extractvalue { i8*, i32 } %9, 0
  %11 = extractvalue { i8*, i32 } %9, 1
  %12 = getelementptr inbounds { i8*, i32 }, { i8*, i32 }* %personalityslot, i32 0, i32 0
  store i8* %10, i8** %12, align 8
  %13 = getelementptr inbounds { i8*, i32 }, { i8*, i32 }* %personalityslot, i32 0, i32 1
  store i32 %11, i32* %13, align 8
  br label %bb3
}

; core::ptr::real_drop_in_place
; Function Attrs: nonlazybind uwtable
define internal void @_ZN4core3ptr18real_drop_in_place17h195fb2a9f44cf582E(%"core::result::Result<&[u8], std::io::error::Error>"* align 8 dereferenceable(24) %arg0) unnamed_addr #1 {
start:
  %0 = bitcast %"core::result::Result<&[u8], std::io::error::Error>"* %arg0 to i64*
  %1 = load i64, i64* %0, align 8, !range !4
  %2 = icmp eq i64 %1, 0
  br i1 %2, label %bb1, label %bb2

bb1:                                              ; preds = %bb2, %start
  ret void

bb2:                                              ; preds = %start
  %3 = bitcast %"core::result::Result<&[u8], std::io::error::Error>"* %arg0 to %"core::result::Result<&[u8], std::io::error::Error>::Err"*
  %4 = getelementptr inbounds %"core::result::Result<&[u8], std::io::error::Error>::Err", %"core::result::Result<&[u8], std::io::error::Error>::Err"* %3, i32 0, i32 1
; call core::ptr::real_drop_in_place
  call void @_ZN4core3ptr18real_drop_in_place17hea225b29bbc525feE(%"std::io::error::Error"* align 8 dereferenceable(16) %4)
  br label %bb1
}

; core::ptr::real_drop_in_place
; Function Attrs: nonlazybind uwtable
define internal void @_ZN4core3ptr18real_drop_in_place17h274a8a217f6b2a6eE(%"core::result::Result<alloc::string::String, std::io::error::Error>"* align 8 dereferenceable(32) %arg0) unnamed_addr #1 {
start:
  %0 = bitcast %"core::result::Result<alloc::string::String, std::io::error::Error>"* %arg0 to i64*
  %1 = load i64, i64* %0, align 8, !range !4
  %2 = icmp eq i64 %1, 0
  br i1 %2, label %bb2, label %bb3

bb1:                                              ; preds = %bb2, %bb3
  ret void

bb2:                                              ; preds = %start
  %3 = bitcast %"core::result::Result<alloc::string::String, std::io::error::Error>"* %arg0 to %"core::result::Result<alloc::string::String, std::io::error::Error>::Ok"*
  %4 = getelementptr inbounds %"core::result::Result<alloc::string::String, std::io::error::Error>::Ok", %"core::result::Result<alloc::string::String, std::io::error::Error>::Ok"* %3, i32 0, i32 1
; call core::ptr::real_drop_in_place
  call void @_ZN4core3ptr18real_drop_in_place17h6481592ae1421fa0E(%"alloc::string::String"* align 8 dereferenceable(24) %4)
  br label %bb1

bb3:                                              ; preds = %start
  %5 = bitcast %"core::result::Result<alloc::string::String, std::io::error::Error>"* %arg0 to %"core::result::Result<alloc::string::String, std::io::error::Error>::Err"*
  %6 = getelementptr inbounds %"core::result::Result<alloc::string::String, std::io::error::Error>::Err", %"core::result::Result<alloc::string::String, std::io::error::Error>::Err"* %5, i32 0, i32 1
; call core::ptr::real_drop_in_place
  call void @_ZN4core3ptr18real_drop_in_place17hea225b29bbc525feE(%"std::io::error::Error"* align 8 dereferenceable(16) %6)
  br label %bb1
}

; core::ptr::real_drop_in_place
; Function Attrs: nonlazybind uwtable
define internal void @_ZN4core3ptr18real_drop_in_place17h29e642ed75c3b294E(%"alloc::vec::Vec<u32>"* align 8 dereferenceable(24) %arg0) unnamed_addr #1 personality i32 (i32, i32, i64, %"unwind::libunwind::_Unwind_Exception"*, %"unwind::libunwind::_Unwind_Context"*)* @rust_eh_personality {
start:
  %personalityslot = alloca { i8*, i32 }, align 8
; invoke <alloc::vec::Vec<T> as core::ops::drop::Drop>::drop
  invoke void @"_ZN66_$LT$alloc..vec..Vec$LT$T$GT$$u20$as$u20$core..ops..drop..Drop$GT$4drop17h15f3a4d951cb3e81E"(%"alloc::vec::Vec<u32>"* align 8 dereferenceable(24) %arg0)
          to label %bb4 unwind label %cleanup

bb1:                                              ; preds = %bb3
  %0 = bitcast { i8*, i32 }* %personalityslot to i8**
  %1 = load i8*, i8** %0, align 8
  %2 = getelementptr inbounds { i8*, i32 }, { i8*, i32 }* %personalityslot, i32 0, i32 1
  %3 = load i32, i32* %2, align 8
  %4 = insertvalue { i8*, i32 } undef, i8* %1, 0
  %5 = insertvalue { i8*, i32 } %4, i32 %3, 1
  resume { i8*, i32 } %5

bb2:                                              ; preds = %bb4
  ret void

bb3:                                              ; preds = %cleanup
  %6 = bitcast %"alloc::vec::Vec<u32>"* %arg0 to { i32*, i64 }*
; call core::ptr::real_drop_in_place
  call void @_ZN4core3ptr18real_drop_in_place17hd7d610c0003d8d7bE({ i32*, i64 }* align 8 dereferenceable(16) %6) #12
  br label %bb1

bb4:                                              ; preds = %start
  %7 = bitcast %"alloc::vec::Vec<u32>"* %arg0 to { i32*, i64 }*
; call core::ptr::real_drop_in_place
  call void @_ZN4core3ptr18real_drop_in_place17hd7d610c0003d8d7bE({ i32*, i64 }* align 8 dereferenceable(16) %7)
  br label %bb2

cleanup:                                          ; preds = %start
  %8 = landingpad { i8*, i32 }
          cleanup
  %9 = extractvalue { i8*, i32 } %8, 0
  %10 = extractvalue { i8*, i32 } %8, 1
  %11 = getelementptr inbounds { i8*, i32 }, { i8*, i32 }* %personalityslot, i32 0, i32 0
  store i8* %9, i8** %11, align 8
  %12 = getelementptr inbounds { i8*, i32 }, { i8*, i32 }* %personalityslot, i32 0, i32 1
  store i32 %10, i32* %12, align 8
  br label %bb3
}

; core::ptr::real_drop_in_place
; Function Attrs: nonlazybind uwtable
define internal void @_ZN4core3ptr18real_drop_in_place17h2b85e02e7b412fe3E({}* nonnull align 1 %arg0) unnamed_addr #1 {
start:
  ret void
}

; core::ptr::real_drop_in_place
; Function Attrs: nonlazybind uwtable
define internal void @_ZN4core3ptr18real_drop_in_place17h2d0e5bd5179421e7E(%"std::io::Lines<std::io::buffered::BufReader<std::fs::File>>"* align 8 dereferenceable(40) %arg0) unnamed_addr #1 {
start:
  %0 = bitcast %"std::io::Lines<std::io::buffered::BufReader<std::fs::File>>"* %arg0 to %"std::io::buffered::BufReader<std::fs::File>"*
; call core::ptr::real_drop_in_place
  call void @_ZN4core3ptr18real_drop_in_place17h14a377da3589cddcE(%"std::io::buffered::BufReader<std::fs::File>"* align 8 dereferenceable(40) %0)
  br label %bb1

bb1:                                              ; preds = %start
  ret void
}

; core::ptr::real_drop_in_place
; Function Attrs: nonlazybind uwtable
define internal void @_ZN4core3ptr18real_drop_in_place17h316d4f2f914a5cfbE({ [0 x i8]*, i64 }* align 8 dereferenceable(16) %arg0) unnamed_addr #1 personality i32 (i32, i32, i64, %"unwind::libunwind::_Unwind_Exception"*, %"unwind::libunwind::_Unwind_Context"*)* @rust_eh_personality {
start:
  %personalityslot = alloca { i8*, i32 }, align 8
  br label %bb3

bb1:                                              ; preds = %bb3
  ret void

bb2:                                              ; preds = %bb4
  %0 = bitcast { i8*, i32 }* %personalityslot to i8**
  %1 = load i8*, i8** %0, align 8
  %2 = getelementptr inbounds { i8*, i32 }, { i8*, i32 }* %personalityslot, i32 0, i32 1
  %3 = load i32, i32* %2, align 8
  %4 = insertvalue { i8*, i32 } undef, i8* %1, 0
  %5 = insertvalue { i8*, i32 } %4, i32 %3, 1
  resume { i8*, i32 } %5

bb3:                                              ; preds = %start
  %6 = bitcast { [0 x i8]*, i64 }* %arg0 to { i8*, i64 }*
  %7 = getelementptr inbounds { i8*, i64 }, { i8*, i64 }* %6, i32 0, i32 0
  %8 = load i8*, i8** %7, align 8, !nonnull !2
  %9 = getelementptr inbounds { i8*, i64 }, { i8*, i64 }* %6, i32 0, i32 1
  %10 = load i64, i64* %9, align 8
; call alloc::alloc::box_free
  call void @_ZN5alloc5alloc8box_free17h2de6167c7ab3fdf7E(i8* nonnull %8, i64 %10)
  br label %bb1

bb4:                                              ; No predecessors!
  %11 = bitcast { [0 x i8]*, i64 }* %arg0 to { i8*, i64 }*
  %12 = getelementptr inbounds { i8*, i64 }, { i8*, i64 }* %11, i32 0, i32 0
  %13 = load i8*, i8** %12, align 8, !nonnull !2
  %14 = getelementptr inbounds { i8*, i64 }, { i8*, i64 }* %11, i32 0, i32 1
  %15 = load i64, i64* %14, align 8
; call alloc::alloc::box_free
  call void @_ZN5alloc5alloc8box_free17h2de6167c7ab3fdf7E(i8* nonnull %13, i64 %15) #12
  br label %bb2
}

; core::ptr::real_drop_in_place
; Function Attrs: nonlazybind uwtable
define internal void @_ZN4core3ptr18real_drop_in_place17h3db1af61fc2be8f1E(i32* align 4 dereferenceable(4) %arg0) unnamed_addr #1 {
start:
; call <std::sys::unix::fd::FileDesc as core::ops::drop::Drop>::drop
  call void @"_ZN70_$LT$std..sys..unix..fd..FileDesc$u20$as$u20$core..ops..drop..Drop$GT$4drop17hdfe1be64d95c52f8E"(i32* align 4 dereferenceable(4) %arg0)
  br label %bb1

bb1:                                              ; preds = %start
  ret void
}

; core::ptr::real_drop_in_place
; Function Attrs: nonlazybind uwtable
define internal void @_ZN4core3ptr18real_drop_in_place17h4190a6ebbeffadfaE(i32* align 4 dereferenceable(4) %arg0) unnamed_addr #1 {
start:
; call core::ptr::real_drop_in_place
  call void @_ZN4core3ptr18real_drop_in_place17h77a93e820be800dfE(i32* align 4 dereferenceable(4) %arg0)
  br label %bb1

bb1:                                              ; preds = %start
  ret void
}

; core::ptr::real_drop_in_place
; Function Attrs: nonlazybind uwtable
define internal void @_ZN4core3ptr18real_drop_in_place17h4778a085aa21cca2E(%"std::io::error::Repr"* align 8 dereferenceable(16) %arg0) unnamed_addr #1 {
start:
  %0 = bitcast %"std::io::error::Repr"* %arg0 to i8*
  %1 = load i8, i8* %0, align 8, !range !19
  %2 = zext i8 %1 to i64
  switch i64 %2, label %bb2 [
    i64 0, label %bb1
    i64 1, label %bb1
  ]

bb1:                                              ; preds = %bb2, %start, %start
  ret void

bb2:                                              ; preds = %start
  %3 = bitcast %"std::io::error::Repr"* %arg0 to %"std::io::error::Repr::Custom"*
  %4 = getelementptr inbounds %"std::io::error::Repr::Custom", %"std::io::error::Repr::Custom"* %3, i32 0, i32 1
; call core::ptr::real_drop_in_place
  call void @_ZN4core3ptr18real_drop_in_place17h95841912912099fcE(%"std::io::error::Custom"** align 8 dereferenceable(8) %4)
  br label %bb1
}

; core::ptr::real_drop_in_place
; Function Attrs: nonlazybind uwtable
define internal void @_ZN4core3ptr18real_drop_in_place17h4f228827eac40069E({ i64*, i64 }* align 8 dereferenceable(16) %arg0) unnamed_addr #1 {
start:
; call <std::io::Guard as core::ops::drop::Drop>::drop
  call void @"_ZN56_$LT$std..io..Guard$u20$as$u20$core..ops..drop..Drop$GT$4drop17hca46b82eb547a0f5E"({ i64*, i64 }* align 8 dereferenceable(16) %arg0)
  br label %bb1

bb1:                                              ; preds = %start
  ret void
}

; core::ptr::real_drop_in_place
; Function Attrs: nonlazybind uwtable
define internal void @_ZN4core3ptr18real_drop_in_place17h6481592ae1421fa0E(%"alloc::string::String"* align 8 dereferenceable(24) %arg0) unnamed_addr #1 {
start:
  %0 = bitcast %"alloc::string::String"* %arg0 to %"alloc::vec::Vec<u8>"*
; call core::ptr::real_drop_in_place
  call void @_ZN4core3ptr18real_drop_in_place17hb3f84a622bbdc27fE(%"alloc::vec::Vec<u8>"* align 8 dereferenceable(24) %0)
  br label %bb1

bb1:                                              ; preds = %start
  ret void
}

; core::ptr::real_drop_in_place
; Function Attrs: nonlazybind uwtable
define internal void @_ZN4core3ptr18real_drop_in_place17h6a2b31df727b4a4eE(i8** align 8 dereferenceable(8) %arg0) unnamed_addr #1 {
start:
  ret void
}

; core::ptr::real_drop_in_place
; Function Attrs: nonlazybind uwtable
define internal void @_ZN4core3ptr18real_drop_in_place17h77a93e820be800dfE(i32* align 4 dereferenceable(4) %arg0) unnamed_addr #1 {
start:
; call core::ptr::real_drop_in_place
  call void @_ZN4core3ptr18real_drop_in_place17h3db1af61fc2be8f1E(i32* align 4 dereferenceable(4) %arg0)
  br label %bb1

bb1:                                              ; preds = %start
  ret void
}

; core::ptr::real_drop_in_place
; Function Attrs: nonlazybind uwtable
define internal void @_ZN4core3ptr18real_drop_in_place17h858fb983229c8843E({ i8*, i64 }* align 8 dereferenceable(16) %arg0) unnamed_addr #1 {
start:
  ret void
}

; core::ptr::real_drop_in_place
; Function Attrs: nonlazybind uwtable
define internal void @_ZN4core3ptr18real_drop_in_place17h8cfcae9b4504e94cE(%"core::option::Option<core::result::Result<alloc::string::String, std::io::error::Error>>"* align 8 dereferenceable(32) %arg0) unnamed_addr #1 {
start:
  %0 = bitcast %"core::option::Option<core::result::Result<alloc::string::String, std::io::error::Error>>"* %arg0 to i64*
  %1 = load i64, i64* %0, align 8, !range !20
  %2 = icmp eq i64 %1, 2
  %3 = select i1 %2, i64 0, i64 1
  %4 = icmp eq i64 %3, 0
  br i1 %4, label %bb1, label %bb2

bb1:                                              ; preds = %bb2, %start
  ret void

bb2:                                              ; preds = %start
  %5 = bitcast %"core::option::Option<core::result::Result<alloc::string::String, std::io::error::Error>>"* %arg0 to %"core::option::Option<core::result::Result<alloc::string::String, std::io::error::Error>>::Some"*
  %6 = bitcast %"core::option::Option<core::result::Result<alloc::string::String, std::io::error::Error>>::Some"* %5 to %"core::result::Result<alloc::string::String, std::io::error::Error>"*
; call core::ptr::real_drop_in_place
  call void @_ZN4core3ptr18real_drop_in_place17h274a8a217f6b2a6eE(%"core::result::Result<alloc::string::String, std::io::error::Error>"* align 8 dereferenceable(32) %6)
  br label %bb1
}

; core::ptr::real_drop_in_place
; Function Attrs: nonlazybind uwtable
define internal void @_ZN4core3ptr18real_drop_in_place17h90c9d4121ea23c62E({ [0 x i32]*, i64 }* align 8 dereferenceable(16) %arg0) unnamed_addr #1 personality i32 (i32, i32, i64, %"unwind::libunwind::_Unwind_Exception"*, %"unwind::libunwind::_Unwind_Context"*)* @rust_eh_personality {
start:
  %personalityslot = alloca { i8*, i32 }, align 8
  br label %bb3

bb1:                                              ; preds = %bb3
  ret void

bb2:                                              ; preds = %bb4
  %0 = bitcast { i8*, i32 }* %personalityslot to i8**
  %1 = load i8*, i8** %0, align 8
  %2 = getelementptr inbounds { i8*, i32 }, { i8*, i32 }* %personalityslot, i32 0, i32 1
  %3 = load i32, i32* %2, align 8
  %4 = insertvalue { i8*, i32 } undef, i8* %1, 0
  %5 = insertvalue { i8*, i32 } %4, i32 %3, 1
  resume { i8*, i32 } %5

bb3:                                              ; preds = %start
  %6 = bitcast { [0 x i32]*, i64 }* %arg0 to { i32*, i64 }*
  %7 = getelementptr inbounds { i32*, i64 }, { i32*, i64 }* %6, i32 0, i32 0
  %8 = load i32*, i32** %7, align 8, !nonnull !2
  %9 = getelementptr inbounds { i32*, i64 }, { i32*, i64 }* %6, i32 0, i32 1
  %10 = load i64, i64* %9, align 8
; call alloc::alloc::box_free
  call void @_ZN5alloc5alloc8box_free17hcb13562f8d63ce8aE(i32* nonnull %8, i64 %10)
  br label %bb1

bb4:                                              ; No predecessors!
  %11 = bitcast { [0 x i32]*, i64 }* %arg0 to { i32*, i64 }*
  %12 = getelementptr inbounds { i32*, i64 }, { i32*, i64 }* %11, i32 0, i32 0
  %13 = load i32*, i32** %12, align 8, !nonnull !2
  %14 = getelementptr inbounds { i32*, i64 }, { i32*, i64 }* %11, i32 0, i32 1
  %15 = load i64, i64* %14, align 8
; call alloc::alloc::box_free
  call void @_ZN5alloc5alloc8box_free17hcb13562f8d63ce8aE(i32* nonnull %13, i64 %15) #12
  br label %bb2
}

; core::ptr::real_drop_in_place
; Function Attrs: nonlazybind uwtable
define internal void @_ZN4core3ptr18real_drop_in_place17h95841912912099fcE(%"std::io::error::Custom"** align 8 dereferenceable(8) %arg0) unnamed_addr #1 personality i32 (i32, i32, i64, %"unwind::libunwind::_Unwind_Exception"*, %"unwind::libunwind::_Unwind_Context"*)* @rust_eh_personality {
start:
  %personalityslot = alloca { i8*, i32 }, align 8
  %0 = load %"std::io::error::Custom"*, %"std::io::error::Custom"** %arg0, align 8, !nonnull !2
; invoke core::ptr::real_drop_in_place
  invoke void @_ZN4core3ptr18real_drop_in_place17hc1eee214bbf268ceE(%"std::io::error::Custom"* align 8 dereferenceable(24) %0)
          to label %bb3 unwind label %cleanup

bb1:                                              ; preds = %bb3
  ret void

bb2:                                              ; preds = %bb4
  %1 = bitcast { i8*, i32 }* %personalityslot to i8**
  %2 = load i8*, i8** %1, align 8
  %3 = getelementptr inbounds { i8*, i32 }, { i8*, i32 }* %personalityslot, i32 0, i32 1
  %4 = load i32, i32* %3, align 8
  %5 = insertvalue { i8*, i32 } undef, i8* %2, 0
  %6 = insertvalue { i8*, i32 } %5, i32 %4, 1
  resume { i8*, i32 } %6

bb3:                                              ; preds = %start
  %7 = bitcast %"std::io::error::Custom"** %arg0 to i64**
  %8 = load i64*, i64** %7, align 8, !nonnull !2
; call alloc::alloc::box_free
  call void @_ZN5alloc5alloc8box_free17h85879eafdf2eff2cE(i64* nonnull %8)
  br label %bb1

bb4:                                              ; preds = %cleanup
  %9 = bitcast %"std::io::error::Custom"** %arg0 to i64**
  %10 = load i64*, i64** %9, align 8, !nonnull !2
; call alloc::alloc::box_free
  call void @_ZN5alloc5alloc8box_free17h85879eafdf2eff2cE(i64* nonnull %10) #12
  br label %bb2

cleanup:                                          ; preds = %start
  %11 = landingpad { i8*, i32 }
          cleanup
  %12 = extractvalue { i8*, i32 } %11, 0
  %13 = extractvalue { i8*, i32 } %11, 1
  %14 = getelementptr inbounds { i8*, i32 }, { i8*, i32 }* %personalityslot, i32 0, i32 0
  store i8* %12, i8** %14, align 8
  %15 = getelementptr inbounds { i8*, i32 }, { i8*, i32 }* %personalityslot, i32 0, i32 1
  store i32 %13, i32* %15, align 8
  br label %bb4
}

; core::ptr::real_drop_in_place
; Function Attrs: nonlazybind uwtable
define internal void @_ZN4core3ptr18real_drop_in_place17h9b79a35ec268aed7E(%"core::iter::adapters::Enumerate<std::io::Lines<std::io::buffered::BufReader<std::fs::File>>>"* align 8 dereferenceable(48) %arg0) unnamed_addr #1 {
start:
  %0 = bitcast %"core::iter::adapters::Enumerate<std::io::Lines<std::io::buffered::BufReader<std::fs::File>>>"* %arg0 to %"std::io::Lines<std::io::buffered::BufReader<std::fs::File>>"*
; call core::ptr::real_drop_in_place
  call void @_ZN4core3ptr18real_drop_in_place17h2d0e5bd5179421e7E(%"std::io::Lines<std::io::buffered::BufReader<std::fs::File>>"* align 8 dereferenceable(40) %0)
  br label %bb1

bb1:                                              ; preds = %start
  ret void
}

; core::ptr::real_drop_in_place
; Function Attrs: nonlazybind uwtable
define internal void @_ZN4core3ptr18real_drop_in_place17ha95fc9ef522a6adeE({ [0 x i64], i64, [0 x i64], %"core::result::Result<alloc::string::String, std::io::error::Error>", [0 x i64] }* align 8 dereferenceable(40) %arg0) unnamed_addr #1 {
start:
  %0 = getelementptr inbounds { [0 x i64], i64, [0 x i64], %"core::result::Result<alloc::string::String, std::io::error::Error>", [0 x i64] }, { [0 x i64], i64, [0 x i64], %"core::result::Result<alloc::string::String, std::io::error::Error>", [0 x i64] }* %arg0, i32 0, i32 3
; call core::ptr::real_drop_in_place
  call void @_ZN4core3ptr18real_drop_in_place17h274a8a217f6b2a6eE(%"core::result::Result<alloc::string::String, std::io::error::Error>"* align 8 dereferenceable(32) %0)
  br label %bb1

bb1:                                              ; preds = %start
  ret void
}

; core::ptr::real_drop_in_place
; Function Attrs: nonlazybind uwtable
define internal void @_ZN4core3ptr18real_drop_in_place17hab86ae9b491f7b0dE(%"core::option::Option<(usize, core::result::Result<alloc::string::String, std::io::error::Error>)>"* align 8 dereferenceable(40) %arg0) unnamed_addr #1 {
start:
  %0 = getelementptr inbounds %"core::option::Option<(usize, core::result::Result<alloc::string::String, std::io::error::Error>)>", %"core::option::Option<(usize, core::result::Result<alloc::string::String, std::io::error::Error>)>"* %arg0, i32 0, i32 1
  %1 = load i64, i64* %0, align 8, !range !20
  %2 = icmp eq i64 %1, 2
  %3 = select i1 %2, i64 0, i64 1
  %4 = icmp eq i64 %3, 0
  br i1 %4, label %bb1, label %bb2

bb1:                                              ; preds = %bb2, %start
  ret void

bb2:                                              ; preds = %start
  %5 = bitcast %"core::option::Option<(usize, core::result::Result<alloc::string::String, std::io::error::Error>)>"* %arg0 to %"core::option::Option<(usize, core::result::Result<alloc::string::String, std::io::error::Error>)>::Some"*
  %6 = bitcast %"core::option::Option<(usize, core::result::Result<alloc::string::String, std::io::error::Error>)>::Some"* %5 to { [0 x i64], i64, [0 x i64], %"core::result::Result<alloc::string::String, std::io::error::Error>", [0 x i64] }*
; call core::ptr::real_drop_in_place
  call void @_ZN4core3ptr18real_drop_in_place17ha95fc9ef522a6adeE({ [0 x i64], i64, [0 x i64], %"core::result::Result<alloc::string::String, std::io::error::Error>", [0 x i64] }* align 8 dereferenceable(40) %6)
  br label %bb1
}

; core::ptr::real_drop_in_place
; Function Attrs: nonlazybind uwtable
define internal void @_ZN4core3ptr18real_drop_in_place17hb3f84a622bbdc27fE(%"alloc::vec::Vec<u8>"* align 8 dereferenceable(24) %arg0) unnamed_addr #1 personality i32 (i32, i32, i64, %"unwind::libunwind::_Unwind_Exception"*, %"unwind::libunwind::_Unwind_Context"*)* @rust_eh_personality {
start:
  %personalityslot = alloca { i8*, i32 }, align 8
; invoke <alloc::vec::Vec<T> as core::ops::drop::Drop>::drop
  invoke void @"_ZN66_$LT$alloc..vec..Vec$LT$T$GT$$u20$as$u20$core..ops..drop..Drop$GT$4drop17h5f93ed98166dccd6E"(%"alloc::vec::Vec<u8>"* align 8 dereferenceable(24) %arg0)
          to label %bb4 unwind label %cleanup

bb1:                                              ; preds = %bb3
  %0 = bitcast { i8*, i32 }* %personalityslot to i8**
  %1 = load i8*, i8** %0, align 8
  %2 = getelementptr inbounds { i8*, i32 }, { i8*, i32 }* %personalityslot, i32 0, i32 1
  %3 = load i32, i32* %2, align 8
  %4 = insertvalue { i8*, i32 } undef, i8* %1, 0
  %5 = insertvalue { i8*, i32 } %4, i32 %3, 1
  resume { i8*, i32 } %5

bb2:                                              ; preds = %bb4
  ret void

bb3:                                              ; preds = %cleanup
  %6 = bitcast %"alloc::vec::Vec<u8>"* %arg0 to { i8*, i64 }*
; call core::ptr::real_drop_in_place
  call void @_ZN4core3ptr18real_drop_in_place17hcd98eb5be8d15d30E({ i8*, i64 }* align 8 dereferenceable(16) %6) #12
  br label %bb1

bb4:                                              ; preds = %start
  %7 = bitcast %"alloc::vec::Vec<u8>"* %arg0 to { i8*, i64 }*
; call core::ptr::real_drop_in_place
  call void @_ZN4core3ptr18real_drop_in_place17hcd98eb5be8d15d30E({ i8*, i64 }* align 8 dereferenceable(16) %7)
  br label %bb2

cleanup:                                          ; preds = %start
  %8 = landingpad { i8*, i32 }
          cleanup
  %9 = extractvalue { i8*, i32 } %8, 0
  %10 = extractvalue { i8*, i32 } %8, 1
  %11 = getelementptr inbounds { i8*, i32 }, { i8*, i32 }* %personalityslot, i32 0, i32 0
  store i8* %9, i8** %11, align 8
  %12 = getelementptr inbounds { i8*, i32 }, { i8*, i32 }* %personalityslot, i32 0, i32 1
  store i32 %10, i32* %12, align 8
  br label %bb3
}

; core::ptr::real_drop_in_place
; Function Attrs: nonlazybind uwtable
define internal void @_ZN4core3ptr18real_drop_in_place17hc0ec3c425c733586E({ {}*, [3 x i64]* }* align 8 dereferenceable(16) %arg0) unnamed_addr #1 personality i32 (i32, i32, i64, %"unwind::libunwind::_Unwind_Exception"*, %"unwind::libunwind::_Unwind_Context"*)* @rust_eh_personality {
start:
  %personalityslot = alloca { i8*, i32 }, align 8
  %0 = getelementptr inbounds { {}*, [3 x i64]* }, { {}*, [3 x i64]* }* %arg0, i32 0, i32 0
  %1 = load {}*, {}** %0, align 8, !nonnull !2
  %2 = getelementptr inbounds { {}*, [3 x i64]* }, { {}*, [3 x i64]* }* %arg0, i32 0, i32 1
  %3 = load [3 x i64]*, [3 x i64]** %2, align 8, !nonnull !2
  %4 = bitcast [3 x i64]* %3 to void ({}*)**
  %5 = getelementptr inbounds void ({}*)*, void ({}*)** %4, i64 0
  %6 = load void ({}*)*, void ({}*)** %5, align 8, !invariant.load !2, !nonnull !2
  invoke void %6({}* align 1 %1)
          to label %bb3 unwind label %cleanup

bb1:                                              ; preds = %bb3
  ret void

bb2:                                              ; preds = %bb4
  %7 = bitcast { i8*, i32 }* %personalityslot to i8**
  %8 = load i8*, i8** %7, align 8
  %9 = getelementptr inbounds { i8*, i32 }, { i8*, i32 }* %personalityslot, i32 0, i32 1
  %10 = load i32, i32* %9, align 8
  %11 = insertvalue { i8*, i32 } undef, i8* %8, 0
  %12 = insertvalue { i8*, i32 } %11, i32 %10, 1
  resume { i8*, i32 } %12

bb3:                                              ; preds = %start
  %13 = bitcast { {}*, [3 x i64]* }* %arg0 to { i8*, i64* }*
  %14 = getelementptr inbounds { i8*, i64* }, { i8*, i64* }* %13, i32 0, i32 0
  %15 = load i8*, i8** %14, align 8, !nonnull !2
  %16 = getelementptr inbounds { i8*, i64* }, { i8*, i64* }* %13, i32 0, i32 1
  %17 = load i64*, i64** %16, align 8, !nonnull !2
; call alloc::alloc::box_free
  call void @_ZN5alloc5alloc8box_free17h23ac896dc963a886E(i8* nonnull %15, i64* noalias readonly align 8 dereferenceable(24) %17)
  br label %bb1

bb4:                                              ; preds = %cleanup
  %18 = bitcast { {}*, [3 x i64]* }* %arg0 to { i8*, i64* }*
  %19 = getelementptr inbounds { i8*, i64* }, { i8*, i64* }* %18, i32 0, i32 0
  %20 = load i8*, i8** %19, align 8, !nonnull !2
  %21 = getelementptr inbounds { i8*, i64* }, { i8*, i64* }* %18, i32 0, i32 1
  %22 = load i64*, i64** %21, align 8, !nonnull !2
; call alloc::alloc::box_free
  call void @_ZN5alloc5alloc8box_free17h23ac896dc963a886E(i8* nonnull %20, i64* noalias readonly align 8 dereferenceable(24) %22) #12
  br label %bb2

cleanup:                                          ; preds = %start
  %23 = landingpad { i8*, i32 }
          cleanup
  %24 = extractvalue { i8*, i32 } %23, 0
  %25 = extractvalue { i8*, i32 } %23, 1
  %26 = getelementptr inbounds { i8*, i32 }, { i8*, i32 }* %personalityslot, i32 0, i32 0
  store i8* %24, i8** %26, align 8
  %27 = getelementptr inbounds { i8*, i32 }, { i8*, i32 }* %personalityslot, i32 0, i32 1
  store i32 %25, i32* %27, align 8
  br label %bb4
}

; core::ptr::real_drop_in_place
; Function Attrs: nonlazybind uwtable
define internal void @_ZN4core3ptr18real_drop_in_place17hc1eee214bbf268ceE(%"std::io::error::Custom"* align 8 dereferenceable(24) %arg0) unnamed_addr #1 {
start:
  %0 = bitcast %"std::io::error::Custom"* %arg0 to { {}*, [3 x i64]* }*
; call core::ptr::real_drop_in_place
  call void @_ZN4core3ptr18real_drop_in_place17hcb035ead59afb08fE({ {}*, [3 x i64]* }* align 8 dereferenceable(16) %0)
  br label %bb1

bb1:                                              ; preds = %start
  ret void
}

; core::ptr::real_drop_in_place
; Function Attrs: nonlazybind uwtable
define internal void @_ZN4core3ptr18real_drop_in_place17hcb035ead59afb08fE({ {}*, [3 x i64]* }* align 8 dereferenceable(16) %arg0) unnamed_addr #1 personality i32 (i32, i32, i64, %"unwind::libunwind::_Unwind_Exception"*, %"unwind::libunwind::_Unwind_Context"*)* @rust_eh_personality {
start:
  %personalityslot = alloca { i8*, i32 }, align 8
  %0 = getelementptr inbounds { {}*, [3 x i64]* }, { {}*, [3 x i64]* }* %arg0, i32 0, i32 0
  %1 = load {}*, {}** %0, align 8, !nonnull !2
  %2 = getelementptr inbounds { {}*, [3 x i64]* }, { {}*, [3 x i64]* }* %arg0, i32 0, i32 1
  %3 = load [3 x i64]*, [3 x i64]** %2, align 8, !nonnull !2
  %4 = bitcast [3 x i64]* %3 to void ({}*)**
  %5 = getelementptr inbounds void ({}*)*, void ({}*)** %4, i64 0
  %6 = load void ({}*)*, void ({}*)** %5, align 8, !invariant.load !2, !nonnull !2
  invoke void %6({}* align 1 %1)
          to label %bb3 unwind label %cleanup

bb1:                                              ; preds = %bb3
  ret void

bb2:                                              ; preds = %bb4
  %7 = bitcast { i8*, i32 }* %personalityslot to i8**
  %8 = load i8*, i8** %7, align 8
  %9 = getelementptr inbounds { i8*, i32 }, { i8*, i32 }* %personalityslot, i32 0, i32 1
  %10 = load i32, i32* %9, align 8
  %11 = insertvalue { i8*, i32 } undef, i8* %8, 0
  %12 = insertvalue { i8*, i32 } %11, i32 %10, 1
  resume { i8*, i32 } %12

bb3:                                              ; preds = %start
  %13 = bitcast { {}*, [3 x i64]* }* %arg0 to { i8*, i64* }*
  %14 = getelementptr inbounds { i8*, i64* }, { i8*, i64* }* %13, i32 0, i32 0
  %15 = load i8*, i8** %14, align 8, !nonnull !2
  %16 = getelementptr inbounds { i8*, i64* }, { i8*, i64* }* %13, i32 0, i32 1
  %17 = load i64*, i64** %16, align 8, !nonnull !2
; call alloc::alloc::box_free
  call void @_ZN5alloc5alloc8box_free17h695c028a9a7e7601E(i8* nonnull %15, i64* noalias readonly align 8 dereferenceable(24) %17)
  br label %bb1

bb4:                                              ; preds = %cleanup
  %18 = bitcast { {}*, [3 x i64]* }* %arg0 to { i8*, i64* }*
  %19 = getelementptr inbounds { i8*, i64* }, { i8*, i64* }* %18, i32 0, i32 0
  %20 = load i8*, i8** %19, align 8, !nonnull !2
  %21 = getelementptr inbounds { i8*, i64* }, { i8*, i64* }* %18, i32 0, i32 1
  %22 = load i64*, i64** %21, align 8, !nonnull !2
; call alloc::alloc::box_free
  call void @_ZN5alloc5alloc8box_free17h695c028a9a7e7601E(i8* nonnull %20, i64* noalias readonly align 8 dereferenceable(24) %22) #12
  br label %bb2

cleanup:                                          ; preds = %start
  %23 = landingpad { i8*, i32 }
          cleanup
  %24 = extractvalue { i8*, i32 } %23, 0
  %25 = extractvalue { i8*, i32 } %23, 1
  %26 = getelementptr inbounds { i8*, i32 }, { i8*, i32 }* %personalityslot, i32 0, i32 0
  store i8* %24, i8** %26, align 8
  %27 = getelementptr inbounds { i8*, i32 }, { i8*, i32 }* %personalityslot, i32 0, i32 1
  store i32 %25, i32* %27, align 8
  br label %bb4
}

; core::ptr::real_drop_in_place
; Function Attrs: nonlazybind uwtable
define internal void @_ZN4core3ptr18real_drop_in_place17hcd98eb5be8d15d30E({ i8*, i64 }* align 8 dereferenceable(16) %arg0) unnamed_addr #1 {
start:
; call <alloc::raw_vec::RawVec<T,A> as core::ops::drop::Drop>::drop
  call void @"_ZN77_$LT$alloc..raw_vec..RawVec$LT$T$C$A$GT$$u20$as$u20$core..ops..drop..Drop$GT$4drop17h0801a65309fabe0fE"({ i8*, i64 }* align 8 dereferenceable(16) %arg0)
  br label %bb1

bb1:                                              ; preds = %start
  ret void
}

; core::ptr::real_drop_in_place
; Function Attrs: nonlazybind uwtable
define internal void @_ZN4core3ptr18real_drop_in_place17hd7d610c0003d8d7bE({ i32*, i64 }* align 8 dereferenceable(16) %arg0) unnamed_addr #1 {
start:
; call <alloc::raw_vec::RawVec<T,A> as core::ops::drop::Drop>::drop
  call void @"_ZN77_$LT$alloc..raw_vec..RawVec$LT$T$C$A$GT$$u20$as$u20$core..ops..drop..Drop$GT$4drop17h2656dda41e2e5e3bE"({ i32*, i64 }* align 8 dereferenceable(16) %arg0)
  br label %bb1

bb1:                                              ; preds = %start
  ret void
}

; core::ptr::real_drop_in_place
; Function Attrs: nonlazybind uwtable
define internal void @_ZN4core3ptr18real_drop_in_place17hea225b29bbc525feE(%"std::io::error::Error"* align 8 dereferenceable(16) %arg0) unnamed_addr #1 {
start:
  %0 = bitcast %"std::io::error::Error"* %arg0 to %"std::io::error::Repr"*
; call core::ptr::real_drop_in_place
  call void @_ZN4core3ptr18real_drop_in_place17h4778a085aa21cca2E(%"std::io::error::Repr"* align 8 dereferenceable(16) %0)
  br label %bb1

bb1:                                              ; preds = %start
  ret void
}

; core::ptr::real_drop_in_place
; Function Attrs: nonlazybind uwtable
define internal void @_ZN4core3ptr18real_drop_in_place17hefc2367b7e9e5fbcE({}* nonnull align 1 %arg0.0, [3 x i64]* noalias readonly align 8 dereferenceable(24) %arg0.1) unnamed_addr #1 {
start:
  %0 = bitcast [3 x i64]* %arg0.1 to void ({}*)**
  %1 = getelementptr inbounds void ({}*)*, void ({}*)** %0, i64 0
  %2 = load void ({}*)*, void ({}*)** %1, align 8, !invariant.load !2, !nonnull !2
  call void %2({}* align 1 %arg0.0)
  br label %bb1

bb1:                                              ; preds = %start
  ret void
}

; core::ptr::real_drop_in_place
; Function Attrs: nonlazybind uwtable
define internal void @_ZN4core3ptr18real_drop_in_place17hf0f022be7980d53aE(%"core::result::Result<usize, std::io::error::Error>"* align 8 dereferenceable(24) %arg0) unnamed_addr #1 {
start:
  %0 = bitcast %"core::result::Result<usize, std::io::error::Error>"* %arg0 to i64*
  %1 = load i64, i64* %0, align 8, !range !4
  %2 = icmp eq i64 %1, 0
  br i1 %2, label %bb1, label %bb2

bb1:                                              ; preds = %bb2, %start
  ret void

bb2:                                              ; preds = %start
  %3 = bitcast %"core::result::Result<usize, std::io::error::Error>"* %arg0 to %"core::result::Result<usize, std::io::error::Error>::Err"*
  %4 = getelementptr inbounds %"core::result::Result<usize, std::io::error::Error>::Err", %"core::result::Result<usize, std::io::error::Error>::Err"* %3, i32 0, i32 1
; call core::ptr::real_drop_in_place
  call void @_ZN4core3ptr18real_drop_in_place17hea225b29bbc525feE(%"std::io::error::Error"* align 8 dereferenceable(16) %4)
  br label %bb1
}

; core::ptr::real_drop_in_place
; Function Attrs: nonlazybind uwtable
define internal void @_ZN4core3ptr18real_drop_in_place17hfc1d37c7a08f955dE({ [0 x i8]*, i64 }* align 8 dereferenceable(16) %arg0) unnamed_addr #1 {
start:
  ret void
}

; core::ptr::swap_nonoverlapping
; Function Attrs: inlinehint nonlazybind uwtable
define internal void @_ZN4core3ptr19swap_nonoverlapping17h2bd04b49dc7ab7c3E({ i8*, i64 }* %x, { i8*, i64 }* %y, i64 %count) unnamed_addr #0 {
start:
  %0 = bitcast { i8*, i64 }* %x to i8*
  %1 = bitcast { i8*, i64 }* %y to i8*
; call core::mem::size_of
  %2 = call i64 @_ZN4core3mem7size_of17h4ac17df8cfdce96bE()
  br label %bb1

bb1:                                              ; preds = %start
  %3 = mul i64 %2, %count
; call core::ptr::swap_nonoverlapping_bytes
  call void @_ZN4core3ptr25swap_nonoverlapping_bytes17h43a5bd7a1a910719E(i8* %0, i8* %1, i64 %3)
  br label %bb2

bb2:                                              ; preds = %bb1
  ret void
}

; core::ptr::swap_nonoverlapping_one
; Function Attrs: inlinehint nonlazybind uwtable
define internal void @_ZN4core3ptr23swap_nonoverlapping_one17h247a5f3ec3ff80bdE({ i8*, i64 }* %x, { i8*, i64 }* %y) unnamed_addr #0 personality i32 (i32, i32, i64, %"unwind::libunwind::_Unwind_Exception"*, %"unwind::libunwind::_Unwind_Context"*)* @rust_eh_personality {
start:
  %personalityslot = alloca { i8*, i32 }, align 8
  %_18 = alloca i8, align 1
  store i8 0, i8* %_18, align 1
; call core::mem::size_of
  %0 = call i64 @_ZN4core3mem7size_of17h4ac17df8cfdce96bE()
  br label %bb2

bb1:                                              ; preds = %bb10, %bb11
  %1 = bitcast { i8*, i32 }* %personalityslot to i8**
  %2 = load i8*, i8** %1, align 8
  %3 = getelementptr inbounds { i8*, i32 }, { i8*, i32 }* %personalityslot, i32 0, i32 1
  %4 = load i32, i32* %3, align 8
  %5 = insertvalue { i8*, i32 } undef, i8* %2, 0
  %6 = insertvalue { i8*, i32 } %5, i32 %4, 1
  resume { i8*, i32 } %6

bb2:                                              ; preds = %start
  %7 = icmp ult i64 %0, 32
  br i1 %7, label %bb3, label %bb7

bb3:                                              ; preds = %bb2
  store i8 1, i8* %_18, align 1
; call core::ptr::read
  %8 = call { i8*, i64 } @_ZN4core3ptr4read17h12a3e32a5a529932E({ i8*, i64 }* %x)
  %9 = extractvalue { i8*, i64 } %8, 0
  %10 = extractvalue { i8*, i64 } %8, 1
  br label %bb4

bb4:                                              ; preds = %bb3
; invoke core::intrinsics::copy_nonoverlapping
  invoke void @_ZN4core10intrinsics19copy_nonoverlapping17h5c8df3309f91cf5eE({ i8*, i64 }* %y, { i8*, i64 }* %x, i64 1)
          to label %bb5 unwind label %cleanup

bb5:                                              ; preds = %bb4
  store i8 0, i8* %_18, align 1
; invoke core::ptr::write
  invoke void @_ZN4core3ptr5write17hd1768e8f502150eaE({ i8*, i64 }* %y, i8* noalias readonly align 1 %9, i64 %10)
          to label %bb6 unwind label %cleanup

bb6:                                              ; preds = %bb5
  store i8 0, i8* %_18, align 1
  br label %bb9

bb7:                                              ; preds = %bb2
; call core::ptr::swap_nonoverlapping
  call void @_ZN4core3ptr19swap_nonoverlapping17h2bd04b49dc7ab7c3E({ i8*, i64 }* %x, { i8*, i64 }* %y, i64 1)
  br label %bb8

bb8:                                              ; preds = %bb7
  br label %bb9

bb9:                                              ; preds = %bb8, %bb6
  ret void

bb10:                                             ; preds = %bb11
  store i8 0, i8* %_18, align 1
  br label %bb1

bb11:                                             ; preds = %cleanup
  %11 = load i8, i8* %_18, align 1, !range !3
  %12 = trunc i8 %11 to i1
  br i1 %12, label %bb10, label %bb1

cleanup:                                          ; preds = %bb5, %bb4
  %13 = landingpad { i8*, i32 }
          cleanup
  %14 = extractvalue { i8*, i32 } %13, 0
  %15 = extractvalue { i8*, i32 } %13, 1
  %16 = getelementptr inbounds { i8*, i32 }, { i8*, i32 }* %personalityslot, i32 0, i32 0
  store i8* %14, i8** %16, align 8
  %17 = getelementptr inbounds { i8*, i32 }, { i8*, i32 }* %personalityslot, i32 0, i32 1
  store i32 %15, i32* %17, align 8
  br label %bb11
}

; core::ptr::swap_nonoverlapping_bytes
; Function Attrs: inlinehint nonlazybind uwtable
define internal void @_ZN4core3ptr25swap_nonoverlapping_bytes17h43a5bd7a1a910719E(i8* %x, i8* %y, i64 %len) unnamed_addr #0 {
start:
  %t1 = alloca %"core::mem::MaybeUninit<core::ptr::swap_nonoverlapping_bytes::UnalignedBlock>", align 8
  %t = alloca <4 x i64>, align 32
  %i = alloca i64, align 8
; call core::mem::size_of
  %0 = call i64 @_ZN4core3mem7size_of17h653a3b3c0e77a61fE()
  br label %bb1

bb1:                                              ; preds = %start
  store i64 0, i64* %i, align 8
  br label %bb2

bb2:                                              ; preds = %bb11, %bb1
  %1 = load i64, i64* %i, align 8
  %2 = add i64 %1, %0
  %3 = icmp ule i64 %2, %len
  br i1 %3, label %bb4, label %bb3

bb3:                                              ; preds = %bb2
  %4 = load i64, i64* %i, align 8
  %5 = icmp ult i64 %4, %len
  br i1 %5, label %bb12, label %bb20

bb4:                                              ; preds = %bb2
  %6 = bitcast <4 x i64>* %t to {}*
  br label %bb5

bb5:                                              ; preds = %bb4
  br label %bb6

bb6:                                              ; preds = %bb5
  %7 = bitcast <4 x i64>* %t to i8*
  %8 = load i64, i64* %i, align 8
; call core::ptr::<impl *mut T>::add
  %9 = call i8* @"_ZN4core3ptr31_$LT$impl$u20$$BP$mut$u20$T$GT$3add17h513a4abb42d32901E"(i8* %x, i64 %8)
  br label %bb7

bb7:                                              ; preds = %bb6
  %10 = load i64, i64* %i, align 8
; call core::ptr::<impl *mut T>::add
  %11 = call i8* @"_ZN4core3ptr31_$LT$impl$u20$$BP$mut$u20$T$GT$3add17h513a4abb42d32901E"(i8* %y, i64 %10)
  br label %bb8

bb8:                                              ; preds = %bb7
; call core::intrinsics::copy_nonoverlapping
  call void @_ZN4core10intrinsics19copy_nonoverlapping17h5e5a55767a224286E(i8* %9, i8* %7, i64 %0)
  br label %bb9

bb9:                                              ; preds = %bb8
; call core::intrinsics::copy_nonoverlapping
  call void @_ZN4core10intrinsics19copy_nonoverlapping17h5e5a55767a224286E(i8* %11, i8* %9, i64 %0)
  br label %bb10

bb10:                                             ; preds = %bb9
; call core::intrinsics::copy_nonoverlapping
  call void @_ZN4core10intrinsics19copy_nonoverlapping17h5e5a55767a224286E(i8* %7, i8* %11, i64 %0)
  br label %bb11

bb11:                                             ; preds = %bb10
  %12 = load i64, i64* %i, align 8
  %13 = add i64 %12, %0
  store i64 %13, i64* %i, align 8
  br label %bb2

bb12:                                             ; preds = %bb3
  %14 = bitcast %"core::mem::MaybeUninit<core::ptr::swap_nonoverlapping_bytes::UnalignedBlock>"* %t1 to {}*
  br label %bb13

bb13:                                             ; preds = %bb12
  %15 = load i64, i64* %i, align 8
  %16 = sub i64 %len, %15
  %17 = bitcast %"core::mem::MaybeUninit<core::ptr::swap_nonoverlapping_bytes::UnalignedBlock>"* %t1 to %"core::mem::ManuallyDrop<core::ptr::swap_nonoverlapping_bytes::UnalignedBlock>"*
  %18 = bitcast %"core::mem::ManuallyDrop<core::ptr::swap_nonoverlapping_bytes::UnalignedBlock>"* %17 to %"core::ptr::swap_nonoverlapping_bytes::UnalignedBlock"*
  br label %bb14

bb14:                                             ; preds = %bb13
  %19 = bitcast %"core::ptr::swap_nonoverlapping_bytes::UnalignedBlock"* %18 to i8*
  %20 = load i64, i64* %i, align 8
; call core::ptr::<impl *mut T>::add
  %21 = call i8* @"_ZN4core3ptr31_$LT$impl$u20$$BP$mut$u20$T$GT$3add17h513a4abb42d32901E"(i8* %x, i64 %20)
  br label %bb15

bb15:                                             ; preds = %bb14
  %22 = load i64, i64* %i, align 8
; call core::ptr::<impl *mut T>::add
  %23 = call i8* @"_ZN4core3ptr31_$LT$impl$u20$$BP$mut$u20$T$GT$3add17h513a4abb42d32901E"(i8* %y, i64 %22)
  br label %bb16

bb16:                                             ; preds = %bb15
; call core::intrinsics::copy_nonoverlapping
  call void @_ZN4core10intrinsics19copy_nonoverlapping17h5e5a55767a224286E(i8* %21, i8* %19, i64 %16)
  br label %bb17

bb17:                                             ; preds = %bb16
; call core::intrinsics::copy_nonoverlapping
  call void @_ZN4core10intrinsics19copy_nonoverlapping17h5e5a55767a224286E(i8* %23, i8* %21, i64 %16)
  br label %bb18

bb18:                                             ; preds = %bb17
; call core::intrinsics::copy_nonoverlapping
  call void @_ZN4core10intrinsics19copy_nonoverlapping17h5e5a55767a224286E(i8* %19, i8* %23, i64 %16)
  br label %bb19

bb19:                                             ; preds = %bb18
  br label %bb20

bb20:                                             ; preds = %bb19, %bb3
  ret void
}

; core::ptr::<impl *mut T>::add
; Function Attrs: inlinehint nonlazybind uwtable
define internal i32* @"_ZN4core3ptr31_$LT$impl$u20$$BP$mut$u20$T$GT$3add17h15483c6fb3aa8038E"(i32* %self, i64 %count) unnamed_addr #0 {
start:
; call core::ptr::<impl *mut T>::offset
  %0 = call i32* @"_ZN4core3ptr31_$LT$impl$u20$$BP$mut$u20$T$GT$6offset17h698f31f3a475bbf6E"(i32* %self, i64 %count)
  br label %bb1

bb1:                                              ; preds = %start
  ret i32* %0
}

; core::ptr::<impl *mut T>::add
; Function Attrs: inlinehint nonlazybind uwtable
define internal i8* @"_ZN4core3ptr31_$LT$impl$u20$$BP$mut$u20$T$GT$3add17h513a4abb42d32901E"(i8* %self, i64 %count) unnamed_addr #0 {
start:
; call core::ptr::<impl *mut T>::offset
  %0 = call i8* @"_ZN4core3ptr31_$LT$impl$u20$$BP$mut$u20$T$GT$6offset17h92037a7c21844171E"(i8* %self, i64 %count)
  br label %bb1

bb1:                                              ; preds = %start
  ret i8* %0
}

; core::ptr::<impl *mut T>::offset
; Function Attrs: inlinehint nonlazybind uwtable
define internal i32* @"_ZN4core3ptr31_$LT$impl$u20$$BP$mut$u20$T$GT$6offset17h698f31f3a475bbf6E"(i32* %self, i64 %count) unnamed_addr #0 {
start:
  %tmp_ret = alloca i32*, align 8
  %0 = getelementptr inbounds i32, i32* %self, i64 %count
  store i32* %0, i32** %tmp_ret, align 8
  %1 = load i32*, i32** %tmp_ret, align 8
  br label %bb1

bb1:                                              ; preds = %start
  ret i32* %1
}

; core::ptr::<impl *mut T>::offset
; Function Attrs: inlinehint nonlazybind uwtable
define internal i8* @"_ZN4core3ptr31_$LT$impl$u20$$BP$mut$u20$T$GT$6offset17h92037a7c21844171E"(i8* %self, i64 %count) unnamed_addr #0 {
start:
  %tmp_ret = alloca i8*, align 8
  %0 = getelementptr inbounds i8, i8* %self, i64 %count
  store i8* %0, i8** %tmp_ret, align 8
  %1 = load i8*, i8** %tmp_ret, align 8
  br label %bb1

bb1:                                              ; preds = %start
  ret i8* %1
}

; core::ptr::<impl *mut T>::is_null
; Function Attrs: inlinehint nonlazybind uwtable
define internal zeroext i1 @"_ZN4core3ptr31_$LT$impl$u20$$BP$mut$u20$T$GT$7is_null17h15f10a3a87700003E"(i32* %self) unnamed_addr #0 {
start:
  %0 = bitcast i32* %self to i8*
; call core::ptr::null_mut
  %1 = call i8* @_ZN4core3ptr8null_mut17h8dac6181ee80b872E()
  br label %bb1

bb1:                                              ; preds = %start
  %2 = icmp eq i8* %0, %1
  ret i1 %2
}

; core::ptr::<impl *mut T>::is_null
; Function Attrs: inlinehint nonlazybind uwtable
define internal zeroext i1 @"_ZN4core3ptr31_$LT$impl$u20$$BP$mut$u20$T$GT$7is_null17h81630a2ce924e9baE"(i8* %self) unnamed_addr #0 {
start:
; call core::ptr::null_mut
  %0 = call i8* @_ZN4core3ptr8null_mut17h8dac6181ee80b872E()
  br label %bb1

bb1:                                              ; preds = %start
  %1 = icmp eq i8* %self, %0
  ret i1 %1
}

; core::ptr::<impl *const T>::wrapping_add
; Function Attrs: inlinehint nonlazybind uwtable
define internal i8* @"_ZN4core3ptr33_$LT$impl$u20$$BP$const$u20$T$GT$12wrapping_add17h9987f0cfab639885E"(i8* %self, i64 %count) unnamed_addr #0 {
start:
; call core::ptr::<impl *const T>::wrapping_offset
  %0 = call i8* @"_ZN4core3ptr33_$LT$impl$u20$$BP$const$u20$T$GT$15wrapping_offset17h3e4cb31731a67fbbE"(i8* %self, i64 %count)
  br label %bb1

bb1:                                              ; preds = %start
  ret i8* %0
}

; core::ptr::<impl *const T>::wrapping_offset
; Function Attrs: inlinehint nonlazybind uwtable
define internal i8* @"_ZN4core3ptr33_$LT$impl$u20$$BP$const$u20$T$GT$15wrapping_offset17h3e4cb31731a67fbbE"(i8* %self, i64 %count) unnamed_addr #0 {
start:
  %tmp_ret = alloca i8*, align 8
  %0 = getelementptr i8, i8* %self, i64 %count
  store i8* %0, i8** %tmp_ret, align 8
  %1 = load i8*, i8** %tmp_ret, align 8
  br label %bb1

bb1:                                              ; preds = %start
  ret i8* %1
}

; core::ptr::<impl *const T>::add
; Function Attrs: inlinehint nonlazybind uwtable
define internal i32* @"_ZN4core3ptr33_$LT$impl$u20$$BP$const$u20$T$GT$3add17h104ee3166db6d565E"(i32* %self, i64 %count) unnamed_addr #0 {
start:
; call core::ptr::<impl *const T>::offset
  %0 = call i32* @"_ZN4core3ptr33_$LT$impl$u20$$BP$const$u20$T$GT$6offset17hf28d1907ef53bf7dE"(i32* %self, i64 %count)
  br label %bb1

bb1:                                              ; preds = %start
  ret i32* %0
}

; core::ptr::<impl *const T>::add
; Function Attrs: inlinehint nonlazybind uwtable
define internal i8* @"_ZN4core3ptr33_$LT$impl$u20$$BP$const$u20$T$GT$3add17h6382c2a38ab424a9E"(i8* %self, i64 %count) unnamed_addr #0 {
start:
; call core::ptr::<impl *const T>::offset
  %0 = call i8* @"_ZN4core3ptr33_$LT$impl$u20$$BP$const$u20$T$GT$6offset17h7335ff09340acbc6E"(i8* %self, i64 %count)
  br label %bb1

bb1:                                              ; preds = %start
  ret i8* %0
}

; core::ptr::<impl *const T>::offset
; Function Attrs: inlinehint nonlazybind uwtable
define internal i8* @"_ZN4core3ptr33_$LT$impl$u20$$BP$const$u20$T$GT$6offset17h7335ff09340acbc6E"(i8* %self, i64 %count) unnamed_addr #0 {
start:
  %tmp_ret = alloca i8*, align 8
  %0 = getelementptr inbounds i8, i8* %self, i64 %count
  store i8* %0, i8** %tmp_ret, align 8
  %1 = load i8*, i8** %tmp_ret, align 8
  br label %bb1

bb1:                                              ; preds = %start
  ret i8* %1
}

; core::ptr::<impl *const T>::offset
; Function Attrs: inlinehint nonlazybind uwtable
define internal i32* @"_ZN4core3ptr33_$LT$impl$u20$$BP$const$u20$T$GT$6offset17hf28d1907ef53bf7dE"(i32* %self, i64 %count) unnamed_addr #0 {
start:
  %tmp_ret = alloca i32*, align 8
  %0 = getelementptr inbounds i32, i32* %self, i64 %count
  store i32* %0, i32** %tmp_ret, align 8
  %1 = load i32*, i32** %tmp_ret, align 8
  br label %bb1

bb1:                                              ; preds = %start
  ret i32* %1
}

; core::ptr::<impl *const T>::is_null
; Function Attrs: inlinehint nonlazybind uwtable
define internal zeroext i1 @"_ZN4core3ptr33_$LT$impl$u20$$BP$const$u20$T$GT$7is_null17h4e8ac3715e01649dE"(i8* %self) unnamed_addr #0 {
start:
; call core::ptr::null
  %0 = call i8* @_ZN4core3ptr4null17h2081875afbaabcc2E()
  br label %bb1

bb1:                                              ; preds = %start
  %1 = icmp eq i8* %self, %0
  ret i1 %1
}

; core::ptr::<impl *const T>::is_null
; Function Attrs: inlinehint nonlazybind uwtable
define internal zeroext i1 @"_ZN4core3ptr33_$LT$impl$u20$$BP$const$u20$T$GT$7is_null17hb6275bae240a8e80E"(i32* %self) unnamed_addr #0 {
start:
  %0 = bitcast i32* %self to i8*
; call core::ptr::null
  %1 = call i8* @_ZN4core3ptr4null17h2081875afbaabcc2E()
  br label %bb1

bb1:                                              ; preds = %start
  %2 = icmp eq i8* %0, %1
  ret i1 %2
}

; core::ptr::null
; Function Attrs: inlinehint nonlazybind uwtable
define internal i8* @_ZN4core3ptr4null17h2081875afbaabcc2E() unnamed_addr #0 {
start:
  ret i8* null
}

; core::ptr::read
; Function Attrs: inlinehint nonlazybind uwtable
define internal { i8*, i64 } @_ZN4core3ptr4read17h12a3e32a5a529932E({ i8*, i64 }* %src) unnamed_addr #0 {
start:
  %_0.i = alloca { i8*, i64 }, align 8
  %tmp = alloca { i8*, i64 }, align 8
  %0 = bitcast { i8*, i64 }* %_0.i to {}*
  %1 = getelementptr inbounds { i8*, i64 }, { i8*, i64 }* %_0.i, i32 0, i32 0
  %2 = load i8*, i8** %1, align 8
  %3 = getelementptr inbounds { i8*, i64 }, { i8*, i64 }* %_0.i, i32 0, i32 1
  %4 = load i64, i64* %3, align 8
  %5 = insertvalue { i8*, i64 } undef, i8* %2, 0
  %6 = insertvalue { i8*, i64 } %5, i64 %4, 1
  store { i8*, i64 } %6, { i8*, i64 }* %tmp, align 8
  br label %bb1

bb1:                                              ; preds = %start
  br label %bb2

bb2:                                              ; preds = %bb1
; call core::intrinsics::copy_nonoverlapping
  call void @_ZN4core10intrinsics19copy_nonoverlapping17h5c8df3309f91cf5eE({ i8*, i64 }* %src, { i8*, i64 }* %tmp, i64 1)
  br label %bb3

bb3:                                              ; preds = %bb2
  %7 = getelementptr inbounds { i8*, i64 }, { i8*, i64 }* %tmp, i32 0, i32 0
  %8 = load i8*, i8** %7, align 8
  %9 = getelementptr inbounds { i8*, i64 }, { i8*, i64 }* %tmp, i32 0, i32 1
  %10 = load i64, i64* %9, align 8
  %11 = insertvalue { i8*, i64 } undef, i8* %8, 0
  %12 = insertvalue { i8*, i64 } %11, i64 %10, 1
  %13 = insertvalue { i8*, i64 } undef, i8* %8, 0
  %14 = insertvalue { i8*, i64 } %13, i64 %10, 1
  %15 = extractvalue { i8*, i64 } %14, 0
  %16 = extractvalue { i8*, i64 } %14, 1
  br label %bb4

bb4:                                              ; preds = %bb3
  %17 = insertvalue { i8*, i64 } undef, i8* %15, 0
  %18 = insertvalue { i8*, i64 } %17, i64 %16, 1
  ret { i8*, i64 } %18
}

; core::ptr::read
; Function Attrs: inlinehint nonlazybind uwtable
define internal void @_ZN4core3ptr4read17hb0a75885f1a04642E(%"alloc::alloc::Global"* %src) unnamed_addr #0 {
start:
  %_0.i = alloca %"core::mem::MaybeUninit<alloc::alloc::Global>", align 1
  %tmp = alloca %"core::mem::MaybeUninit<alloc::alloc::Global>", align 1
  %0 = bitcast %"core::mem::MaybeUninit<alloc::alloc::Global>"* %_0.i to {}*
  br label %bb1

bb1:                                              ; preds = %start
  %1 = bitcast %"core::mem::MaybeUninit<alloc::alloc::Global>"* %tmp to %"core::mem::ManuallyDrop<alloc::alloc::Global>"*
  %2 = bitcast %"core::mem::ManuallyDrop<alloc::alloc::Global>"* %1 to %"alloc::alloc::Global"*
  br label %bb2

bb2:                                              ; preds = %bb1
; call core::intrinsics::copy_nonoverlapping
  call void @_ZN4core10intrinsics19copy_nonoverlapping17hf2be61a87952cb10E(%"alloc::alloc::Global"* %src, %"alloc::alloc::Global"* %2, i64 1)
  br label %bb3

bb3:                                              ; preds = %bb2
  br label %bb4

bb4:                                              ; preds = %bb3
  ret void
}

; core::ptr::read
; Function Attrs: inlinehint nonlazybind uwtable
define internal { i8*, i64 } @_ZN4core3ptr4read17hc2dabe0207c1d709E({ i8*, i64 }* %src) unnamed_addr #0 {
start:
  %_0.i = alloca { i8*, i64 }, align 8
  %tmp = alloca { i8*, i64 }, align 8
  %0 = bitcast { i8*, i64 }* %_0.i to {}*
  %1 = getelementptr inbounds { i8*, i64 }, { i8*, i64 }* %_0.i, i32 0, i32 0
  %2 = load i8*, i8** %1, align 8
  %3 = getelementptr inbounds { i8*, i64 }, { i8*, i64 }* %_0.i, i32 0, i32 1
  %4 = load i64, i64* %3, align 8
  %5 = insertvalue { i8*, i64 } undef, i8* %2, 0
  %6 = insertvalue { i8*, i64 } %5, i64 %4, 1
  store { i8*, i64 } %6, { i8*, i64 }* %tmp, align 8
  br label %bb1

bb1:                                              ; preds = %start
  br label %bb2

bb2:                                              ; preds = %bb1
; call core::intrinsics::copy_nonoverlapping
  call void @_ZN4core10intrinsics19copy_nonoverlapping17h40e143e08364eb65E({ i8*, i64 }* %src, { i8*, i64 }* %tmp, i64 1)
  br label %bb3

bb3:                                              ; preds = %bb2
  %7 = getelementptr inbounds { i8*, i64 }, { i8*, i64 }* %tmp, i32 0, i32 0
  %8 = load i8*, i8** %7, align 8
  %9 = getelementptr inbounds { i8*, i64 }, { i8*, i64 }* %tmp, i32 0, i32 1
  %10 = load i64, i64* %9, align 8
  %11 = insertvalue { i8*, i64 } undef, i8* %8, 0
  %12 = insertvalue { i8*, i64 } %11, i64 %10, 1
  %13 = insertvalue { i8*, i64 } undef, i8* %8, 0
  %14 = insertvalue { i8*, i64 } %13, i64 %10, 1
  %15 = extractvalue { i8*, i64 } %14, 0
  %16 = extractvalue { i8*, i64 } %14, 1
  br label %bb4

bb4:                                              ; preds = %bb3
  %17 = insertvalue { i8*, i64 } undef, i8* %15, 0
  %18 = insertvalue { i8*, i64 } %17, i64 %16, 1
  ret { i8*, i64 } %18
}

; core::ptr::write
; Function Attrs: inlinehint nonlazybind uwtable
define internal void @_ZN4core3ptr5write17h87b7781840248bfdE({ i8*, i64 }* %dst, i8* nonnull %src.0, i64 %src.1) unnamed_addr #0 {
start:
  %0 = getelementptr inbounds { i8*, i64 }, { i8*, i64 }* %dst, i32 0, i32 0
  store i8* %src.0, i8** %0, align 8
  %1 = getelementptr inbounds { i8*, i64 }, { i8*, i64 }* %dst, i32 0, i32 1
  store i64 %src.1, i64* %1, align 8
  ret void
}

; core::ptr::write
; Function Attrs: inlinehint nonlazybind uwtable
